ARM GAS  /var/folders/hl/qgbwny5j0fd895c2c41bk3tw0000gp/T//ccXwbuCm.s 			page 1


   1              		.cpu cortex-m7
   2              		.eabi_attribute 28, 1
   3              		.eabi_attribute 20, 1
   4              		.eabi_attribute 21, 1
   5              		.eabi_attribute 23, 3
   6              		.eabi_attribute 24, 1
   7              		.eabi_attribute 25, 1
   8              		.eabi_attribute 26, 1
   9              		.eabi_attribute 30, 2
  10              		.eabi_attribute 34, 1
  11              		.eabi_attribute 18, 4
  12              		.file	"DualSequencer.cpp"
  13              		.text
  14              	.Ltext0:
  15              		.cfi_sections	.debug_frame
  16              		.section	.text._ZN5daisy6SwitchD2Ev,"axG",%progbits,_ZN5daisy6SwitchD5Ev,comdat
  17              		.align	1
  18              		.p2align 2,,3
  19              		.weak	_ZN5daisy6SwitchD2Ev
  20              		.arch armv7e-m
  21              		.syntax unified
  22              		.thumb
  23              		.thumb_func
  24              		.fpu fpv5-d16
  26              	_ZN5daisy6SwitchD2Ev:
  27              	.LVL0:
  28              	.LFB1606:
  29              		.file 1 "../../libDaisy//src/hid/switch.h"
   1:../../libDaisy//src/hid/switch.h **** #pragma once
   2:../../libDaisy//src/hid/switch.h **** #ifndef DSY_SWITCH_H
   3:../../libDaisy//src/hid/switch.h **** #define DSY_SWITCH_H
   4:../../libDaisy//src/hid/switch.h **** #include "daisy_core.h"
   5:../../libDaisy//src/hid/switch.h **** #include "per/gpio.h"
   6:../../libDaisy//src/hid/switch.h **** #include "sys/system.h"
   7:../../libDaisy//src/hid/switch.h **** 
   8:../../libDaisy//src/hid/switch.h **** namespace daisy
   9:../../libDaisy//src/hid/switch.h **** {
  10:../../libDaisy//src/hid/switch.h **** /** 
  11:../../libDaisy//src/hid/switch.h ****     Generic Class for handling momentary/latching switches \n 
  12:../../libDaisy//src/hid/switch.h ****     Inspired/influenced by Mutable Instruments (pichenettes) Switch classes
  13:../../libDaisy//src/hid/switch.h ****     @author Stephen Hensley
  14:../../libDaisy//src/hid/switch.h ****     @date December 2019
  15:../../libDaisy//src/hid/switch.h ****     @ingroup controls
  16:../../libDaisy//src/hid/switch.h **** */
  17:../../libDaisy//src/hid/switch.h **** class Switch
  18:../../libDaisy//src/hid/switch.h **** {
  19:../../libDaisy//src/hid/switch.h ****   public:
  20:../../libDaisy//src/hid/switch.h ****     /** Specifies the expected behavior of the switch */
  21:../../libDaisy//src/hid/switch.h ****     enum Type
  22:../../libDaisy//src/hid/switch.h ****     {
  23:../../libDaisy//src/hid/switch.h ****         TYPE_TOGGLE,    /**< & */
  24:../../libDaisy//src/hid/switch.h ****         TYPE_MOMENTARY, /**< & */
  25:../../libDaisy//src/hid/switch.h ****     };
  26:../../libDaisy//src/hid/switch.h ****     /** Specifies whether the pressed is HIGH or LOW. */
  27:../../libDaisy//src/hid/switch.h ****     enum Polarity
  28:../../libDaisy//src/hid/switch.h ****     {
  29:../../libDaisy//src/hid/switch.h ****         POLARITY_NORMAL,   /**< & */
ARM GAS  /var/folders/hl/qgbwny5j0fd895c2c41bk3tw0000gp/T//ccXwbuCm.s 			page 2


  30:../../libDaisy//src/hid/switch.h ****         POLARITY_INVERTED, /**< & */
  31:../../libDaisy//src/hid/switch.h ****     };
  32:../../libDaisy//src/hid/switch.h **** 
  33:../../libDaisy//src/hid/switch.h ****     /** Specifies whether to use built-in Pull Up/Down resistors to hold button at a given state wh
  34:../../libDaisy//src/hid/switch.h ****     enum Pull
  35:../../libDaisy//src/hid/switch.h ****     {
  36:../../libDaisy//src/hid/switch.h ****         PULL_UP,   /**< & */
  37:../../libDaisy//src/hid/switch.h ****         PULL_DOWN, /**< & */
  38:../../libDaisy//src/hid/switch.h ****         PULL_NONE, /**< & */
  39:../../libDaisy//src/hid/switch.h ****     };
  40:../../libDaisy//src/hid/switch.h **** 
  41:../../libDaisy//src/hid/switch.h ****     Switch() {}
  42:../../libDaisy//src/hid/switch.h ****     ~Switch() {}
  30              		.loc 1 42 5 view -0
  31              		.cfi_startproc
  32              		@ args = 0, pretend = 0, frame = 0
  33              		@ frame_needed = 0, uses_anonymous_args = 0
  34              		@ link register save eliminated.
  35              		.loc 1 42 16 is_stmt 0 view .LVU1
  36 0000 7047     		bx	lr
  37              		.cfi_endproc
  38              	.LFE1606:
  40              		.weak	_ZN5daisy6SwitchD1Ev
  41              		.thumb_set _ZN5daisy6SwitchD1Ev,_ZN5daisy6SwitchD2Ev
  42 0002 00BF     		.section	.text._ZN5daisy8patch_sm12DaisyPatchSMD2Ev,"axG",%progbits,_ZN5daisy8patch_sm12DaisyPatch
  43              		.align	1
  44              		.p2align 2,,3
  45              		.weak	_ZN5daisy8patch_sm12DaisyPatchSMD2Ev
  46              		.syntax unified
  47              		.thumb
  48              		.thumb_func
  49              		.fpu fpv5-d16
  51              	_ZN5daisy8patch_sm12DaisyPatchSMD2Ev:
  52              	.LVL1:
  53              	.LFB2529:
  54              		.file 2 "../../libDaisy//src/daisy_patch_sm.h"
   1:../../libDaisy//src/daisy_patch_sm.h **** #pragma once
   2:../../libDaisy//src/daisy_patch_sm.h **** 
   3:../../libDaisy//src/daisy_patch_sm.h **** #include "daisy.h"
   4:../../libDaisy//src/daisy_patch_sm.h **** 
   5:../../libDaisy//src/daisy_patch_sm.h **** namespace daisy
   6:../../libDaisy//src/daisy_patch_sm.h **** {
   7:../../libDaisy//src/daisy_patch_sm.h **** namespace patch_sm
   8:../../libDaisy//src/daisy_patch_sm.h **** {
   9:../../libDaisy//src/daisy_patch_sm.h ****     /** Accessors for the Analog Controls. 
  10:../../libDaisy//src/daisy_patch_sm.h ****      *  These cover the 8x Bipolar CV inputs
  11:../../libDaisy//src/daisy_patch_sm.h ****      *  as well as the 4x 0-3V3 ADC inputs on
  12:../../libDaisy//src/daisy_patch_sm.h ****      *  the hardware 
  13:../../libDaisy//src/daisy_patch_sm.h ****      * 
  14:../../libDaisy//src/daisy_patch_sm.h ****      *  When reading a value with DaisyPatchSM::GetAdcValue()
  15:../../libDaisy//src/daisy_patch_sm.h ****      * 
  16:../../libDaisy//src/daisy_patch_sm.h ****      *  patch.GetAdcValue(patch_sm::CV_1);
  17:../../libDaisy//src/daisy_patch_sm.h ****      */
  18:../../libDaisy//src/daisy_patch_sm.h ****     enum
  19:../../libDaisy//src/daisy_patch_sm.h ****     {
  20:../../libDaisy//src/daisy_patch_sm.h ****         CV_1 = 0,
  21:../../libDaisy//src/daisy_patch_sm.h ****         CV_2,
ARM GAS  /var/folders/hl/qgbwny5j0fd895c2c41bk3tw0000gp/T//ccXwbuCm.s 			page 3


  22:../../libDaisy//src/daisy_patch_sm.h ****         CV_3,
  23:../../libDaisy//src/daisy_patch_sm.h ****         CV_4,
  24:../../libDaisy//src/daisy_patch_sm.h ****         CV_5,
  25:../../libDaisy//src/daisy_patch_sm.h ****         CV_6,
  26:../../libDaisy//src/daisy_patch_sm.h ****         CV_7,
  27:../../libDaisy//src/daisy_patch_sm.h ****         CV_8,
  28:../../libDaisy//src/daisy_patch_sm.h ****         ADC_9,
  29:../../libDaisy//src/daisy_patch_sm.h ****         ADC_10,
  30:../../libDaisy//src/daisy_patch_sm.h ****         ADC_11,
  31:../../libDaisy//src/daisy_patch_sm.h ****         ADC_12,
  32:../../libDaisy//src/daisy_patch_sm.h ****         ADC_LAST,
  33:../../libDaisy//src/daisy_patch_sm.h ****     };
  34:../../libDaisy//src/daisy_patch_sm.h **** 
  35:../../libDaisy//src/daisy_patch_sm.h ****     /** Enum for addressing the CV Outputs via the WriteCvOut function. */
  36:../../libDaisy//src/daisy_patch_sm.h ****     enum
  37:../../libDaisy//src/daisy_patch_sm.h ****     {
  38:../../libDaisy//src/daisy_patch_sm.h ****         CV_OUT_BOTH = 0,
  39:../../libDaisy//src/daisy_patch_sm.h ****         CV_OUT_1,
  40:../../libDaisy//src/daisy_patch_sm.h ****         CV_OUT_2,
  41:../../libDaisy//src/daisy_patch_sm.h ****     };
  42:../../libDaisy//src/daisy_patch_sm.h **** 
  43:../../libDaisy//src/daisy_patch_sm.h **** 
  44:../../libDaisy//src/daisy_patch_sm.h ****     /** @brief Board support file for DaisyPatchSM hardware
  45:../../libDaisy//src/daisy_patch_sm.h ****      *  @author shensley
  46:../../libDaisy//src/daisy_patch_sm.h ****      *  @ingroup boards
  47:../../libDaisy//src/daisy_patch_sm.h ****      * 
  48:../../libDaisy//src/daisy_patch_sm.h ****      *  Daisy Patch SM is a complete Eurorack module DSP engine.
  49:../../libDaisy//src/daisy_patch_sm.h ****      *  Based on the Daisy Seed, with circuits added for 
  50:../../libDaisy//src/daisy_patch_sm.h ****      *  interfacing directly with eurorack modular synthesizers.
  51:../../libDaisy//src/daisy_patch_sm.h ****      */
  52:../../libDaisy//src/daisy_patch_sm.h ****     class DaisyPatchSM
  53:../../libDaisy//src/daisy_patch_sm.h ****     {
  54:../../libDaisy//src/daisy_patch_sm.h ****       public:
  55:../../libDaisy//src/daisy_patch_sm.h ****         /** Helper for mapping pins, and accessing them using the `GetPin` function */
  56:../../libDaisy//src/daisy_patch_sm.h ****         enum class PinBank
  57:../../libDaisy//src/daisy_patch_sm.h ****         {
  58:../../libDaisy//src/daisy_patch_sm.h ****             A,
  59:../../libDaisy//src/daisy_patch_sm.h ****             B,
  60:../../libDaisy//src/daisy_patch_sm.h ****             C,
  61:../../libDaisy//src/daisy_patch_sm.h ****             D
  62:../../libDaisy//src/daisy_patch_sm.h ****         };
  63:../../libDaisy//src/daisy_patch_sm.h **** 
  64:../../libDaisy//src/daisy_patch_sm.h ****         DaisyPatchSM() {}
  65:../../libDaisy//src/daisy_patch_sm.h ****         ~DaisyPatchSM() {}
  55              		.loc 2 65 9 is_stmt 1 view -0
  56              		.cfi_startproc
  57              		@ args = 0, pretend = 0, frame = 0
  58              		@ frame_needed = 0, uses_anonymous_args = 0
  59              		@ link register save eliminated.
  60              	.LBB350:
  61              	.LBI350:
  62              		.file 3 "../../libDaisy//src/hid/gatein.h"
   1:../../libDaisy//src/hid/gatein.h **** #pragma once
   2:../../libDaisy//src/hid/gatein.h **** #ifndef DSY_GATEIN_H
   3:../../libDaisy//src/hid/gatein.h **** #define DSY_GATEIN_H
   4:../../libDaisy//src/hid/gatein.h **** #include "per/gpio.h"
   5:../../libDaisy//src/hid/gatein.h **** 
ARM GAS  /var/folders/hl/qgbwny5j0fd895c2c41bk3tw0000gp/T//ccXwbuCm.s 			page 4


   6:../../libDaisy//src/hid/gatein.h **** namespace daisy
   7:../../libDaisy//src/hid/gatein.h **** {
   8:../../libDaisy//src/hid/gatein.h **** /**
   9:../../libDaisy//src/hid/gatein.h ****    @brief Generic Class for handling gate inputs through GPIO.
  10:../../libDaisy//src/hid/gatein.h ****    @author Stephen Hensley
  11:../../libDaisy//src/hid/gatein.h ****    @date    March 2020
  12:../../libDaisy//src/hid/gatein.h ****    @ingroup controls
  13:../../libDaisy//src/hid/gatein.h **** */
  14:../../libDaisy//src/hid/gatein.h **** class GateIn
  15:../../libDaisy//src/hid/gatein.h **** {
  16:../../libDaisy//src/hid/gatein.h ****   public:
  17:../../libDaisy//src/hid/gatein.h ****     /** GateIn 
  18:../../libDaisy//src/hid/gatein.h ****     Constructor 
  19:../../libDaisy//src/hid/gatein.h ****     */
  20:../../libDaisy//src/hid/gatein.h ****     GateIn() {}
  21:../../libDaisy//src/hid/gatein.h ****     /** GateIn~
  22:../../libDaisy//src/hid/gatein.h ****     Destructor 
  23:../../libDaisy//src/hid/gatein.h ****     */
  24:../../libDaisy//src/hid/gatein.h ****     ~GateIn() {}
  63              		.loc 3 24 5 view .LVU3
  64              		.loc 3 24 5 is_stmt 0 view .LVU4
  65              	.LBE350:
  66              	.LBB351:
  67              	.LBI351:
  68              		.loc 3 24 5 is_stmt 1 view .LVU5
  69              		.loc 3 24 5 is_stmt 0 view .LVU6
  70              	.LBE351:
  71              	.LBB352:
  72              	.LBI352:
  73              		.file 4 "../../libDaisy//src/dev/codec_pcm3060.h"
   1:../../libDaisy//src/dev/codec_pcm3060.h **** #pragma once
   2:../../libDaisy//src/dev/codec_pcm3060.h **** #ifndef DSY_CODEC_PCM3060_H
   3:../../libDaisy//src/dev/codec_pcm3060.h **** #define DSY_CODEC_PCM3060_H
   4:../../libDaisy//src/dev/codec_pcm3060.h **** #include "per/i2c.h"
   5:../../libDaisy//src/dev/codec_pcm3060.h **** namespace daisy
   6:../../libDaisy//src/dev/codec_pcm3060.h **** {
   7:../../libDaisy//src/dev/codec_pcm3060.h **** /**
   8:../../libDaisy//src/dev/codec_pcm3060.h ****  * @brief Driver for the TI PCM3060 Audio Codec.
   9:../../libDaisy//src/dev/codec_pcm3060.h ****  * @addtogroup codec
  10:../../libDaisy//src/dev/codec_pcm3060.h ****  * 
  11:../../libDaisy//src/dev/codec_pcm3060.h ****  * For now this is a limited interface that uses I2C to communicate with the PCM3060
  12:../../libDaisy//src/dev/codec_pcm3060.h ****  * The device can also be accessed with SPI, which is not yet supported.
  13:../../libDaisy//src/dev/codec_pcm3060.h ****  * 
  14:../../libDaisy//src/dev/codec_pcm3060.h ****  * For now all registers are set to their defaults, and the Init function will 
  15:../../libDaisy//src/dev/codec_pcm3060.h ****  * perform a MRST and SRST before setting the format to 24bit LJ, and disabling 
  16:../../libDaisy//src/dev/codec_pcm3060.h ****  * power save for both the ADC and DAC.
  17:../../libDaisy//src/dev/codec_pcm3060.h ****  *
  18:../../libDaisy//src/dev/codec_pcm3060.h ****  */
  19:../../libDaisy//src/dev/codec_pcm3060.h **** class Pcm3060
  20:../../libDaisy//src/dev/codec_pcm3060.h **** {
  21:../../libDaisy//src/dev/codec_pcm3060.h ****   public:
  22:../../libDaisy//src/dev/codec_pcm3060.h ****     enum class Result
  23:../../libDaisy//src/dev/codec_pcm3060.h ****     {
  24:../../libDaisy//src/dev/codec_pcm3060.h ****         OK,
  25:../../libDaisy//src/dev/codec_pcm3060.h ****         ERR,
  26:../../libDaisy//src/dev/codec_pcm3060.h ****     };
  27:../../libDaisy//src/dev/codec_pcm3060.h **** 
ARM GAS  /var/folders/hl/qgbwny5j0fd895c2c41bk3tw0000gp/T//ccXwbuCm.s 			page 5


  28:../../libDaisy//src/dev/codec_pcm3060.h ****     Pcm3060() {}
  29:../../libDaisy//src/dev/codec_pcm3060.h ****     ~Pcm3060() {}
  74              		.loc 4 29 5 is_stmt 1 view .LVU7
  75              		.loc 4 29 5 is_stmt 0 view .LVU8
  76              	.LBE352:
  77              	.LBB353:
  78              	.LBI353:
  79              		.file 5 "../../libDaisy//src/hid/usb.h"
   1:../../libDaisy//src/hid/usb.h **** #pragma once
   2:../../libDaisy//src/hid/usb.h **** #ifndef DSY_HID_USB_H
   3:../../libDaisy//src/hid/usb.h **** #define DSY_HID_USB_H
   4:../../libDaisy//src/hid/usb.h **** #include <stdint.h>
   5:../../libDaisy//src/hid/usb.h **** #include <stdlib.h>
   6:../../libDaisy//src/hid/usb.h **** 
   7:../../libDaisy//src/hid/usb.h **** namespace daisy
   8:../../libDaisy//src/hid/usb.h **** /** @addtogroup human_interface
   9:../../libDaisy//src/hid/usb.h ****     @{
  10:../../libDaisy//src/hid/usb.h **** */
  11:../../libDaisy//src/hid/usb.h **** 
  12:../../libDaisy//src/hid/usb.h **** {
  13:../../libDaisy//src/hid/usb.h **** /** 
  14:../../libDaisy//src/hid/usb.h ****     @brief Interface for initializing and using the USB Peripherals on the daisy
  15:../../libDaisy//src/hid/usb.h ****     @author Stephen Hensley
  16:../../libDaisy//src/hid/usb.h ****     @date December 2019
  17:../../libDaisy//src/hid/usb.h **** */
  18:../../libDaisy//src/hid/usb.h **** class UsbHandle
  19:../../libDaisy//src/hid/usb.h **** {
  20:../../libDaisy//src/hid/usb.h ****   public:
  21:../../libDaisy//src/hid/usb.h ****     /** Return values for USBHandle Functions */
  22:../../libDaisy//src/hid/usb.h ****     enum class Result
  23:../../libDaisy//src/hid/usb.h ****     {
  24:../../libDaisy//src/hid/usb.h ****         OK,
  25:../../libDaisy//src/hid/usb.h ****         ERR,
  26:../../libDaisy//src/hid/usb.h ****     };
  27:../../libDaisy//src/hid/usb.h **** 
  28:../../libDaisy//src/hid/usb.h ****     /** Specified which of the two USB Peripherals to initialize. */
  29:../../libDaisy//src/hid/usb.h ****     enum UsbPeriph
  30:../../libDaisy//src/hid/usb.h ****     {
  31:../../libDaisy//src/hid/usb.h ****         FS_INTERNAL, /**< Internal pin */
  32:../../libDaisy//src/hid/usb.h ****         FS_EXTERNAL, /**< FS External D+ pin is Pin 38 (GPIO32). FS External D- pin is Pin 37 (GPIO
  33:../../libDaisy//src/hid/usb.h ****         FS_BOTH,     /**< Both */
  34:../../libDaisy//src/hid/usb.h ****     };
  35:../../libDaisy//src/hid/usb.h **** 
  36:../../libDaisy//src/hid/usb.h **** 
  37:../../libDaisy//src/hid/usb.h ****     /** Function called upon reception of a buffer */
  38:../../libDaisy//src/hid/usb.h ****     typedef void (*ReceiveCallback)(uint8_t* buff, uint32_t* len);
  39:../../libDaisy//src/hid/usb.h **** 
  40:../../libDaisy//src/hid/usb.h ****     UsbHandle() {}
  41:../../libDaisy//src/hid/usb.h **** 
  42:../../libDaisy//src/hid/usb.h ****     ~UsbHandle() {}
  80              		.loc 5 42 5 is_stmt 1 view .LVU9
  81              		.loc 5 42 5 is_stmt 0 view .LVU10
  82              	.LBE353:
  83              	.LBB354:
  84              	.LBI354:
  85              		.file 6 "../../libDaisy//src/per/adc.h"
   1:../../libDaisy//src/per/adc.h **** #pragma once
ARM GAS  /var/folders/hl/qgbwny5j0fd895c2c41bk3tw0000gp/T//ccXwbuCm.s 			page 6


   2:../../libDaisy//src/per/adc.h **** #ifndef DSY_ADC_H
   3:../../libDaisy//src/per/adc.h **** #define DSY_ADC_H /**< Macro */
   4:../../libDaisy//src/per/adc.h **** #include <stdint.h>
   5:../../libDaisy//src/per/adc.h **** #include <stdlib.h>
   6:../../libDaisy//src/per/adc.h **** #include "daisy_core.h"
   7:../../libDaisy//src/per/adc.h **** #include "per/gpio.h"
   8:../../libDaisy//src/per/adc.h **** 
   9:../../libDaisy//src/per/adc.h **** #define DSY_ADC_MAX_CHANNELS 16 /**< Maximum number of ADC channels */
  10:../../libDaisy//src/per/adc.h **** 
  11:../../libDaisy//src/per/adc.h **** namespace daisy
  12:../../libDaisy//src/per/adc.h **** {
  13:../../libDaisy//src/per/adc.h **** /** @addtogroup per_analog
  14:../../libDaisy//src/per/adc.h ****     @{
  15:../../libDaisy//src/per/adc.h **** */
  16:../../libDaisy//src/per/adc.h **** 
  17:../../libDaisy//src/per/adc.h **** /* While there may not be many configuration options here,
  18:../../libDaisy//src/per/adc.h **** using a struct like this allows us to add more configuration
  19:../../libDaisy//src/per/adc.h **** later without breaking existing functionality.
  20:../../libDaisy//src/per/adc.h **** */
  21:../../libDaisy//src/per/adc.h **** 
  22:../../libDaisy//src/per/adc.h **** /** @brief   Configuration Structure for an ADC Channel 
  23:../../libDaisy//src/per/adc.h ****  *  @details This can be used to configure a a single input, 
  24:../../libDaisy//src/per/adc.h ****  *           or a multiplexed input, allowing up to 8 inputs on 
  25:../../libDaisy//src/per/adc.h ****  *           one channel.
  26:../../libDaisy//src/per/adc.h ****  *  @note    Sharing data lines to multiple muxes _is_ possible, but
  27:../../libDaisy//src/per/adc.h ****  *           each channel sharing data lines must be set to the maximum
  28:../../libDaisy//src/per/adc.h ****  *           number of channels, even if some multiplexers have fewer
  29:../../libDaisy//src/per/adc.h ****  *           inputs connected.
  30:../../libDaisy//src/per/adc.h **** */
  31:../../libDaisy//src/per/adc.h **** struct AdcChannelConfig
  32:../../libDaisy//src/per/adc.h **** {
  33:../../libDaisy//src/per/adc.h ****     /** Which pin to use for multiplexing */
  34:../../libDaisy//src/per/adc.h ****     enum MuxPin
  35:../../libDaisy//src/per/adc.h ****     {
  36:../../libDaisy//src/per/adc.h ****         MUX_SEL_0,    /**< & */
  37:../../libDaisy//src/per/adc.h ****         MUX_SEL_1,    /**< & */
  38:../../libDaisy//src/per/adc.h ****         MUX_SEL_2,    /**< & */
  39:../../libDaisy//src/per/adc.h ****         MUX_SEL_LAST, /**< & */
  40:../../libDaisy//src/per/adc.h ****     };
  41:../../libDaisy//src/per/adc.h **** 
  42:../../libDaisy//src/per/adc.h ****     /** Initializes a single ADC pin as an ADC. 
  43:../../libDaisy//src/per/adc.h ****     \param pin Pin to init.
  44:../../libDaisy//src/per/adc.h ****      */
  45:../../libDaisy//src/per/adc.h ****     void InitSingle(dsy_gpio_pin pin);
  46:../../libDaisy//src/per/adc.h **** 
  47:../../libDaisy//src/per/adc.h ****     /** 
  48:../../libDaisy//src/per/adc.h ****     Initializes a single ADC pin as a Multiplexed ADC.
  49:../../libDaisy//src/per/adc.h ****     Requires a CD405X Multiplexer connected to the pin.
  50:../../libDaisy//src/per/adc.h ****     You only need to supply the mux pins that are required,
  51:../../libDaisy//src/per/adc.h ****     e.g. a 4052 mux would only require mux_0 and mux_1.
  52:../../libDaisy//src/per/adc.h ****     Internal Callbacks handle the pin addressing.
  53:../../libDaisy//src/per/adc.h ****     \param mux_channels must be 1-8
  54:../../libDaisy//src/per/adc.h ****     \param mux_0 First mux pin
  55:../../libDaisy//src/per/adc.h ****     \param mux_1 Second mux pin
  56:../../libDaisy//src/per/adc.h ****     \param mux_2 Third mux pin
  57:../../libDaisy//src/per/adc.h ****     \param adc_pin &
  58:../../libDaisy//src/per/adc.h ****     */
ARM GAS  /var/folders/hl/qgbwny5j0fd895c2c41bk3tw0000gp/T//ccXwbuCm.s 			page 7


  59:../../libDaisy//src/per/adc.h ****     void InitMux(dsy_gpio_pin adc_pin,
  60:../../libDaisy//src/per/adc.h ****                  size_t       mux_channels,
  61:../../libDaisy//src/per/adc.h ****                  dsy_gpio_pin mux_0,
  62:../../libDaisy//src/per/adc.h ****                  dsy_gpio_pin mux_1 = {DSY_GPIOX, 0},
  63:../../libDaisy//src/per/adc.h ****                  dsy_gpio_pin mux_2 = {DSY_GPIOX, 0});
  64:../../libDaisy//src/per/adc.h **** 
  65:../../libDaisy//src/per/adc.h ****     dsy_gpio pin_;                   /**< & */
  66:../../libDaisy//src/per/adc.h ****     dsy_gpio mux_pin_[MUX_SEL_LAST]; /**< & */
  67:../../libDaisy//src/per/adc.h ****     uint8_t  mux_channels_;          /**< & */
  68:../../libDaisy//src/per/adc.h **** };
  69:../../libDaisy//src/per/adc.h **** 
  70:../../libDaisy//src/per/adc.h **** /**
  71:../../libDaisy//src/per/adc.h ****    @brief Handler for analog to digital conversion
  72:../../libDaisy//src/per/adc.h **** */
  73:../../libDaisy//src/per/adc.h **** class AdcHandle
  74:../../libDaisy//src/per/adc.h **** {
  75:../../libDaisy//src/per/adc.h ****   public:
  76:../../libDaisy//src/per/adc.h ****     /** Supported oversampling amounts */
  77:../../libDaisy//src/per/adc.h ****     enum OverSampling
  78:../../libDaisy//src/per/adc.h ****     {
  79:../../libDaisy//src/per/adc.h ****         OVS_NONE, /**< & */
  80:../../libDaisy//src/per/adc.h ****         OVS_4,    /**< & */
  81:../../libDaisy//src/per/adc.h ****         OVS_8,    /**< & */
  82:../../libDaisy//src/per/adc.h ****         OVS_16,   /**< & */
  83:../../libDaisy//src/per/adc.h ****         OVS_32,   /**< & */
  84:../../libDaisy//src/per/adc.h ****         OVS_64,   /**< & */
  85:../../libDaisy//src/per/adc.h ****         OVS_128,  /**< & */
  86:../../libDaisy//src/per/adc.h ****         OVS_256,  /**< & */
  87:../../libDaisy//src/per/adc.h ****         OVS_512,  /**< & */
  88:../../libDaisy//src/per/adc.h ****         OVS_1024, /**< & */
  89:../../libDaisy//src/per/adc.h ****         OVS_LAST, /**< & */
  90:../../libDaisy//src/per/adc.h ****     };
  91:../../libDaisy//src/per/adc.h **** 
  92:../../libDaisy//src/per/adc.h ****     AdcHandle() {}
  93:../../libDaisy//src/per/adc.h ****     ~AdcHandle() {}
  86              		.loc 6 93 5 is_stmt 1 view .LVU11
  87              		.loc 6 93 5 is_stmt 0 view .LVU12
  88              	.LBE354:
  89              	.LBB355:
  90              	.LBI355:
  91              		.file 7 "../../libDaisy//src/hid/audio.h"
   1:../../libDaisy//src/hid/audio.h **** #ifndef DSY_AUDIO_H
   2:../../libDaisy//src/hid/audio.h **** #define DSY_AUDIO_H /**< & */
   3:../../libDaisy//src/hid/audio.h **** 
   4:../../libDaisy//src/hid/audio.h **** #include "per/sai.h"
   5:../../libDaisy//src/hid/audio.h **** 
   6:../../libDaisy//src/hid/audio.h **** namespace daisy
   7:../../libDaisy//src/hid/audio.h **** {
   8:../../libDaisy//src/hid/audio.h **** /** @brief Audio Engine Handle
   9:../../libDaisy//src/hid/audio.h ****  *  @ingroup audio 
  10:../../libDaisy//src/hid/audio.h ****  *  @details This class allows for higher level access to an audio engine.
  11:../../libDaisy//src/hid/audio.h ****  *           If you're using a SOM like the DaisySeed or DaisyPatchSM (or any 
  12:../../libDaisy//src/hid/audio.h ****  *            board that includes one of those objects) then the intialization
  13:../../libDaisy//src/hid/audio.h ****  *            is already taken  care of.
  14:../../libDaisy//src/hid/audio.h ****  *           If you're setting up your own custom hardware, or need to make changes
  15:../../libDaisy//src/hid/audio.h ****  *           you will have to take the following steps:
  16:../../libDaisy//src/hid/audio.h ****  *             1. Create and Initialize an SaiHandle or two depending on your requirements
ARM GAS  /var/folders/hl/qgbwny5j0fd895c2c41bk3tw0000gp/T//ccXwbuCm.s 			page 8


  17:../../libDaisy//src/hid/audio.h ****  *             2. Initialize the Audio Handle with the desired settings and the Initialized SaiHand
  18:../../libDaisy//src/hid/audio.h ****  *             3. If the connected codec requires special configuration or initialization, do so
  19:../../libDaisy//src/hid/audio.h ****  *             4. Write a callback method using either the AudioCallback or the InterleavingAudioCa
  20:../../libDaisy//src/hid/audio.h ****  *             5. Start the Audio using one of the StartAudio function
  21:../../libDaisy//src/hid/audio.h ****  */
  22:../../libDaisy//src/hid/audio.h **** class AudioHandle
  23:../../libDaisy//src/hid/audio.h **** {
  24:../../libDaisy//src/hid/audio.h ****   public:
  25:../../libDaisy//src/hid/audio.h ****     /** Manually configurable details about the Audio Engine */
  26:../../libDaisy//src/hid/audio.h ****     /** TODO: Figure out how to get samplerate in here. */
  27:../../libDaisy//src/hid/audio.h ****     struct Config
  28:../../libDaisy//src/hid/audio.h ****     {
  29:../../libDaisy//src/hid/audio.h ****         /** number of samples to process per callback */
  30:../../libDaisy//src/hid/audio.h ****         size_t blocksize;
  31:../../libDaisy//src/hid/audio.h **** 
  32:../../libDaisy//src/hid/audio.h ****         /**< Sample rate of audio */
  33:../../libDaisy//src/hid/audio.h ****         SaiHandle::Config::SampleRate samplerate;
  34:../../libDaisy//src/hid/audio.h **** 
  35:../../libDaisy//src/hid/audio.h ****         /** factor for adjustment before and after callback for hardware that may have extra headro
  36:../../libDaisy//src/hid/audio.h ****         float postgain;
  37:../../libDaisy//src/hid/audio.h **** 
  38:../../libDaisy//src/hid/audio.h ****         /** factor for additional one-sided compensation to audio path for hardware that may
  39:../../libDaisy//src/hid/audio.h ****          *  have unequal input/output ranges
  40:../../libDaisy//src/hid/audio.h ****          */
  41:../../libDaisy//src/hid/audio.h ****         float output_compensation;
  42:../../libDaisy//src/hid/audio.h **** 
  43:../../libDaisy//src/hid/audio.h ****         /** Sets default values for config struct */
  44:../../libDaisy//src/hid/audio.h ****         Config()
  45:../../libDaisy//src/hid/audio.h ****         : blocksize(48),
  46:../../libDaisy//src/hid/audio.h ****           samplerate(SaiHandle::Config::SampleRate::SAI_48KHZ),
  47:../../libDaisy//src/hid/audio.h ****           postgain(1.f),
  48:../../libDaisy//src/hid/audio.h ****           output_compensation(1.f)
  49:../../libDaisy//src/hid/audio.h ****         {
  50:../../libDaisy//src/hid/audio.h ****         }
  51:../../libDaisy//src/hid/audio.h ****     };
  52:../../libDaisy//src/hid/audio.h **** 
  53:../../libDaisy//src/hid/audio.h ****     enum class Result
  54:../../libDaisy//src/hid/audio.h ****     {
  55:../../libDaisy//src/hid/audio.h ****         OK,
  56:../../libDaisy//src/hid/audio.h ****         ERR,
  57:../../libDaisy//src/hid/audio.h ****     };
  58:../../libDaisy//src/hid/audio.h **** 
  59:../../libDaisy//src/hid/audio.h ****     /** Non-Interleaving input buffer
  60:../../libDaisy//src/hid/audio.h ****      * Buffer arranged by float[chn][sample] 
  61:../../libDaisy//src/hid/audio.h ****      * const so that the user can't modify the input
  62:../../libDaisy//src/hid/audio.h ****      */
  63:../../libDaisy//src/hid/audio.h ****     typedef const float* const* InputBuffer;
  64:../../libDaisy//src/hid/audio.h **** 
  65:../../libDaisy//src/hid/audio.h ****     /** Non-Interleaving output buffer
  66:../../libDaisy//src/hid/audio.h ****      * Arranged by float[chn][sample] 
  67:../../libDaisy//src/hid/audio.h ****      */
  68:../../libDaisy//src/hid/audio.h ****     typedef float** OutputBuffer;
  69:../../libDaisy//src/hid/audio.h **** 
  70:../../libDaisy//src/hid/audio.h ****     /** Type for a Non-Interleaving audio callback 
  71:../../libDaisy//src/hid/audio.h ****      * Non-Interleaving audio callbacks in daisy will be of this type
  72:../../libDaisy//src/hid/audio.h ****      */
  73:../../libDaisy//src/hid/audio.h ****     typedef void (*AudioCallback)(InputBuffer  in,
ARM GAS  /var/folders/hl/qgbwny5j0fd895c2c41bk3tw0000gp/T//ccXwbuCm.s 			page 9


  74:../../libDaisy//src/hid/audio.h ****                                   OutputBuffer out,
  75:../../libDaisy//src/hid/audio.h ****                                   size_t       size);
  76:../../libDaisy//src/hid/audio.h **** 
  77:../../libDaisy//src/hid/audio.h ****     /** Interleaving Input buffer
  78:../../libDaisy//src/hid/audio.h ****      ** audio is prepared as { L0, R0, L1, R1, . . . LN, RN }]
  79:../../libDaisy//src/hid/audio.h ****      ** this is const, as the user shouldn't modify it
  80:../../libDaisy//src/hid/audio.h ****     */
  81:../../libDaisy//src/hid/audio.h ****     typedef const float* InterleavingInputBuffer;
  82:../../libDaisy//src/hid/audio.h **** 
  83:../../libDaisy//src/hid/audio.h ****     /** Interleaving Output buffer 
  84:../../libDaisy//src/hid/audio.h ****      ** audio is prepared as { L0, R0, L1, R1, . . . LN, RN }
  85:../../libDaisy//src/hid/audio.h ****     */
  86:../../libDaisy//src/hid/audio.h ****     typedef float* InterleavingOutputBuffer;
  87:../../libDaisy//src/hid/audio.h **** 
  88:../../libDaisy//src/hid/audio.h ****     /** Interleaving Audio Callback 
  89:../../libDaisy//src/hid/audio.h ****      * Interleaving audio callbacks in daisy must be of this type
  90:../../libDaisy//src/hid/audio.h ****      */
  91:../../libDaisy//src/hid/audio.h ****     typedef void (*InterleavingAudioCallback)(InterleavingInputBuffer  in,
  92:../../libDaisy//src/hid/audio.h ****                                               InterleavingOutputBuffer out,
  93:../../libDaisy//src/hid/audio.h ****                                               size_t                   size);
  94:../../libDaisy//src/hid/audio.h **** 
  95:../../libDaisy//src/hid/audio.h ****     AudioHandle() : pimpl_(nullptr) {}
  96:../../libDaisy//src/hid/audio.h ****     ~AudioHandle() {}
  92              		.loc 7 96 5 is_stmt 1 view .LVU13
  93              		.loc 7 96 5 is_stmt 0 view .LVU14
  94              	.LBE355:
  95              	.LBB356:
  96              	.LBI356:
  97              		.file 8 "../../libDaisy//src/sys/system.h"
   1:../../libDaisy//src/sys/system.h **** #ifndef DSY_SYSTEM_H
   2:../../libDaisy//src/sys/system.h **** #define DSY_SYSTEM_H
   3:../../libDaisy//src/sys/system.h **** 
   4:../../libDaisy//src/sys/system.h **** #ifndef UNIT_TEST // for unit tests, a dummy implementation is provided below
   5:../../libDaisy//src/sys/system.h **** 
   6:../../libDaisy//src/sys/system.h **** #include <cstdint>
   7:../../libDaisy//src/sys/system.h **** #include "per/tim.h"
   8:../../libDaisy//src/sys/system.h **** 
   9:../../libDaisy//src/sys/system.h **** namespace daisy
  10:../../libDaisy//src/sys/system.h **** {
  11:../../libDaisy//src/sys/system.h **** /** A handle for interacting with the Core System. 
  12:../../libDaisy//src/sys/system.h ****  ** This includes the Clock tree, MPU, global DMA initialization,
  13:../../libDaisy//src/sys/system.h ****  ** cache handling, and any other necessary global initiailzation
  14:../../libDaisy//src/sys/system.h ****  **
  15:../../libDaisy//src/sys/system.h ****  ** @author shensley
  16:../../libDaisy//src/sys/system.h ****  ** @ingroup system
  17:../../libDaisy//src/sys/system.h ****  */
  18:../../libDaisy//src/sys/system.h **** class System
  19:../../libDaisy//src/sys/system.h **** {
  20:../../libDaisy//src/sys/system.h ****   public:
  21:../../libDaisy//src/sys/system.h ****     /** Contains settings for initializing the System */
  22:../../libDaisy//src/sys/system.h ****     struct Config
  23:../../libDaisy//src/sys/system.h ****     {
  24:../../libDaisy//src/sys/system.h ****         /** Specifies the system clock frequency that feeds APB/AHB clocks, etc. */
  25:../../libDaisy//src/sys/system.h ****         enum class SysClkFreq
  26:../../libDaisy//src/sys/system.h ****         {
  27:../../libDaisy//src/sys/system.h ****             FREQ_400MHZ,
  28:../../libDaisy//src/sys/system.h ****             FREQ_480MHZ,
ARM GAS  /var/folders/hl/qgbwny5j0fd895c2c41bk3tw0000gp/T//ccXwbuCm.s 			page 10


  29:../../libDaisy//src/sys/system.h ****         };
  30:../../libDaisy//src/sys/system.h **** 
  31:../../libDaisy//src/sys/system.h ****         /** Method to call on the struct to set to defaults
  32:../../libDaisy//src/sys/system.h ****          ** CPU Freq set to 400MHz
  33:../../libDaisy//src/sys/system.h ****          ** Cache Enabled 
  34:../../libDaisy//src/sys/system.h ****          ** */
  35:../../libDaisy//src/sys/system.h ****         void Defaults()
  36:../../libDaisy//src/sys/system.h ****         {
  37:../../libDaisy//src/sys/system.h ****             cpu_freq    = SysClkFreq::FREQ_400MHZ;
  38:../../libDaisy//src/sys/system.h ****             use_dcache  = true;
  39:../../libDaisy//src/sys/system.h ****             use_icache  = true;
  40:../../libDaisy//src/sys/system.h ****             skip_clocks = false;
  41:../../libDaisy//src/sys/system.h ****         }
  42:../../libDaisy//src/sys/system.h **** 
  43:../../libDaisy//src/sys/system.h ****         /** Method to call on the struct to set to boost mode:
  44:../../libDaisy//src/sys/system.h ****          ** CPU Freq set to 480MHz
  45:../../libDaisy//src/sys/system.h ****          ** Cache Enabled 
  46:../../libDaisy//src/sys/system.h ****          ** */
  47:../../libDaisy//src/sys/system.h ****         void Boost()
  48:../../libDaisy//src/sys/system.h ****         {
  49:../../libDaisy//src/sys/system.h ****             cpu_freq    = SysClkFreq::FREQ_480MHZ;
  50:../../libDaisy//src/sys/system.h ****             use_dcache  = true;
  51:../../libDaisy//src/sys/system.h ****             use_icache  = true;
  52:../../libDaisy//src/sys/system.h ****             skip_clocks = false;
  53:../../libDaisy//src/sys/system.h ****         }
  54:../../libDaisy//src/sys/system.h **** 
  55:../../libDaisy//src/sys/system.h ****         SysClkFreq cpu_freq;
  56:../../libDaisy//src/sys/system.h ****         bool       use_dcache;
  57:../../libDaisy//src/sys/system.h ****         bool       use_icache;
  58:../../libDaisy//src/sys/system.h ****         bool       skip_clocks;
  59:../../libDaisy//src/sys/system.h ****     };
  60:../../libDaisy//src/sys/system.h **** 
  61:../../libDaisy//src/sys/system.h ****     /** Describes the different regions of memory available to the Daisy
  62:../../libDaisy//src/sys/system.h ****      * 
  63:../../libDaisy//src/sys/system.h ****      */
  64:../../libDaisy//src/sys/system.h ****     enum MemoryRegion
  65:../../libDaisy//src/sys/system.h ****     {
  66:../../libDaisy//src/sys/system.h ****         INTERNAL_FLASH = 0,
  67:../../libDaisy//src/sys/system.h ****         ITCMRAM,
  68:../../libDaisy//src/sys/system.h ****         DTCMRAM,
  69:../../libDaisy//src/sys/system.h ****         SRAM_D1,
  70:../../libDaisy//src/sys/system.h ****         SRAM_D2,
  71:../../libDaisy//src/sys/system.h ****         SRAM_D3,
  72:../../libDaisy//src/sys/system.h ****         SDRAM,
  73:../../libDaisy//src/sys/system.h ****         QSPI,
  74:../../libDaisy//src/sys/system.h ****         INVALID_ADDRESS,
  75:../../libDaisy//src/sys/system.h ****     };
  76:../../libDaisy//src/sys/system.h **** 
  77:../../libDaisy//src/sys/system.h ****     System() {}
  78:../../libDaisy//src/sys/system.h ****     ~System() {}
  98              		.loc 8 78 5 is_stmt 1 view .LVU15
  99              		.loc 8 78 5 is_stmt 0 view .LVU16
 100              	.LBE356:
 101              		.loc 2 65 26 view .LVU17
 102 0000 7047     		bx	lr
 103              		.cfi_endproc
 104              	.LFE2529:
ARM GAS  /var/folders/hl/qgbwny5j0fd895c2c41bk3tw0000gp/T//ccXwbuCm.s 			page 11


 106              		.weak	_ZN5daisy8patch_sm12DaisyPatchSMD1Ev
 107              		.thumb_set _ZN5daisy8patch_sm12DaisyPatchSMD1Ev,_ZN5daisy8patch_sm12DaisyPatchSMD2Ev
 108 0002 00BF     		.section	.text._ZN7daisysp5MetroD2Ev,"axG",%progbits,_ZN7daisysp5MetroD5Ev,comdat
 109              		.align	1
 110              		.p2align 2,,3
 111              		.weak	_ZN7daisysp5MetroD2Ev
 112              		.syntax unified
 113              		.thumb
 114              		.thumb_func
 115              		.fpu fpv5-d16
 117              	_ZN7daisysp5MetroD2Ev:
 118              	.LVL2:
 119              	.LFB4764:
 120              		.file 9 "../../DaisySP//Source/Utility/metro.h"
   1:../../DaisySP//Source/Utility/metro.h **** #pragma once
   2:../../DaisySP//Source/Utility/metro.h **** #ifndef DSY_METRO_H
   3:../../DaisySP//Source/Utility/metro.h **** #define DSY_METRO_H
   4:../../DaisySP//Source/Utility/metro.h **** #include <stdint.h>
   5:../../DaisySP//Source/Utility/metro.h **** #ifdef __cplusplus
   6:../../DaisySP//Source/Utility/metro.h **** 
   7:../../DaisySP//Source/Utility/metro.h **** namespace daisysp
   8:../../DaisySP//Source/Utility/metro.h **** {
   9:../../DaisySP//Source/Utility/metro.h **** /** Creates a clock signal at a specific frequency.
  10:../../DaisySP//Source/Utility/metro.h **** */
  11:../../DaisySP//Source/Utility/metro.h **** class Metro
  12:../../DaisySP//Source/Utility/metro.h **** {
  13:../../DaisySP//Source/Utility/metro.h ****   public:
  14:../../DaisySP//Source/Utility/metro.h ****     Metro() {}
  15:../../DaisySP//Source/Utility/metro.h ****     ~Metro() {}
 121              		.loc 9 15 5 is_stmt 1 view -0
 122              		.cfi_startproc
 123              		@ args = 0, pretend = 0, frame = 0
 124              		@ frame_needed = 0, uses_anonymous_args = 0
 125              		@ link register save eliminated.
 126              		.loc 9 15 15 is_stmt 0 view .LVU19
 127 0000 7047     		bx	lr
 128              		.cfi_endproc
 129              	.LFE4764:
 131              		.weak	_ZN7daisysp5MetroD1Ev
 132              		.thumb_set _ZN7daisysp5MetroD1Ev,_ZN7daisysp5MetroD2Ev
 133 0002 00BF     		.section	.text.__tcf_0,"ax",%progbits
 134              		.align	1
 135              		.p2align 2,,3
 136              		.syntax unified
 137              		.thumb
 138              		.thumb_func
 139              		.fpu fpv5-d16
 141              	__tcf_0:
 142              	.LFB5359:
 143              		.file 10 "DualSequencer.cpp"
   1:DualSequencer.cpp **** #include "daisy_patch_sm.h"
   2:DualSequencer.cpp **** #include "daisysp.h"
   3:DualSequencer.cpp **** #include "daisy_bed.h"
   4:DualSequencer.cpp **** 
   5:DualSequencer.cpp **** using namespace daisy;
   6:DualSequencer.cpp **** using namespace patch_sm;
   7:DualSequencer.cpp **** using namespace daisysp;
ARM GAS  /var/folders/hl/qgbwny5j0fd895c2c41bk3tw0000gp/T//ccXwbuCm.s 			page 12


   8:DualSequencer.cpp **** 
   9:DualSequencer.cpp **** DaisyPatchSM 	hw;
  10:DualSequencer.cpp **** Metro			clock;
  11:DualSequencer.cpp **** Oscillator		osc[4];
 144              		.loc 10 11 13 is_stmt 1 view -0
 145              		.cfi_startproc
 146              		@ args = 0, pretend = 0, frame = 0
 147              		@ frame_needed = 0, uses_anonymous_args = 0
 148              		@ link register save eliminated.
 149              		.loc 10 11 13 is_stmt 0 view .LVU21
 150 0000 7047     		bx	lr
 151              		.cfi_endproc
 152              	.LFE5359:
 154 0002 00BF     		.section	.text.__tcf_1,"ax",%progbits
 155              		.align	1
 156              		.p2align 2,,3
 157              		.syntax unified
 158              		.thumb
 159              		.thumb_func
 160              		.fpu fpv5-d16
 162              	__tcf_1:
 163              	.LFB5363:
 164              		.cfi_startproc
 165              		@ args = 0, pretend = 0, frame = 0
 166              		@ frame_needed = 0, uses_anonymous_args = 0
 167              		@ link register save eliminated.
 168 0000 7047     		bx	lr
 169              		.cfi_endproc
 170              	.LFE5363:
 172 0002 00BF     		.section	.text._ZN5daisy8patch_sm7InitBedEv,"ax",%progbits
 173              		.align	1
 174              		.p2align 2,,3
 175              		.global	_ZN5daisy8patch_sm7InitBedEv
 176              		.syntax unified
 177              		.thumb
 178              		.thumb_func
 179              		.fpu fpv5-d16
 181              	_ZN5daisy8patch_sm7InitBedEv:
 182              	.LFB4793:
 183              		.file 11 "daisy_bed.h"
   1:daisy_bed.h   **** #pragma once
   2:daisy_bed.h   **** 
   3:daisy_bed.h   **** #include "daisy.h"
   4:daisy_bed.h   **** #include "daisysp.h"
   5:daisy_bed.h   **** #include "per/gpio.h"
   6:daisy_bed.h   **** #include "daisy_patch_sm.h"
   7:daisy_bed.h   **** 
   8:daisy_bed.h   **** namespace daisy
   9:daisy_bed.h   **** {
  10:daisy_bed.h   **** namespace patch_sm
  11:daisy_bed.h   **** {
  12:daisy_bed.h   ****     // simple stupid led set up
  13:daisy_bed.h   ****     GPIO    gen_led1;
  14:daisy_bed.h   ****     GPIO    gen_led2;
  15:daisy_bed.h   ****     GPIO    cv_led1;
  16:daisy_bed.h   ****     GPIO    cv_led2;
  17:daisy_bed.h   ****     GPIO    gate_in_led1;
ARM GAS  /var/folders/hl/qgbwny5j0fd895c2c41bk3tw0000gp/T//ccXwbuCm.s 			page 13


  18:daisy_bed.h   ****     GPIO    gate_in_led2;
  19:daisy_bed.h   ****     GPIO    gate_out_led1;
  20:daisy_bed.h   ****     GPIO    gate_out_led2;
  21:daisy_bed.h   **** 
  22:daisy_bed.h   **** 
  23:daisy_bed.h   ****     // generic leds
  24:daisy_bed.h   ****     dsy_gpio_pin oldPinD7 = DaisyPatchSM::D7;
  25:daisy_bed.h   ****     Pin newPinD7 = Pin(static_cast<GPIOPort>(oldPinD7.port), oldPinD7.pin);
  26:daisy_bed.h   ****     dsy_gpio_pin oldPinA9 = DaisyPatchSM::A9;
  27:daisy_bed.h   ****     Pin newPinA9 = Pin(static_cast<GPIOPort>(oldPinA9.port), oldPinA9.pin);
  28:daisy_bed.h   **** 
  29:daisy_bed.h   ****     // cv leds
  30:daisy_bed.h   ****     dsy_gpio_pin oldPinD2 = DaisyPatchSM::D2;
  31:daisy_bed.h   ****     Pin newPinD2 = Pin(static_cast<GPIOPort>(oldPinD2.port), oldPinD2.pin);
  32:daisy_bed.h   ****     dsy_gpio_pin oldPinD1 = DaisyPatchSM::D1;
  33:daisy_bed.h   ****     Pin newPinD1 = Pin(static_cast<GPIOPort>(oldPinD1.port), oldPinD1.pin);
  34:daisy_bed.h   ****     // ^^^ {DSY_GPIOB, 4},  /**< D1  - SPI2 CS */
  35:daisy_bed.h   **** 
  36:daisy_bed.h   ****     // gate leds
  37:daisy_bed.h   ****     dsy_gpio_pin oldPinD3 = DaisyPatchSM::D3;
  38:daisy_bed.h   ****     Pin newPinD3 = Pin(static_cast<GPIOPort>(oldPinD3.port), oldPinD3.pin);
  39:daisy_bed.h   ****     dsy_gpio_pin oldPinD6 = DaisyPatchSM::D6;
  40:daisy_bed.h   ****     Pin newPinD6 = Pin(static_cast<GPIOPort>(oldPinD6.port), oldPinD6.pin);
  41:daisy_bed.h   ****     dsy_gpio_pin oldPinD4 = DaisyPatchSM::D4;
  42:daisy_bed.h   ****     Pin newPinD4 = Pin(static_cast<GPIOPort>(oldPinD4.port), oldPinD4.pin);
  43:daisy_bed.h   ****     dsy_gpio_pin oldPinD5 = DaisyPatchSM::D5;
  44:daisy_bed.h   ****     Pin newPinD5 = Pin(static_cast<GPIOPort>(oldPinD5.port), oldPinD5.pin);
  45:daisy_bed.h   **** 
  46:daisy_bed.h   ****     // remap
  47:daisy_bed.h   ****      
  48:daisy_bed.h   ****     // map buttons
  49:daisy_bed.h   ****     Switch      b1,b2;
  50:daisy_bed.h   **** 
  51:daisy_bed.h   ****     void InitBed(){
 184              		.loc 11 51 19 is_stmt 1 view -0
 185              		.cfi_startproc
 186              		@ args = 0, pretend = 0, frame = 8
 187              		@ frame_needed = 0, uses_anonymous_args = 0
  52:daisy_bed.h   ****         // leds
  53:daisy_bed.h   ****         gen_led1.Init(newPinD7, GPIO::Mode::OUTPUT);
 188              		.loc 11 53 9 view .LVU23
  51:daisy_bed.h   ****         // leds
 189              		.loc 11 51 19 is_stmt 0 view .LVU24
 190 0000 10B5     		push	{r4, lr}
 191              		.cfi_def_cfa_offset 8
 192              		.cfi_offset 4, -8
 193              		.cfi_offset 14, -4
 194              		.loc 11 53 22 view .LVU25
 195 0002 2D49     		ldr	r1, .L9
  51:daisy_bed.h   ****         // leds
 196              		.loc 11 51 19 view .LVU26
 197 0004 84B0     		sub	sp, sp, #16
 198              		.cfi_def_cfa_offset 24
 199              		.loc 11 53 22 view .LVU27
 200 0006 0024     		movs	r4, #0
 201 0008 0122     		movs	r2, #1
 202 000a 0968     		ldr	r1, [r1]
ARM GAS  /var/folders/hl/qgbwny5j0fd895c2c41bk3tw0000gp/T//ccXwbuCm.s 			page 14


 203 000c 2346     		mov	r3, r4
 204 000e 2B48     		ldr	r0, .L9+4
 205 0010 0094     		str	r4, [sp]
 206 0012 FFF7FEFF 		bl	_ZN5daisy4GPIO4InitENS_3PinENS0_4ModeENS0_4PullENS0_5SpeedE
 207              	.LVL3:
  54:daisy_bed.h   ****         gen_led2.Init(newPinA9, GPIO::Mode::OUTPUT);
 208              		.loc 11 54 9 is_stmt 1 view .LVU28
 209              		.loc 11 54 22 is_stmt 0 view .LVU29
 210 0016 2A49     		ldr	r1, .L9+8
 211 0018 2346     		mov	r3, r4
 212 001a 0122     		movs	r2, #1
 213 001c 0968     		ldr	r1, [r1]
 214 001e 2948     		ldr	r0, .L9+12
 215 0020 0094     		str	r4, [sp]
 216 0022 FFF7FEFF 		bl	_ZN5daisy4GPIO4InitENS_3PinENS0_4ModeENS0_4PullENS0_5SpeedE
 217              	.LVL4:
  55:daisy_bed.h   ****         cv_led1.Init(newPinD2, GPIO::Mode::OUTPUT);
 218              		.loc 11 55 9 is_stmt 1 view .LVU30
 219              		.loc 11 55 21 is_stmt 0 view .LVU31
 220 0026 2849     		ldr	r1, .L9+16
 221 0028 2346     		mov	r3, r4
 222 002a 0122     		movs	r2, #1
 223 002c 0968     		ldr	r1, [r1]
 224 002e 2748     		ldr	r0, .L9+20
 225 0030 0094     		str	r4, [sp]
 226 0032 FFF7FEFF 		bl	_ZN5daisy4GPIO4InitENS_3PinENS0_4ModeENS0_4PullENS0_5SpeedE
 227              	.LVL5:
  56:daisy_bed.h   ****         cv_led2.Init(newPinD1, GPIO::Mode::OUTPUT);
 228              		.loc 11 56 9 is_stmt 1 view .LVU32
 229              		.loc 11 56 21 is_stmt 0 view .LVU33
 230 0036 2649     		ldr	r1, .L9+24
 231 0038 2346     		mov	r3, r4
 232 003a 0122     		movs	r2, #1
 233 003c 0968     		ldr	r1, [r1]
 234 003e 2548     		ldr	r0, .L9+28
 235 0040 0094     		str	r4, [sp]
 236 0042 FFF7FEFF 		bl	_ZN5daisy4GPIO4InitENS_3PinENS0_4ModeENS0_4PullENS0_5SpeedE
 237              	.LVL6:
  57:daisy_bed.h   ****         gate_in_led1.Init(newPinD3, GPIO::Mode::OUTPUT);
 238              		.loc 11 57 9 is_stmt 1 view .LVU34
 239              		.loc 11 57 26 is_stmt 0 view .LVU35
 240 0046 2449     		ldr	r1, .L9+32
 241 0048 2346     		mov	r3, r4
 242 004a 0122     		movs	r2, #1
 243 004c 0968     		ldr	r1, [r1]
 244 004e 2348     		ldr	r0, .L9+36
 245 0050 0094     		str	r4, [sp]
 246 0052 FFF7FEFF 		bl	_ZN5daisy4GPIO4InitENS_3PinENS0_4ModeENS0_4PullENS0_5SpeedE
 247              	.LVL7:
  58:daisy_bed.h   ****         gate_in_led2.Init(newPinD4, GPIO::Mode::OUTPUT);
 248              		.loc 11 58 9 is_stmt 1 view .LVU36
 249              		.loc 11 58 26 is_stmt 0 view .LVU37
 250 0056 2249     		ldr	r1, .L9+40
 251 0058 2346     		mov	r3, r4
 252 005a 0122     		movs	r2, #1
 253 005c 0968     		ldr	r1, [r1]
 254 005e 2148     		ldr	r0, .L9+44
ARM GAS  /var/folders/hl/qgbwny5j0fd895c2c41bk3tw0000gp/T//ccXwbuCm.s 			page 15


 255 0060 0094     		str	r4, [sp]
 256 0062 FFF7FEFF 		bl	_ZN5daisy4GPIO4InitENS_3PinENS0_4ModeENS0_4PullENS0_5SpeedE
 257              	.LVL8:
  59:daisy_bed.h   ****         gate_out_led1.Init(newPinD6, GPIO::Mode::OUTPUT);
 258              		.loc 11 59 9 is_stmt 1 view .LVU38
 259              		.loc 11 59 27 is_stmt 0 view .LVU39
 260 0066 2049     		ldr	r1, .L9+48
 261 0068 2346     		mov	r3, r4
 262 006a 0122     		movs	r2, #1
 263 006c 0968     		ldr	r1, [r1]
 264 006e 1F48     		ldr	r0, .L9+52
 265 0070 0094     		str	r4, [sp]
 266 0072 FFF7FEFF 		bl	_ZN5daisy4GPIO4InitENS_3PinENS0_4ModeENS0_4PullENS0_5SpeedE
 267              	.LVL9:
  60:daisy_bed.h   ****         gate_out_led2.Init(newPinD5, GPIO::Mode::OUTPUT);
 268              		.loc 11 60 9 is_stmt 1 view .LVU40
 269              		.loc 11 60 27 is_stmt 0 view .LVU41
 270 0076 1E49     		ldr	r1, .L9+56
 271 0078 2346     		mov	r3, r4
 272 007a 0122     		movs	r2, #1
 273 007c 0968     		ldr	r1, [r1]
 274 007e 1D48     		ldr	r0, .L9+60
 275 0080 0094     		str	r4, [sp]
 276 0082 FFF7FEFF 		bl	_ZN5daisy4GPIO4InitENS_3PinENS0_4ModeENS0_4PullENS0_5SpeedE
 277              	.LVL10:
  61:daisy_bed.h   **** 
  62:daisy_bed.h   ****         // buttons
  63:daisy_bed.h   ****         b1.Init(DaisyPatchSM::A8);
 278              		.loc 11 63 9 is_stmt 1 view .LVU42
 279              		.loc 11 63 16 is_stmt 0 view .LVU43
 280 0086 1C4B     		ldr	r3, .L9+64
 281 0088 9FED1C0A 		vldr.32	s0, .L9+68
 282 008c 1A78     		ldrb	r2, [r3]	@ zero_extendqisi2
 283 008e 5978     		ldrb	r1, [r3, #1]	@ zero_extendqisi2
 284 0090 1B48     		ldr	r0, .L9+72
 285 0092 42EA0121 		orr	r1, r2, r1, lsl #8
 286 0096 8DED030A 		vstr.32	s0, [sp, #12]	@ int
 287 009a FFF7FEFF 		bl	_ZN5daisy6Switch4InitE12dsy_gpio_pinf
 288              	.LVL11:
  64:daisy_bed.h   ****         b2.Init(DaisyPatchSM::D10);
 289              		.loc 11 64 9 is_stmt 1 view .LVU44
 290              		.loc 11 64 16 is_stmt 0 view .LVU45
 291 009e 194B     		ldr	r3, .L9+76
 292 00a0 9DED030A 		vldr.32	s0, [sp, #12]	@ int
 293 00a4 1A78     		ldrb	r2, [r3]	@ zero_extendqisi2
 294 00a6 5978     		ldrb	r1, [r3, #1]	@ zero_extendqisi2
 295 00a8 1748     		ldr	r0, .L9+80
 296 00aa 42EA0121 		orr	r1, r2, r1, lsl #8
  65:daisy_bed.h   ****     }
 297              		.loc 11 65 5 view .LVU46
 298 00ae 04B0     		add	sp, sp, #16
 299              		.cfi_def_cfa_offset 8
 300              		@ sp needed
 301 00b0 BDE81040 		pop	{r4, lr}
 302              		.cfi_restore 14
 303              		.cfi_restore 4
 304              		.cfi_def_cfa_offset 0
ARM GAS  /var/folders/hl/qgbwny5j0fd895c2c41bk3tw0000gp/T//ccXwbuCm.s 			page 16


  64:daisy_bed.h   ****         b2.Init(DaisyPatchSM::D10);
 305              		.loc 11 64 16 view .LVU47
 306 00b4 FFF7FEBF 		b	_ZN5daisy6Switch4InitE12dsy_gpio_pinf
 307              	.LVL12:
 308              	.L10:
 309              		.align	2
 310              	.L9:
 311 00b8 00000000 		.word	.LANCHOR0
 312 00bc 00000000 		.word	.LANCHOR1
 313 00c0 00000000 		.word	.LANCHOR2
 314 00c4 00000000 		.word	.LANCHOR3
 315 00c8 00000000 		.word	.LANCHOR4
 316 00cc 00000000 		.word	.LANCHOR5
 317 00d0 00000000 		.word	.LANCHOR6
 318 00d4 00000000 		.word	.LANCHOR7
 319 00d8 00000000 		.word	.LANCHOR8
 320 00dc 00000000 		.word	.LANCHOR9
 321 00e0 00000000 		.word	.LANCHOR10
 322 00e4 00000000 		.word	.LANCHOR11
 323 00e8 00000000 		.word	.LANCHOR12
 324 00ec 00000000 		.word	.LANCHOR13
 325 00f0 00000000 		.word	.LANCHOR14
 326 00f4 00000000 		.word	.LANCHOR15
 327 00f8 00000000 		.word	_ZN5daisy8patch_sm12DaisyPatchSM2A8E
 328 00fc 00000000 		.word	0
 329 0100 00000000 		.word	.LANCHOR16
 330 0104 00000000 		.word	_ZN5daisy8patch_sm12DaisyPatchSM3D10E
 331 0108 00000000 		.word	.LANCHOR17
 332              		.cfi_endproc
 333              	.LFE4793:
 335              		.section	.text._ZN5daisy8patch_sm6ledOffEv,"ax",%progbits
 336              		.align	1
 337              		.p2align 2,,3
 338              		.global	_ZN5daisy8patch_sm6ledOffEv
 339              		.syntax unified
 340              		.thumb
 341              		.thumb_func
 342              		.fpu fpv5-d16
 344              	_ZN5daisy8patch_sm6ledOffEv:
 345              	.LFB4794:
  66:daisy_bed.h   **** 
  67:daisy_bed.h   ****     void ledOff(){
 346              		.loc 11 67 18 is_stmt 1 view -0
 347              		.cfi_startproc
 348              		@ args = 0, pretend = 0, frame = 0
 349              		@ frame_needed = 0, uses_anonymous_args = 0
  68:daisy_bed.h   ****         gen_led1.Write(false);
 350              		.loc 11 68 9 view .LVU49
  67:daisy_bed.h   ****         gen_led1.Write(false);
 351              		.loc 11 67 18 is_stmt 0 view .LVU50
 352 0000 08B5     		push	{r3, lr}
 353              		.cfi_def_cfa_offset 8
 354              		.cfi_offset 3, -8
 355              		.cfi_offset 14, -4
 356              		.loc 11 68 23 view .LVU51
 357 0002 0021     		movs	r1, #0
 358 0004 0848     		ldr	r0, .L13
ARM GAS  /var/folders/hl/qgbwny5j0fd895c2c41bk3tw0000gp/T//ccXwbuCm.s 			page 17


 359 0006 FFF7FEFF 		bl	_ZN5daisy4GPIO5WriteEb
 360              	.LVL13:
  69:daisy_bed.h   ****         gen_led2.Write(false);
 361              		.loc 11 69 9 is_stmt 1 view .LVU52
 362              		.loc 11 69 23 is_stmt 0 view .LVU53
 363 000a 0021     		movs	r1, #0
 364 000c 0748     		ldr	r0, .L13+4
 365 000e FFF7FEFF 		bl	_ZN5daisy4GPIO5WriteEb
 366              	.LVL14:
  70:daisy_bed.h   ****         cv_led1.Write(false);
 367              		.loc 11 70 9 is_stmt 1 view .LVU54
 368              		.loc 11 70 22 is_stmt 0 view .LVU55
 369 0012 0021     		movs	r1, #0
 370 0014 0648     		ldr	r0, .L13+8
 371 0016 FFF7FEFF 		bl	_ZN5daisy4GPIO5WriteEb
 372              	.LVL15:
  71:daisy_bed.h   ****         cv_led2.Write(false);
 373              		.loc 11 71 9 is_stmt 1 view .LVU56
 374              		.loc 11 71 22 is_stmt 0 view .LVU57
 375 001a 0021     		movs	r1, #0
 376 001c 0548     		ldr	r0, .L13+12
  72:daisy_bed.h   ****     }
 377              		.loc 11 72 5 view .LVU58
 378 001e BDE80840 		pop	{r3, lr}
 379              		.cfi_restore 14
 380              		.cfi_restore 3
 381              		.cfi_def_cfa_offset 0
  71:daisy_bed.h   ****         cv_led2.Write(false);
 382              		.loc 11 71 22 view .LVU59
 383 0022 FFF7FEBF 		b	_ZN5daisy4GPIO5WriteEb
 384              	.LVL16:
 385              	.L14:
 386 0026 00BF     		.align	2
 387              	.L13:
 388 0028 00000000 		.word	.LANCHOR1
 389 002c 00000000 		.word	.LANCHOR3
 390 0030 00000000 		.word	.LANCHOR5
 391 0034 00000000 		.word	.LANCHOR7
 392              		.cfi_endproc
 393              	.LFE4794:
 395              		.section	.text._ZN5daisy8patch_sm13StartupCheeseEv,"ax",%progbits
 396              		.align	1
 397              		.p2align 2,,3
 398              		.global	_ZN5daisy8patch_sm13StartupCheeseEv
 399              		.syntax unified
 400              		.thumb
 401              		.thumb_func
 402              		.fpu fpv5-d16
 404              	_ZN5daisy8patch_sm13StartupCheeseEv:
 405              	.LFB4795:
  73:daisy_bed.h   **** 
  74:daisy_bed.h   ****     void StartupCheese(){
 406              		.loc 11 74 25 is_stmt 1 view -0
 407              		.cfi_startproc
 408              		@ args = 0, pretend = 0, frame = 0
 409              		@ frame_needed = 0, uses_anonymous_args = 0
  75:daisy_bed.h   **** 		gate_in_led1.Toggle();
ARM GAS  /var/folders/hl/qgbwny5j0fd895c2c41bk3tw0000gp/T//ccXwbuCm.s 			page 18


 410              		.loc 11 75 3 view .LVU61
  74:daisy_bed.h   **** 		gate_in_led1.Toggle();
 411              		.loc 11 74 25 is_stmt 0 view .LVU62
 412 0000 F8B5     		push	{r3, r4, r5, r6, r7, lr}
 413              		.cfi_def_cfa_offset 24
 414              		.cfi_offset 3, -24
 415              		.cfi_offset 4, -20
 416              		.cfi_offset 5, -16
 417              		.cfi_offset 6, -12
 418              		.cfi_offset 7, -8
 419              		.cfi_offset 14, -4
 420              		.loc 11 75 22 view .LVU63
 421 0002 2348     		ldr	r0, .L17
 422 0004 FFF7FEFF 		bl	_ZN5daisy4GPIO6ToggleEv
 423              	.LVL17:
  76:daisy_bed.h   **** 		System::Delay(100);
 424              		.loc 11 76 3 is_stmt 1 view .LVU64
 425              		.loc 11 76 16 is_stmt 0 view .LVU65
 426 0008 6420     		movs	r0, #100
 427 000a FFF7FEFF 		bl	_ZN5daisy6System5DelayEm
 428              	.LVL18:
  77:daisy_bed.h   **** 		gate_in_led2.Toggle();
 429              		.loc 11 77 3 is_stmt 1 view .LVU66
  78:daisy_bed.h   **** 		System::Delay(100);
  79:daisy_bed.h   **** 		gen_led1.Toggle();
 430              		.loc 11 79 18 is_stmt 0 view .LVU67
 431 000e 214F     		ldr	r7, .L17+4
  77:daisy_bed.h   **** 		gate_in_led2.Toggle();
 432              		.loc 11 77 22 view .LVU68
 433 0010 2148     		ldr	r0, .L17+8
 434 0012 FFF7FEFF 		bl	_ZN5daisy4GPIO6ToggleEv
 435              	.LVL19:
  78:daisy_bed.h   **** 		System::Delay(100);
 436              		.loc 11 78 3 is_stmt 1 view .LVU69
  78:daisy_bed.h   **** 		System::Delay(100);
 437              		.loc 11 78 16 is_stmt 0 view .LVU70
 438 0016 6420     		movs	r0, #100
 439 0018 FFF7FEFF 		bl	_ZN5daisy6System5DelayEm
 440              	.LVL20:
 441              		.loc 11 79 3 is_stmt 1 view .LVU71
  80:daisy_bed.h   **** 		System::Delay(100);
  81:daisy_bed.h   **** 		gen_led2.Toggle();
 442              		.loc 11 81 18 is_stmt 0 view .LVU72
 443 001c 1F4E     		ldr	r6, .L17+12
  79:daisy_bed.h   **** 		System::Delay(100);
 444              		.loc 11 79 18 view .LVU73
 445 001e 3846     		mov	r0, r7
  82:daisy_bed.h   **** 		System::Delay(100);
  83:daisy_bed.h   **** 		cv_led1.Toggle();
 446              		.loc 11 83 17 view .LVU74
 447 0020 1F4D     		ldr	r5, .L17+16
  79:daisy_bed.h   **** 		System::Delay(100);
 448              		.loc 11 79 18 view .LVU75
 449 0022 FFF7FEFF 		bl	_ZN5daisy4GPIO6ToggleEv
 450              	.LVL21:
  80:daisy_bed.h   **** 		gen_led2.Toggle();
 451              		.loc 11 80 3 is_stmt 1 view .LVU76
ARM GAS  /var/folders/hl/qgbwny5j0fd895c2c41bk3tw0000gp/T//ccXwbuCm.s 			page 19


  80:daisy_bed.h   **** 		gen_led2.Toggle();
 452              		.loc 11 80 16 is_stmt 0 view .LVU77
 453 0026 6420     		movs	r0, #100
 454 0028 FFF7FEFF 		bl	_ZN5daisy6System5DelayEm
 455              	.LVL22:
  81:daisy_bed.h   **** 		System::Delay(100);
 456              		.loc 11 81 3 is_stmt 1 view .LVU78
  81:daisy_bed.h   **** 		System::Delay(100);
 457              		.loc 11 81 18 is_stmt 0 view .LVU79
 458 002c 3046     		mov	r0, r6
 459 002e FFF7FEFF 		bl	_ZN5daisy4GPIO6ToggleEv
 460              	.LVL23:
  82:daisy_bed.h   **** 		System::Delay(100);
 461              		.loc 11 82 3 is_stmt 1 view .LVU80
  82:daisy_bed.h   **** 		System::Delay(100);
 462              		.loc 11 82 16 is_stmt 0 view .LVU81
 463 0032 6420     		movs	r0, #100
 464 0034 FFF7FEFF 		bl	_ZN5daisy6System5DelayEm
 465              	.LVL24:
 466              		.loc 11 83 3 is_stmt 1 view .LVU82
  84:daisy_bed.h   **** 		System::Delay(100);
  85:daisy_bed.h   **** 		cv_led2.Toggle();
 467              		.loc 11 85 17 is_stmt 0 view .LVU83
 468 0038 1A4C     		ldr	r4, .L17+20
  83:daisy_bed.h   **** 		System::Delay(100);
 469              		.loc 11 83 17 view .LVU84
 470 003a 2846     		mov	r0, r5
 471 003c FFF7FEFF 		bl	_ZN5daisy4GPIO6ToggleEv
 472              	.LVL25:
  84:daisy_bed.h   **** 		System::Delay(100);
 473              		.loc 11 84 3 is_stmt 1 view .LVU85
  84:daisy_bed.h   **** 		System::Delay(100);
 474              		.loc 11 84 16 is_stmt 0 view .LVU86
 475 0040 6420     		movs	r0, #100
 476 0042 FFF7FEFF 		bl	_ZN5daisy6System5DelayEm
 477              	.LVL26:
 478              		.loc 11 85 3 is_stmt 1 view .LVU87
 479              		.loc 11 85 17 is_stmt 0 view .LVU88
 480 0046 2046     		mov	r0, r4
 481 0048 FFF7FEFF 		bl	_ZN5daisy4GPIO6ToggleEv
 482              	.LVL27:
  86:daisy_bed.h   **** 		System::Delay(100);
 483              		.loc 11 86 3 is_stmt 1 view .LVU89
 484              		.loc 11 86 16 is_stmt 0 view .LVU90
 485 004c 6420     		movs	r0, #100
 486 004e FFF7FEFF 		bl	_ZN5daisy6System5DelayEm
 487              	.LVL28:
  87:daisy_bed.h   **** 		gate_out_led1.Toggle();
 488              		.loc 11 87 3 is_stmt 1 view .LVU91
 489              		.loc 11 87 23 is_stmt 0 view .LVU92
 490 0052 1548     		ldr	r0, .L17+24
 491 0054 FFF7FEFF 		bl	_ZN5daisy4GPIO6ToggleEv
 492              	.LVL29:
  88:daisy_bed.h   **** 		System::Delay(100);
 493              		.loc 11 88 3 is_stmt 1 view .LVU93
 494              		.loc 11 88 16 is_stmt 0 view .LVU94
 495 0058 6420     		movs	r0, #100
ARM GAS  /var/folders/hl/qgbwny5j0fd895c2c41bk3tw0000gp/T//ccXwbuCm.s 			page 20


 496 005a FFF7FEFF 		bl	_ZN5daisy6System5DelayEm
 497              	.LVL30:
  89:daisy_bed.h   **** 		gate_out_led2.Toggle();
 498              		.loc 11 89 3 is_stmt 1 view .LVU95
 499              		.loc 11 89 23 is_stmt 0 view .LVU96
 500 005e 1348     		ldr	r0, .L17+28
 501 0060 FFF7FEFF 		bl	_ZN5daisy4GPIO6ToggleEv
 502              	.LVL31:
  90:daisy_bed.h   **** 		System::Delay(100);
 503              		.loc 11 90 3 is_stmt 1 view .LVU97
 504              		.loc 11 90 16 is_stmt 0 view .LVU98
 505 0064 6420     		movs	r0, #100
 506 0066 FFF7FEFF 		bl	_ZN5daisy6System5DelayEm
 507              	.LVL32:
  91:daisy_bed.h   ****         ledOff();
 508              		.loc 11 91 9 is_stmt 1 view .LVU99
 509              	.LBB360:
 510              	.LBI360:
  67:daisy_bed.h   ****         gen_led1.Write(false);
 511              		.loc 11 67 10 view .LVU100
 512              	.LBB361:
  68:daisy_bed.h   ****         gen_led2.Write(false);
 513              		.loc 11 68 9 view .LVU101
  68:daisy_bed.h   ****         gen_led2.Write(false);
 514              		.loc 11 68 23 is_stmt 0 view .LVU102
 515 006a 3846     		mov	r0, r7
 516 006c 0021     		movs	r1, #0
 517 006e FFF7FEFF 		bl	_ZN5daisy4GPIO5WriteEb
 518              	.LVL33:
  69:daisy_bed.h   ****         cv_led1.Write(false);
 519              		.loc 11 69 9 is_stmt 1 view .LVU103
  69:daisy_bed.h   ****         cv_led1.Write(false);
 520              		.loc 11 69 23 is_stmt 0 view .LVU104
 521 0072 3046     		mov	r0, r6
 522 0074 0021     		movs	r1, #0
 523 0076 FFF7FEFF 		bl	_ZN5daisy4GPIO5WriteEb
 524              	.LVL34:
  70:daisy_bed.h   ****         cv_led2.Write(false);
 525              		.loc 11 70 9 is_stmt 1 view .LVU105
  70:daisy_bed.h   ****         cv_led2.Write(false);
 526              		.loc 11 70 22 is_stmt 0 view .LVU106
 527 007a 2846     		mov	r0, r5
 528 007c 0021     		movs	r1, #0
 529 007e FFF7FEFF 		bl	_ZN5daisy4GPIO5WriteEb
 530              	.LVL35:
  71:daisy_bed.h   ****     }
 531              		.loc 11 71 9 is_stmt 1 view .LVU107
  71:daisy_bed.h   ****     }
 532              		.loc 11 71 22 is_stmt 0 view .LVU108
 533 0082 2046     		mov	r0, r4
 534 0084 0021     		movs	r1, #0
 535              	.LBE361:
 536              	.LBE360:
  92:daisy_bed.h   ****     }
 537              		.loc 11 92 5 view .LVU109
 538 0086 BDE8F840 		pop	{r3, r4, r5, r6, r7, lr}
 539              		.cfi_restore 14
ARM GAS  /var/folders/hl/qgbwny5j0fd895c2c41bk3tw0000gp/T//ccXwbuCm.s 			page 21


 540              		.cfi_restore 7
 541              		.cfi_restore 6
 542              		.cfi_restore 5
 543              		.cfi_restore 4
 544              		.cfi_restore 3
 545              		.cfi_def_cfa_offset 0
 546              	.LBB363:
 547              	.LBB362:
  71:daisy_bed.h   ****     }
 548              		.loc 11 71 22 view .LVU110
 549 008a FFF7FEBF 		b	_ZN5daisy4GPIO5WriteEb
 550              	.LVL36:
 551              	.L18:
 552 008e 00BF     		.align	2
 553              	.L17:
 554 0090 00000000 		.word	.LANCHOR9
 555 0094 00000000 		.word	.LANCHOR1
 556 0098 00000000 		.word	.LANCHOR11
 557 009c 00000000 		.word	.LANCHOR3
 558 00a0 00000000 		.word	.LANCHOR5
 559 00a4 00000000 		.word	.LANCHOR7
 560 00a8 00000000 		.word	.LANCHOR13
 561 00ac 00000000 		.word	.LANCHOR15
 562              	.LBE362:
 563              	.LBE363:
 564              		.cfi_endproc
 565              	.LFE4795:
 567              		.section	.text._ZN5daisy8patch_sm8gateTestEv,"ax",%progbits
 568              		.align	1
 569              		.p2align 2,,3
 570              		.global	_ZN5daisy8patch_sm8gateTestEv
 571              		.syntax unified
 572              		.thumb
 573              		.thumb_func
 574              		.fpu fpv5-d16
 576              	_ZN5daisy8patch_sm8gateTestEv:
 577              	.LFB4796:
  93:daisy_bed.h   **** 
  94:daisy_bed.h   ****     void gateTest()
  95:daisy_bed.h   ****     {
 578              		.loc 11 95 5 is_stmt 1 view -0
 579              		.cfi_startproc
 580              		@ args = 0, pretend = 0, frame = 0
 581              		@ frame_needed = 0, uses_anonymous_args = 0
  96:daisy_bed.h   ****         gate_in_led1.Toggle();
 582              		.loc 11 96 9 view .LVU112
  95:daisy_bed.h   ****         gate_in_led1.Toggle();
 583              		.loc 11 95 5 is_stmt 0 view .LVU113
 584 0000 08B5     		push	{r3, lr}
 585              		.cfi_def_cfa_offset 8
 586              		.cfi_offset 3, -8
 587              		.cfi_offset 14, -4
 588              		.loc 11 96 28 view .LVU114
 589 0002 0F48     		ldr	r0, .L21
 590 0004 FFF7FEFF 		bl	_ZN5daisy4GPIO6ToggleEv
 591              	.LVL37:
  97:daisy_bed.h   ****         System::Delay(1000);
ARM GAS  /var/folders/hl/qgbwny5j0fd895c2c41bk3tw0000gp/T//ccXwbuCm.s 			page 22


 592              		.loc 11 97 9 is_stmt 1 view .LVU115
 593              		.loc 11 97 22 is_stmt 0 view .LVU116
 594 0008 4FF47A70 		mov	r0, #1000
 595 000c FFF7FEFF 		bl	_ZN5daisy6System5DelayEm
 596              	.LVL38:
  98:daisy_bed.h   ****         gate_in_led2.Toggle();
 597              		.loc 11 98 9 is_stmt 1 view .LVU117
 598              		.loc 11 98 28 is_stmt 0 view .LVU118
 599 0010 0C48     		ldr	r0, .L21+4
 600 0012 FFF7FEFF 		bl	_ZN5daisy4GPIO6ToggleEv
 601              	.LVL39:
  99:daisy_bed.h   ****         System::Delay(1000);
 602              		.loc 11 99 9 is_stmt 1 view .LVU119
 603              		.loc 11 99 22 is_stmt 0 view .LVU120
 604 0016 4FF47A70 		mov	r0, #1000
 605 001a FFF7FEFF 		bl	_ZN5daisy6System5DelayEm
 606              	.LVL40:
 100:daisy_bed.h   ****         gate_out_led1.Toggle();
 607              		.loc 11 100 9 is_stmt 1 view .LVU121
 608              		.loc 11 100 29 is_stmt 0 view .LVU122
 609 001e 0A48     		ldr	r0, .L21+8
 610 0020 FFF7FEFF 		bl	_ZN5daisy4GPIO6ToggleEv
 611              	.LVL41:
 101:daisy_bed.h   ****         System::Delay(1000);
 612              		.loc 11 101 9 is_stmt 1 view .LVU123
 613              		.loc 11 101 22 is_stmt 0 view .LVU124
 614 0024 4FF47A70 		mov	r0, #1000
 615 0028 FFF7FEFF 		bl	_ZN5daisy6System5DelayEm
 616              	.LVL42:
 102:daisy_bed.h   ****         gate_out_led2.Toggle();
 617              		.loc 11 102 9 is_stmt 1 view .LVU125
 618              		.loc 11 102 29 is_stmt 0 view .LVU126
 619 002c 0748     		ldr	r0, .L21+12
 620 002e FFF7FEFF 		bl	_ZN5daisy4GPIO6ToggleEv
 621              	.LVL43:
 103:daisy_bed.h   ****         System::Delay(1000);
 622              		.loc 11 103 9 is_stmt 1 view .LVU127
 623              		.loc 11 103 22 is_stmt 0 view .LVU128
 624 0032 4FF47A70 		mov	r0, #1000
 104:daisy_bed.h   ****     }
 625              		.loc 11 104 5 view .LVU129
 626 0036 BDE80840 		pop	{r3, lr}
 627              		.cfi_restore 14
 628              		.cfi_restore 3
 629              		.cfi_def_cfa_offset 0
 103:daisy_bed.h   ****         System::Delay(1000);
 630              		.loc 11 103 22 view .LVU130
 631 003a FFF7FEBF 		b	_ZN5daisy6System5DelayEm
 632              	.LVL44:
 633              	.L22:
 634 003e 00BF     		.align	2
 635              	.L21:
 636 0040 00000000 		.word	.LANCHOR9
 637 0044 00000000 		.word	.LANCHOR11
 638 0048 00000000 		.word	.LANCHOR13
 639 004c 00000000 		.word	.LANCHOR15
 640              		.cfi_endproc
ARM GAS  /var/folders/hl/qgbwny5j0fd895c2c41bk3tw0000gp/T//ccXwbuCm.s 			page 23


 641              	.LFE4796:
 643              		.section	.text.startup.main,"ax",%progbits
 644              		.align	1
 645              		.p2align 2,,3
 646              		.global	main
 647              		.syntax unified
 648              		.thumb
 649              		.thumb_func
 650              		.fpu fpv5-d16
 652              	main:
 653              	.LFB4798:
  12:DualSequencer.cpp **** AdEnv			env[4];
  13:DualSequencer.cpp **** int  stepNumber;
  14:DualSequencer.cpp **** 
  15:DualSequencer.cpp **** void ProcessKnobs();
  16:DualSequencer.cpp **** 
  17:DualSequencer.cpp **** void AudioCallback(AudioHandle::InputBuffer in, AudioHandle::OutputBuffer out, size_t size)
  18:DualSequencer.cpp **** {
  19:DualSequencer.cpp **** 	hw.ProcessAllControls();
  20:DualSequencer.cpp **** 	ProcessKnobs();
  21:DualSequencer.cpp **** 	for (size_t i = 0; i < size; i++)
  22:DualSequencer.cpp **** 	{
  23:DualSequencer.cpp **** 		float sig,env_out[4];
  24:DualSequencer.cpp **** 		if(clock.Process())
  25:DualSequencer.cpp **** 		{
  26:DualSequencer.cpp **** 			stepNumber++;
  27:DualSequencer.cpp **** 			stepNumber %= 4;
  28:DualSequencer.cpp **** 			env[stepNumber].Trigger();
  29:DualSequencer.cpp **** 		}
  30:DualSequencer.cpp **** 
  31:DualSequencer.cpp **** 		for (size_t i = 0; i < 4; i++)
  32:DualSequencer.cpp **** 		{
  33:DualSequencer.cpp **** 			env_out[i] = env[i].Process();
  34:DualSequencer.cpp **** 			osc[i].SetAmp(env_out[i]);
  35:DualSequencer.cpp **** 			sig =+ osc[i].Process();
  36:DualSequencer.cpp **** 		}
  37:DualSequencer.cpp **** 
  38:DualSequencer.cpp **** 		OUT_L[i] = sig;
  39:DualSequencer.cpp **** 		OUT_R[i] = sig;
  40:DualSequencer.cpp **** 	}
  41:DualSequencer.cpp **** }
  42:DualSequencer.cpp **** 
  43:DualSequencer.cpp **** int main(void)
  44:DualSequencer.cpp **** {
 654              		.loc 10 44 1 is_stmt 1 view -0
 655              		.cfi_startproc
 656              		@ args = 0, pretend = 0, frame = 0
 657              		@ frame_needed = 0, uses_anonymous_args = 0
  45:DualSequencer.cpp **** 	hw.Init();
 658              		.loc 10 45 2 view .LVU132
  44:DualSequencer.cpp **** 	hw.Init();
 659              		.loc 10 44 1 is_stmt 0 view .LVU133
 660 0000 F8B5     		push	{r3, r4, r5, r6, r7, lr}
 661              		.cfi_def_cfa_offset 24
 662              		.cfi_offset 3, -24
 663              		.cfi_offset 4, -20
 664              		.cfi_offset 5, -16
ARM GAS  /var/folders/hl/qgbwny5j0fd895c2c41bk3tw0000gp/T//ccXwbuCm.s 			page 24


 665              		.cfi_offset 6, -12
 666              		.cfi_offset 7, -8
 667              		.cfi_offset 14, -4
 668              		.loc 10 45 9 view .LVU134
 669 0002 3048     		ldr	r0, .L28
 670 0004 304C     		ldr	r4, .L28+4
 671 0006 314D     		ldr	r5, .L28+8
 672 0008 04F1C007 		add	r7, r4, #192
  44:DualSequencer.cpp **** 	hw.Init();
 673              		.loc 10 44 1 view .LVU135
 674 000c 2DED028B 		vpush.64	{d8}
 675              		.cfi_def_cfa_offset 32
 676              		.cfi_offset 80, -32
 677              		.cfi_offset 81, -28
 678              		.loc 10 45 9 view .LVU136
 679 0010 FFF7FEFF 		bl	_ZN5daisy8patch_sm12DaisyPatchSM4InitEv
 680              	.LVL45:
  46:DualSequencer.cpp **** 	hw.SetAudioBlockSize(4); // number of samples handled per callback
 681              		.loc 10 46 2 is_stmt 1 view .LVU137
 682              		.loc 10 46 22 is_stmt 0 view .LVU138
 683 0014 0421     		movs	r1, #4
 684 0016 2B48     		ldr	r0, .L28
 685 0018 FFF7FEFF 		bl	_ZN5daisy8patch_sm12DaisyPatchSM17SetAudioBlockSizeEj
 686              	.LVL46:
  47:DualSequencer.cpp **** 	hw.SetAudioSampleRate(SaiHandle::Config::SampleRate::SAI_48KHZ);
 687              		.loc 10 47 2 is_stmt 1 view .LVU139
 688              		.loc 10 47 23 is_stmt 0 view .LVU140
 689 001c 0321     		movs	r1, #3
 690 001e 2948     		ldr	r0, .L28
 691 0020 FFF7FEFF 		bl	_ZN5daisy8patch_sm12DaisyPatchSM18SetAudioSampleRateENS_9SaiHandle6Config10SampleRateE
 692              	.LVL47:
  48:DualSequencer.cpp **** 
  49:DualSequencer.cpp **** 	// init devices and audio
  50:DualSequencer.cpp **** 	float sample_rate = hw.AudioSampleRate();
 693              		.loc 10 50 2 is_stmt 1 view .LVU141
 694              		.loc 10 50 40 is_stmt 0 view .LVU142
 695 0024 2748     		ldr	r0, .L28
 696 0026 FFF7FEFF 		bl	_ZN5daisy8patch_sm12DaisyPatchSM15AudioSampleRateEv
 697              	.LVL48:
 698 002a B0EE408A 		vmov.f32	s16, s0
 699              	.LVL49:
  51:DualSequencer.cpp **** 	InitBed();
 700              		.loc 10 51 2 is_stmt 1 view .LVU143
 701              		.loc 10 51 9 is_stmt 0 view .LVU144
 702 002e FFF7FEFF 		bl	_ZN5daisy8patch_sm7InitBedEv
 703              	.LVL50:
  52:DualSequencer.cpp **** 	clock.Init(3, sample_rate);
 704              		.loc 10 52 2 is_stmt 1 view .LVU145
 705              		.loc 10 52 12 is_stmt 0 view .LVU146
 706 0032 B0EE080A 		vmov.f32	s0, #3.0e+0
 707 0036 2648     		ldr	r0, .L28+12
 708 0038 F0EE480A 		vmov.f32	s1, s16
 709 003c FFF7FEFF 		bl	_ZN7daisysp5Metro4InitEff
 710              	.LVL51:
  53:DualSequencer.cpp **** 	stepNumber = 0;
 711              		.loc 10 53 2 is_stmt 1 view .LVU147
 712              	.LBB379:
ARM GAS  /var/folders/hl/qgbwny5j0fd895c2c41bk3tw0000gp/T//ccXwbuCm.s 			page 25


 713              	.LBB380:
 714              	.LBB381:
 715              		.file 12 "../../DaisySP//Source/Synthesis/oscillator.h"
   1:../../DaisySP//Source/Synthesis/oscillator.h **** #pragma once
   2:../../DaisySP//Source/Synthesis/oscillator.h **** #ifndef DSY_OSCILLATOR_H
   3:../../DaisySP//Source/Synthesis/oscillator.h **** #define DSY_OSCILLATOR_H
   4:../../DaisySP//Source/Synthesis/oscillator.h **** #include <stdint.h>
   5:../../DaisySP//Source/Synthesis/oscillator.h **** #include "Utility/dsp.h"
   6:../../DaisySP//Source/Synthesis/oscillator.h **** #ifdef __cplusplus
   7:../../DaisySP//Source/Synthesis/oscillator.h **** 
   8:../../DaisySP//Source/Synthesis/oscillator.h **** namespace daisysp
   9:../../DaisySP//Source/Synthesis/oscillator.h **** {
  10:../../DaisySP//Source/Synthesis/oscillator.h **** /** Synthesis of several waveforms, including polyBLEP bandlimited waveforms.
  11:../../DaisySP//Source/Synthesis/oscillator.h **** */
  12:../../DaisySP//Source/Synthesis/oscillator.h **** class Oscillator
  13:../../DaisySP//Source/Synthesis/oscillator.h **** {
  14:../../DaisySP//Source/Synthesis/oscillator.h ****   public:
  15:../../DaisySP//Source/Synthesis/oscillator.h ****     Oscillator() {}
  16:../../DaisySP//Source/Synthesis/oscillator.h ****     ~Oscillator() {}
  17:../../DaisySP//Source/Synthesis/oscillator.h ****     /** Choices for output waveforms, POLYBLEP are appropriately labeled. Others are naive forms.
  18:../../DaisySP//Source/Synthesis/oscillator.h ****     */
  19:../../DaisySP//Source/Synthesis/oscillator.h ****     enum
  20:../../DaisySP//Source/Synthesis/oscillator.h ****     {
  21:../../DaisySP//Source/Synthesis/oscillator.h ****         WAVE_SIN,
  22:../../DaisySP//Source/Synthesis/oscillator.h ****         WAVE_TRI,
  23:../../DaisySP//Source/Synthesis/oscillator.h ****         WAVE_SAW,
  24:../../DaisySP//Source/Synthesis/oscillator.h ****         WAVE_RAMP,
  25:../../DaisySP//Source/Synthesis/oscillator.h ****         WAVE_SQUARE,
  26:../../DaisySP//Source/Synthesis/oscillator.h ****         WAVE_POLYBLEP_TRI,
  27:../../DaisySP//Source/Synthesis/oscillator.h ****         WAVE_POLYBLEP_SAW,
  28:../../DaisySP//Source/Synthesis/oscillator.h ****         WAVE_POLYBLEP_SQUARE,
  29:../../DaisySP//Source/Synthesis/oscillator.h ****         WAVE_LAST,
  30:../../DaisySP//Source/Synthesis/oscillator.h ****     };
  31:../../DaisySP//Source/Synthesis/oscillator.h **** 
  32:../../DaisySP//Source/Synthesis/oscillator.h **** 
  33:../../DaisySP//Source/Synthesis/oscillator.h ****     /** Initializes the Oscillator
  34:../../DaisySP//Source/Synthesis/oscillator.h **** 
  35:../../DaisySP//Source/Synthesis/oscillator.h ****         \param sample_rate - sample rate of the audio engine being run, and the frequency that the 
  36:../../DaisySP//Source/Synthesis/oscillator.h **** 
  37:../../DaisySP//Source/Synthesis/oscillator.h ****         Defaults:
  38:../../DaisySP//Source/Synthesis/oscillator.h ****         - freq_ = 100 Hz
  39:../../DaisySP//Source/Synthesis/oscillator.h ****         - amp_ = 0.5
  40:../../DaisySP//Source/Synthesis/oscillator.h ****         - waveform_ = sine wave.
  41:../../DaisySP//Source/Synthesis/oscillator.h ****     */
  42:../../DaisySP//Source/Synthesis/oscillator.h ****     void Init(float sample_rate)
  43:../../DaisySP//Source/Synthesis/oscillator.h ****     {
  44:../../DaisySP//Source/Synthesis/oscillator.h ****         sr_        = sample_rate;
  45:../../DaisySP//Source/Synthesis/oscillator.h ****         sr_recip_  = 1.0f / sample_rate;
 716              		.loc 12 45 27 is_stmt 0 view .LVU148
 717 0040 F7EE007A 		vmov.f32	s15, #1.0e+0
 718              	.LBE381:
 719              	.LBE380:
 720              	.LBE379:
 721              		.loc 10 53 13 view .LVU149
 722 0044 234B     		ldr	r3, .L28+16
 723 0046 0022     		movs	r2, #0
 724              	.LBB418:
ARM GAS  /var/folders/hl/qgbwny5j0fd895c2c41bk3tw0000gp/T//ccXwbuCm.s 			page 26


 725              	.LBB386:
 726              	.LBB382:
 727              		.loc 12 45 27 view .LVU150
 728 0048 C7EE888A 		vdiv.f32	s17, s15, s16
 729              	.LBE382:
 730              	.LBE386:
 731              	.LBE418:
 732              		.loc 10 53 13 view .LVU151
 733 004c 1A60     		str	r2, [r3]
  54:DualSequencer.cpp **** 
  55:DualSequencer.cpp **** 	for (size_t i = 0; i < 4; i++)
 734              		.loc 10 55 2 is_stmt 1 view .LVU152
 735              	.LVL52:
 736              	.LBB419:
 737              		.loc 10 55 23 view .LVU153
 738              	.L24:
  56:DualSequencer.cpp **** 	{
  57:DualSequencer.cpp **** 		//oscillators 
  58:DualSequencer.cpp **** 		osc[i].Init(sample_rate);
 739              		.loc 10 58 3 discriminator 2 view .LVU154
 740              	.LBB387:
 741              	.LBI380:
  42:../../DaisySP//Source/Synthesis/oscillator.h ****     {
 742              		.loc 12 42 10 discriminator 2 view .LVU155
 743              	.LBB383:
  44:../../DaisySP//Source/Synthesis/oscillator.h ****         sr_recip_  = 1.0f / sample_rate;
 744              		.loc 12 44 9 discriminator 2 view .LVU156
  46:../../DaisySP//Source/Synthesis/oscillator.h ****         freq_      = 100.0f;
  47:../../DaisySP//Source/Synthesis/oscillator.h ****         amp_       = 0.5f;
 745              		.loc 12 47 20 is_stmt 0 discriminator 2 view .LVU157
 746 004e 4FF07C53 		mov	r3, #1056964608
  48:../../DaisySP//Source/Synthesis/oscillator.h ****         pw_        = 0.5f;
  49:../../DaisySP//Source/Synthesis/oscillator.h ****         pw_rad_    = pw_ * TWOPI_F;
  50:../../DaisySP//Source/Synthesis/oscillator.h ****         phase_     = 0.0f;
 747              		.loc 12 50 20 discriminator 2 view .LVU158
 748 0052 0026     		movs	r6, #0
  49:../../DaisySP//Source/Synthesis/oscillator.h ****         phase_     = 0.0f;
 749              		.loc 12 49 20 discriminator 2 view .LVU159
 750 0054 204A     		ldr	r2, .L28+20
  51:../../DaisySP//Source/Synthesis/oscillator.h ****         phase_inc_ = CalcPhaseInc(freq_);
 751              		.loc 12 51 34 discriminator 2 view .LVU160
 752 0056 2046     		mov	r0, r4
  46:../../DaisySP//Source/Synthesis/oscillator.h ****         amp_       = 0.5f;
 753              		.loc 12 46 20 discriminator 2 view .LVU161
 754 0058 9FED200A 		vldr.32	s0, .L28+24
  47:../../DaisySP//Source/Synthesis/oscillator.h ****         pw_        = 0.5f;
 755              		.loc 12 47 20 discriminator 2 view .LVU162
 756 005c 6360     		str	r3, [r4, #4]	@ float
  48:../../DaisySP//Source/Synthesis/oscillator.h ****         pw_rad_    = pw_ * TWOPI_F;
 757              		.loc 12 48 20 discriminator 2 view .LVU163
 758 005e E360     		str	r3, [r4, #12]	@ float
  49:../../DaisySP//Source/Synthesis/oscillator.h ****         phase_     = 0.0f;
 759              		.loc 12 49 20 discriminator 2 view .LVU164
 760 0060 2261     		str	r2, [r4, #16]	@ float
  44:../../DaisySP//Source/Synthesis/oscillator.h ****         sr_recip_  = 1.0f / sample_rate;
 761              		.loc 12 44 20 discriminator 2 view .LVU165
 762 0062 84ED058A 		vstr.32	s16, [r4, #20]
ARM GAS  /var/folders/hl/qgbwny5j0fd895c2c41bk3tw0000gp/T//ccXwbuCm.s 			page 27


  45:../../DaisySP//Source/Synthesis/oscillator.h ****         freq_      = 100.0f;
 763              		.loc 12 45 9 is_stmt 1 discriminator 2 view .LVU166
  45:../../DaisySP//Source/Synthesis/oscillator.h ****         freq_      = 100.0f;
 764              		.loc 12 45 20 is_stmt 0 discriminator 2 view .LVU167
 765 0066 C4ED068A 		vstr.32	s17, [r4, #24]
  46:../../DaisySP//Source/Synthesis/oscillator.h ****         amp_       = 0.5f;
 766              		.loc 12 46 9 is_stmt 1 discriminator 2 view .LVU168
  46:../../DaisySP//Source/Synthesis/oscillator.h ****         amp_       = 0.5f;
 767              		.loc 12 46 20 is_stmt 0 discriminator 2 view .LVU169
 768 006a 84ED020A 		vstr.32	s0, [r4, #8]
  47:../../DaisySP//Source/Synthesis/oscillator.h ****         pw_        = 0.5f;
 769              		.loc 12 47 9 is_stmt 1 discriminator 2 view .LVU170
  48:../../DaisySP//Source/Synthesis/oscillator.h ****         pw_rad_    = pw_ * TWOPI_F;
 770              		.loc 12 48 9 discriminator 2 view .LVU171
  49:../../DaisySP//Source/Synthesis/oscillator.h ****         phase_     = 0.0f;
 771              		.loc 12 49 9 discriminator 2 view .LVU172
  50:../../DaisySP//Source/Synthesis/oscillator.h ****         phase_inc_ = CalcPhaseInc(freq_);
 772              		.loc 12 50 9 discriminator 2 view .LVU173
  50:../../DaisySP//Source/Synthesis/oscillator.h ****         phase_inc_ = CalcPhaseInc(freq_);
 773              		.loc 12 50 20 is_stmt 0 discriminator 2 view .LVU174
 774 006e E661     		str	r6, [r4, #28]	@ float
 775              		.loc 12 51 9 is_stmt 1 discriminator 2 view .LVU175
 776              		.loc 12 51 34 is_stmt 0 discriminator 2 view .LVU176
 777 0070 FFF7FEFF 		bl	_ZN7daisysp10Oscillator12CalcPhaseIncEf
 778              	.LVL53:
 779 0074 F0EE407A 		vmov.f32	s15, s0
  52:../../DaisySP//Source/Synthesis/oscillator.h ****         waveform_  = WAVE_SIN;
  53:../../DaisySP//Source/Synthesis/oscillator.h ****         eoc_       = true;
 780              		.loc 12 53 20 discriminator 2 view .LVU177
 781 0078 0123     		movs	r3, #1
 782              	.LBE383:
 783              	.LBE387:
 784              	.LBB388:
 785              	.LBB389:
  54:../../DaisySP//Source/Synthesis/oscillator.h ****         eor_       = true;
  55:../../DaisySP//Source/Synthesis/oscillator.h ****     }
  56:../../DaisySP//Source/Synthesis/oscillator.h **** 
  57:../../DaisySP//Source/Synthesis/oscillator.h **** 
  58:../../DaisySP//Source/Synthesis/oscillator.h ****     /** Changes the frequency of the Oscillator, and recalculates phase increment.
  59:../../DaisySP//Source/Synthesis/oscillator.h ****     */
  60:../../DaisySP//Source/Synthesis/oscillator.h ****     inline void SetFreq(const float f)
  61:../../DaisySP//Source/Synthesis/oscillator.h ****     {
  62:../../DaisySP//Source/Synthesis/oscillator.h ****         freq_      = f;
  63:../../DaisySP//Source/Synthesis/oscillator.h ****         phase_inc_ = CalcPhaseInc(f);
  64:../../DaisySP//Source/Synthesis/oscillator.h ****     }
  65:../../DaisySP//Source/Synthesis/oscillator.h **** 
  66:../../DaisySP//Source/Synthesis/oscillator.h **** 
  67:../../DaisySP//Source/Synthesis/oscillator.h ****     /** Sets the amplitude of the waveform.
  68:../../DaisySP//Source/Synthesis/oscillator.h ****     */
  69:../../DaisySP//Source/Synthesis/oscillator.h ****     inline void SetAmp(const float a) { amp_ = a; }
  70:../../DaisySP//Source/Synthesis/oscillator.h ****     /** Sets the waveform to be synthesized by the Process() function.
  71:../../DaisySP//Source/Synthesis/oscillator.h ****     */
  72:../../DaisySP//Source/Synthesis/oscillator.h ****     inline void SetWaveform(const uint8_t wf)
  73:../../DaisySP//Source/Synthesis/oscillator.h ****     {
  74:../../DaisySP//Source/Synthesis/oscillator.h ****         waveform_ = wf < WAVE_LAST ? wf : WAVE_SIN;
 786              		.loc 12 74 19 discriminator 2 view .LVU178
 787 007a 0622     		movs	r2, #6
ARM GAS  /var/folders/hl/qgbwny5j0fd895c2c41bk3tw0000gp/T//ccXwbuCm.s 			page 28


 788              	.LBE389:
 789              	.LBE388:
  59:DualSequencer.cpp **** 		osc[i].SetWaveform(Oscillator::WAVE_POLYBLEP_SAW);
  60:DualSequencer.cpp **** 
  61:DualSequencer.cpp **** 		// envelopes
  62:DualSequencer.cpp **** 		env[i].Init(sample_rate);
 790              		.loc 10 62 14 discriminator 2 view .LVU179
 791 007c 2846     		mov	r0, r5
 792 007e B0EE480A 		vmov.f32	s0, s16
 793              	.LBB391:
 794              	.LBB384:
  53:../../DaisySP//Source/Synthesis/oscillator.h ****         eor_       = true;
 795              		.loc 12 53 20 discriminator 2 view .LVU180
 796 0082 84F82D30 		strb	r3, [r4, #45]
  54:../../DaisySP//Source/Synthesis/oscillator.h ****         eor_       = true;
 797              		.loc 12 54 20 discriminator 2 view .LVU181
 798 0086 84F82C30 		strb	r3, [r4, #44]
 799              	.LBE384:
 800              	.LBE391:
  55:DualSequencer.cpp **** 	{
 801              		.loc 10 55 23 discriminator 2 view .LVU182
 802 008a 3835     		adds	r5, r5, #56
 803              	.LBB392:
 804              	.LBB385:
  51:../../DaisySP//Source/Synthesis/oscillator.h ****         waveform_  = WAVE_SIN;
 805              		.loc 12 51 20 discriminator 2 view .LVU183
 806 008c C4ED087A 		vstr.32	s15, [r4, #32]
  52:../../DaisySP//Source/Synthesis/oscillator.h ****         eoc_       = true;
 807              		.loc 12 52 9 is_stmt 1 discriminator 2 view .LVU184
  53:../../DaisySP//Source/Synthesis/oscillator.h ****         eor_       = true;
 808              		.loc 12 53 9 discriminator 2 view .LVU185
  54:../../DaisySP//Source/Synthesis/oscillator.h ****     }
 809              		.loc 12 54 9 discriminator 2 view .LVU186
 810              	.LVL54:
  54:../../DaisySP//Source/Synthesis/oscillator.h ****     }
 811              		.loc 12 54 9 is_stmt 0 discriminator 2 view .LVU187
 812              	.LBE385:
 813              	.LBE392:
  59:DualSequencer.cpp **** 
 814              		.loc 10 59 3 is_stmt 1 discriminator 2 view .LVU188
 815              	.LBB393:
 816              	.LBI388:
  72:../../DaisySP//Source/Synthesis/oscillator.h ****     {
 817              		.loc 12 72 17 discriminator 2 view .LVU189
 818              	.LBB390:
 819              		.loc 12 74 9 discriminator 2 view .LVU190
 820              		.loc 12 74 19 is_stmt 0 discriminator 2 view .LVU191
 821 0090 04F8302B 		strb	r2, [r4], #48
 822              	.LVL55:
 823              		.loc 12 74 19 discriminator 2 view .LVU192
 824              	.LBE390:
 825              	.LBE393:
 826              		.loc 10 62 3 is_stmt 1 discriminator 2 view .LVU193
 827              		.loc 10 62 14 is_stmt 0 discriminator 2 view .LVU194
 828 0094 FFF7FEFF 		bl	_ZN7daisysp5AdEnv4InitEf
 829              	.LVL56:
  63:DualSequencer.cpp **** 		env[i].SetTime(ADENV_SEG_ATTACK, 0.15);
ARM GAS  /var/folders/hl/qgbwny5j0fd895c2c41bk3tw0000gp/T//ccXwbuCm.s 			page 29


 830              		.loc 10 63 3 is_stmt 1 discriminator 2 view .LVU195
 831              	.LBB394:
 832              	.LBI394:
 833              		.file 13 "../../DaisySP//Source/Control/adenv.h"
   1:../../DaisySP//Source/Control/adenv.h **** #pragma once
   2:../../DaisySP//Source/Control/adenv.h **** #ifndef ADENV_H
   3:../../DaisySP//Source/Control/adenv.h **** #define ADENV_H
   4:../../DaisySP//Source/Control/adenv.h **** #include <stdint.h>
   5:../../DaisySP//Source/Control/adenv.h **** #ifdef __cplusplus
   6:../../DaisySP//Source/Control/adenv.h **** 
   7:../../DaisySP//Source/Control/adenv.h **** namespace daisysp
   8:../../DaisySP//Source/Control/adenv.h **** {
   9:../../DaisySP//Source/Control/adenv.h **** /** Distinct stages that the phase of the envelope can be located in.
  10:../../DaisySP//Source/Control/adenv.h ****     @see AdEnv
  11:../../DaisySP//Source/Control/adenv.h **** */
  12:../../DaisySP//Source/Control/adenv.h **** enum AdEnvSegment
  13:../../DaisySP//Source/Control/adenv.h **** {
  14:../../DaisySP//Source/Control/adenv.h ****     /** located at phase location 0, and not currently running */
  15:../../DaisySP//Source/Control/adenv.h ****     ADENV_SEG_IDLE,
  16:../../DaisySP//Source/Control/adenv.h ****     /** First segment of envelope where phase moves from MIN value to MAX value */
  17:../../DaisySP//Source/Control/adenv.h ****     ADENV_SEG_ATTACK,
  18:../../DaisySP//Source/Control/adenv.h ****     /** Second segment of envelope where phase moves from MAX to MIN value */
  19:../../DaisySP//Source/Control/adenv.h ****     ADENV_SEG_DECAY,
  20:../../DaisySP//Source/Control/adenv.h ****     /** The final segment of the envelope (currently decay) */
  21:../../DaisySP//Source/Control/adenv.h ****     ADENV_SEG_LAST,
  22:../../DaisySP//Source/Control/adenv.h **** };
  23:../../DaisySP//Source/Control/adenv.h **** 
  24:../../DaisySP//Source/Control/adenv.h **** /** Trigger-able envelope with adjustable min/max, and independent per-segment time control.
  25:../../DaisySP//Source/Control/adenv.h **** 
  26:../../DaisySP//Source/Control/adenv.h ****     \author shensley
  27:../../DaisySP//Source/Control/adenv.h ****     \todo - Add Cycling
  28:../../DaisySP//Source/Control/adenv.h ****     \todo - Implement Curve (its only linear for now).
  29:../../DaisySP//Source/Control/adenv.h ****     \todo - Maybe make this an ADsr_ that has AD/AR/Asr_ modes.
  30:../../DaisySP//Source/Control/adenv.h ****  */
  31:../../DaisySP//Source/Control/adenv.h **** class AdEnv
  32:../../DaisySP//Source/Control/adenv.h **** {
  33:../../DaisySP//Source/Control/adenv.h ****   public:
  34:../../DaisySP//Source/Control/adenv.h ****     AdEnv() {}
  35:../../DaisySP//Source/Control/adenv.h ****     ~AdEnv() {}
  36:../../DaisySP//Source/Control/adenv.h ****     /** Initializes the ad envelope.
  37:../../DaisySP//Source/Control/adenv.h **** 
  38:../../DaisySP//Source/Control/adenv.h ****         Defaults:
  39:../../DaisySP//Source/Control/adenv.h ****             - current segment = idle
  40:../../DaisySP//Source/Control/adenv.h ****             - curve = linear
  41:../../DaisySP//Source/Control/adenv.h ****             - phase = 0
  42:../../DaisySP//Source/Control/adenv.h ****             - min = 0
  43:../../DaisySP//Source/Control/adenv.h ****             - max = 1
  44:../../DaisySP//Source/Control/adenv.h **** 
  45:../../DaisySP//Source/Control/adenv.h ****         \param sample_rate      sample rate of the audio engine being run
  46:../../DaisySP//Source/Control/adenv.h ****     */
  47:../../DaisySP//Source/Control/adenv.h ****     void Init(float sample_rate);
  48:../../DaisySP//Source/Control/adenv.h **** 
  49:../../DaisySP//Source/Control/adenv.h ****     /** Processes the current sample of the envelope. This should be called once
  50:../../DaisySP//Source/Control/adenv.h ****         per sample period.
  51:../../DaisySP//Source/Control/adenv.h ****         \return the current envelope value.
  52:../../DaisySP//Source/Control/adenv.h ****     */
  53:../../DaisySP//Source/Control/adenv.h ****     float Process();
ARM GAS  /var/folders/hl/qgbwny5j0fd895c2c41bk3tw0000gp/T//ccXwbuCm.s 			page 30


  54:../../DaisySP//Source/Control/adenv.h **** 
  55:../../DaisySP//Source/Control/adenv.h ****     /** Starts or retriggers the envelope.*/
  56:../../DaisySP//Source/Control/adenv.h ****     inline void Trigger() { trigger_ = 1; }
  57:../../DaisySP//Source/Control/adenv.h ****     /** Sets the length of time (in seconds) for a specific segment. */
  58:../../DaisySP//Source/Control/adenv.h ****     inline void SetTime(uint8_t seg, float time) { segment_time_[seg] = time; }
 834              		.loc 13 58 17 discriminator 2 view .LVU196
 835              	.LBB395:
 836              		.loc 13 58 52 discriminator 2 view .LVU197
 837              	.LBE395:
 838              	.LBE394:
 839              	.LBB398:
 840              	.LBB399:
  59:../../DaisySP//Source/Control/adenv.h ****     /** Sets the amount of curve applied. A positve value will create a log
  60:../../DaisySP//Source/Control/adenv.h ****         curve. Input range: -100 to 100.  (or more)
  61:../../DaisySP//Source/Control/adenv.h ****     */
  62:../../DaisySP//Source/Control/adenv.h ****     inline void SetCurve(float scalar) { curve_scalar_ = scalar; }
  63:../../DaisySP//Source/Control/adenv.h ****     /** Sets the minimum value of the envelope output.
  64:../../DaisySP//Source/Control/adenv.h ****         Input range: -FLTmax_, to FLTmax_
  65:../../DaisySP//Source/Control/adenv.h ****     */
  66:../../DaisySP//Source/Control/adenv.h ****     inline void SetMin(float min) { min_ = min; }
  67:../../DaisySP//Source/Control/adenv.h ****     /** Sets the maximum value of the envelope output.
  68:../../DaisySP//Source/Control/adenv.h ****         Input range: -FLTmax_, to FLTmax_
  69:../../DaisySP//Source/Control/adenv.h ****     */
  70:../../DaisySP//Source/Control/adenv.h ****     inline void SetMax(float max) { max_ = max; }
 841              		.loc 13 70 42 is_stmt 0 discriminator 2 view .LVU198
 842 0098 4FF07A53 		mov	r3, #1048576000
 843              	.LBE399:
 844              	.LBE398:
 845              	.LBB401:
 846              	.LBB396:
  58:../../DaisySP//Source/Control/adenv.h ****     /** Sets the amount of curve applied. A positve value will create a log
 847              		.loc 13 58 71 discriminator 2 view .LVU199
 848 009c 1049     		ldr	r1, .L28+28
 849              	.LBE396:
 850              	.LBE401:
 851              	.LBB402:
 852              	.LBB403:
 853 009e 114A     		ldr	r2, .L28+32
 854              	.LBE403:
 855              	.LBE402:
  55:DualSequencer.cpp **** 	{
 856              		.loc 10 55 23 discriminator 2 view .LVU200
 857 00a0 BC42     		cmp	r4, r7
 858              	.LBB406:
 859              	.LBB407:
  66:../../DaisySP//Source/Control/adenv.h ****     /** Sets the maximum value of the envelope output.
 860              		.loc 13 66 42 discriminator 2 view .LVU201
 861 00a2 45F8246C 		str	r6, [r5, #-36]	@ float
 862              	.LBE407:
 863              	.LBE406:
 864              	.LBB409:
 865              	.LBB397:
  58:../../DaisySP//Source/Control/adenv.h ****     /** Sets the amount of curve applied. A positve value will create a log
 866              		.loc 13 58 71 discriminator 2 view .LVU202
 867 00a6 45F8301C 		str	r1, [r5, #-48]	@ float
 868              	.LVL57:
  58:../../DaisySP//Source/Control/adenv.h ****     /** Sets the amount of curve applied. A positve value will create a log
ARM GAS  /var/folders/hl/qgbwny5j0fd895c2c41bk3tw0000gp/T//ccXwbuCm.s 			page 31


 869              		.loc 13 58 71 discriminator 2 view .LVU203
 870              	.LBE397:
 871              	.LBE409:
  64:DualSequencer.cpp **** 		env[i].SetTime(ADENV_SEG_DECAY, 0.35);
 872              		.loc 10 64 3 is_stmt 1 discriminator 2 view .LVU204
 873              	.LBB410:
 874              	.LBI402:
  58:../../DaisySP//Source/Control/adenv.h ****     /** Sets the amount of curve applied. A positve value will create a log
 875              		.loc 13 58 17 discriminator 2 view .LVU205
 876              	.LBB404:
  58:../../DaisySP//Source/Control/adenv.h ****     /** Sets the amount of curve applied. A positve value will create a log
 877              		.loc 13 58 52 discriminator 2 view .LVU206
 878              	.LBE404:
 879              	.LBE410:
 880              	.LBB411:
 881              	.LBB412:
  62:../../DaisySP//Source/Control/adenv.h ****     /** Sets the minimum value of the envelope output.
 882              		.loc 13 62 56 is_stmt 0 discriminator 2 view .LVU207
 883 00aa 45F8186C 		str	r6, [r5, #-24]	@ float
 884              	.LBE412:
 885              	.LBE411:
 886              	.LBB414:
 887              	.LBB405:
  58:../../DaisySP//Source/Control/adenv.h ****     /** Sets the amount of curve applied. A positve value will create a log
 888              		.loc 13 58 71 discriminator 2 view .LVU208
 889 00ae 45F82C2C 		str	r2, [r5, #-44]	@ float
 890              	.LVL58:
  58:../../DaisySP//Source/Control/adenv.h ****     /** Sets the amount of curve applied. A positve value will create a log
 891              		.loc 13 58 71 discriminator 2 view .LVU209
 892              	.LBE405:
 893              	.LBE414:
  65:DualSequencer.cpp **** 		env[i].SetMin(0.0);
 894              		.loc 10 65 3 is_stmt 1 discriminator 2 view .LVU210
 895              	.LBB415:
 896              	.LBI406:
  66:../../DaisySP//Source/Control/adenv.h ****     /** Sets the maximum value of the envelope output.
 897              		.loc 13 66 17 discriminator 2 view .LVU211
 898              	.LBB408:
  66:../../DaisySP//Source/Control/adenv.h ****     /** Sets the maximum value of the envelope output.
 899              		.loc 13 66 37 discriminator 2 view .LVU212
  66:../../DaisySP//Source/Control/adenv.h ****     /** Sets the maximum value of the envelope output.
 900              		.loc 13 66 37 is_stmt 0 discriminator 2 view .LVU213
 901              	.LBE408:
 902              	.LBE415:
  66:DualSequencer.cpp **** 		env[i].SetMax(0.25);
 903              		.loc 10 66 3 is_stmt 1 discriminator 2 view .LVU214
 904              	.LBB416:
 905              	.LBI398:
 906              		.loc 13 70 17 discriminator 2 view .LVU215
 907              	.LBB400:
 908              		.loc 13 70 37 discriminator 2 view .LVU216
 909              		.loc 13 70 42 is_stmt 0 discriminator 2 view .LVU217
 910 00b2 45F8203C 		str	r3, [r5, #-32]	@ float
 911              	.LVL59:
 912              		.loc 13 70 42 discriminator 2 view .LVU218
 913              	.LBE400:
 914              	.LBE416:
ARM GAS  /var/folders/hl/qgbwny5j0fd895c2c41bk3tw0000gp/T//ccXwbuCm.s 			page 32


  67:DualSequencer.cpp **** 		env[i].SetCurve(0); // linear
 915              		.loc 10 67 3 is_stmt 1 discriminator 2 view .LVU219
 916              	.LBB417:
 917              	.LBI411:
  62:../../DaisySP//Source/Control/adenv.h ****     /** Sets the minimum value of the envelope output.
 918              		.loc 13 62 17 discriminator 2 view .LVU220
 919              	.LBB413:
  62:../../DaisySP//Source/Control/adenv.h ****     /** Sets the minimum value of the envelope output.
 920              		.loc 13 62 42 discriminator 2 view .LVU221
  62:../../DaisySP//Source/Control/adenv.h ****     /** Sets the minimum value of the envelope output.
 921              		.loc 13 62 42 is_stmt 0 discriminator 2 view .LVU222
 922              	.LBE413:
 923              	.LBE417:
  55:DualSequencer.cpp **** 	{
 924              		.loc 10 55 2 is_stmt 1 discriminator 2 view .LVU223
  55:DualSequencer.cpp **** 	{
 925              		.loc 10 55 23 discriminator 2 view .LVU224
 926 00b6 CAD1     		bne	.L24
 927              	.LBE419:
  68:DualSequencer.cpp **** 	}
  69:DualSequencer.cpp **** 	
  70:DualSequencer.cpp **** 
  71:DualSequencer.cpp **** 	hw.StartAudio(AudioCallback);
 928              		.loc 10 71 2 view .LVU225
 929              		.loc 10 71 15 is_stmt 0 view .LVU226
 930 00b8 0B49     		ldr	r1, .L28+36
 931 00ba 0248     		ldr	r0, .L28
 932 00bc FFF7FEFF 		bl	_ZN5daisy8patch_sm12DaisyPatchSM10StartAudioEPFvPKPKfPPfjE
 933              	.LVL60:
 934              	.L25:
  72:DualSequencer.cpp **** 	while(1) {}
 935              		.loc 10 72 2 is_stmt 1 discriminator 1 view .LVU227
 936              		.loc 10 72 2 discriminator 1 view .LVU228
 937              		.loc 10 72 2 discriminator 1 view .LVU229
 938              		.loc 10 72 2 discriminator 1 view .LVU230
 939 00c0 FEE7     		b	.L25
 940              	.L29:
 941 00c2 00BF     		.align	2
 942              	.L28:
 943 00c4 00000000 		.word	.LANCHOR18
 944 00c8 00000000 		.word	.LANCHOR21
 945 00cc 00000000 		.word	.LANCHOR22
 946 00d0 00000000 		.word	.LANCHOR19
 947 00d4 00000000 		.word	.LANCHOR20
 948 00d8 DB0F4940 		.word	1078530011
 949 00dc 0000C842 		.word	1120403456
 950 00e0 9A99193E 		.word	1041865114
 951 00e4 3333B33E 		.word	1051931443
 952 00e8 00000000 		.word	_Z13AudioCallbackPKPKfPPfj
 953              		.cfi_endproc
 954              	.LFE4798:
 956              		.section	.text._Z12ProcessKnobsv,"ax",%progbits
 957              		.align	1
 958              		.p2align 2,,3
 959              		.global	_Z12ProcessKnobsv
 960              		.syntax unified
 961              		.thumb
ARM GAS  /var/folders/hl/qgbwny5j0fd895c2c41bk3tw0000gp/T//ccXwbuCm.s 			page 33


 962              		.thumb_func
 963              		.fpu fpv5-d16
 965              	_Z12ProcessKnobsv:
 966              	.LFB4799:
  73:DualSequencer.cpp **** }
  74:DualSequencer.cpp **** 
  75:DualSequencer.cpp **** void ProcessKnobs()
  76:DualSequencer.cpp **** {
 967              		.loc 10 76 1 view -0
 968              		.cfi_startproc
 969              		@ args = 0, pretend = 0, frame = 0
 970              		@ frame_needed = 0, uses_anonymous_args = 0
  77:DualSequencer.cpp **** 	float f1 = hw.GetAdcValue(CV_1);
 971              		.loc 10 77 2 view .LVU232
  76:DualSequencer.cpp **** 	float f1 = hw.GetAdcValue(CV_1);
 972              		.loc 10 76 1 is_stmt 0 view .LVU233
 973 0000 10B5     		push	{r4, lr}
 974              		.cfi_def_cfa_offset 8
 975              		.cfi_offset 4, -8
 976              		.cfi_offset 14, -4
 977              		.loc 10 77 27 view .LVU234
 978 0002 2548     		ldr	r0, .L32
 979 0004 0021     		movs	r1, #0
 980              	.LBB420:
 981              	.LBB421:
  62:../../DaisySP//Source/Synthesis/oscillator.h ****         phase_inc_ = CalcPhaseInc(f);
 982              		.loc 12 62 20 view .LVU235
 983 0006 254C     		ldr	r4, .L32+4
 984              	.LBE421:
 985              	.LBE420:
  76:DualSequencer.cpp **** 	float f1 = hw.GetAdcValue(CV_1);
 986              		.loc 10 76 1 view .LVU236
 987 0008 2DED048B 		vpush.64	{d8, d9}
 988              		.cfi_def_cfa_offset 24
 989              		.cfi_offset 80, -24
 990              		.cfi_offset 81, -20
 991              		.cfi_offset 82, -16
 992              		.cfi_offset 83, -12
 993              		.loc 10 77 27 view .LVU237
 994 000c FFF7FEFF 		bl	_ZN5daisy8patch_sm12DaisyPatchSM11GetAdcValueEi
 995              	.LVL61:
  78:DualSequencer.cpp **** 	float f2 = hw.GetAdcValue(CV_2);
 996              		.loc 10 78 27 view .LVU238
 997 0010 0121     		movs	r1, #1
  77:DualSequencer.cpp **** 	float f2 = hw.GetAdcValue(CV_2);
 998              		.loc 10 77 27 view .LVU239
 999 0012 F0EE409A 		vmov.f32	s19, s0
 1000              	.LVL62:
 1001              		.loc 10 78 2 is_stmt 1 view .LVU240
 1002              		.loc 10 78 27 is_stmt 0 view .LVU241
 1003 0016 2048     		ldr	r0, .L32
 1004 0018 FFF7FEFF 		bl	_ZN5daisy8patch_sm12DaisyPatchSM11GetAdcValueEi
 1005              	.LVL63:
  79:DualSequencer.cpp **** 	float f3 = hw.GetAdcValue(CV_3);
 1006              		.loc 10 79 27 view .LVU242
 1007 001c 0221     		movs	r1, #2
 1008 001e 1E48     		ldr	r0, .L32
ARM GAS  /var/folders/hl/qgbwny5j0fd895c2c41bk3tw0000gp/T//ccXwbuCm.s 			page 34


  78:DualSequencer.cpp **** 	float f2 = hw.GetAdcValue(CV_2);
 1009              		.loc 10 78 27 view .LVU243
 1010 0020 B0EE409A 		vmov.f32	s18, s0
 1011              	.LVL64:
 1012              		.loc 10 79 2 is_stmt 1 view .LVU244
 1013              		.loc 10 79 27 is_stmt 0 view .LVU245
 1014 0024 FFF7FEFF 		bl	_ZN5daisy8patch_sm12DaisyPatchSM11GetAdcValueEi
 1015              	.LVL65:
  80:DualSequencer.cpp **** 	float f4 = hw.GetAdcValue(CV_4);
 1016              		.loc 10 80 27 view .LVU246
 1017 0028 0321     		movs	r1, #3
 1018 002a 1B48     		ldr	r0, .L32
  79:DualSequencer.cpp **** 	float f3 = hw.GetAdcValue(CV_3);
 1019              		.loc 10 79 27 view .LVU247
 1020 002c F0EE408A 		vmov.f32	s17, s0
 1021              	.LVL66:
 1022              		.loc 10 80 2 is_stmt 1 view .LVU248
 1023              		.loc 10 80 27 is_stmt 0 view .LVU249
 1024 0030 FFF7FEFF 		bl	_ZN5daisy8patch_sm12DaisyPatchSM11GetAdcValueEi
 1025              	.LVL67:
 1026              	.LBB426:
 1027              	.LBB422:
  63:../../DaisySP//Source/Synthesis/oscillator.h ****     }
 1028              		.loc 12 63 34 view .LVU250
 1029 0034 2046     		mov	r0, r4
 1030              	.LBE422:
 1031              	.LBE426:
 1032              		.loc 10 80 27 view .LVU251
 1033 0036 B0EE408A 		vmov.f32	s16, s0
 1034              	.LBB427:
 1035              	.LBB423:
  62:../../DaisySP//Source/Synthesis/oscillator.h ****         phase_inc_ = CalcPhaseInc(f);
 1036              		.loc 12 62 20 view .LVU252
 1037 003a C4ED029A 		vstr.32	s19, [r4, #8]
  63:../../DaisySP//Source/Synthesis/oscillator.h ****     }
 1038              		.loc 12 63 34 view .LVU253
 1039 003e B0EE690A 		vmov.f32	s0, s19
 1040              	.LVL68:
  63:../../DaisySP//Source/Synthesis/oscillator.h ****     }
 1041              		.loc 12 63 34 view .LVU254
 1042              	.LBE423:
 1043              	.LBE427:
  81:DualSequencer.cpp **** 
  82:DualSequencer.cpp **** 	osc[0].SetFreq(f1);
 1044              		.loc 10 82 2 is_stmt 1 view .LVU255
 1045              	.LBB428:
 1046              	.LBI420:
  60:../../DaisySP//Source/Synthesis/oscillator.h ****     {
 1047              		.loc 12 60 17 view .LVU256
 1048              	.LBB424:
  62:../../DaisySP//Source/Synthesis/oscillator.h ****         phase_inc_ = CalcPhaseInc(f);
 1049              		.loc 12 62 9 view .LVU257
  63:../../DaisySP//Source/Synthesis/oscillator.h ****     }
 1050              		.loc 12 63 9 view .LVU258
  63:../../DaisySP//Source/Synthesis/oscillator.h ****     }
 1051              		.loc 12 63 34 is_stmt 0 view .LVU259
 1052 0042 FFF7FEFF 		bl	_ZN7daisysp10Oscillator12CalcPhaseIncEf
ARM GAS  /var/folders/hl/qgbwny5j0fd895c2c41bk3tw0000gp/T//ccXwbuCm.s 			page 35


 1053              	.LVL69:
 1054 0046 F0EE407A 		vmov.f32	s15, s0
 1055              	.LBE424:
 1056              	.LBE428:
 1057              	.LBB429:
 1058              	.LBB430:
 1059 004a 04F13000 		add	r0, r4, #48
 1060 004e B0EE490A 		vmov.f32	s0, s18
  62:../../DaisySP//Source/Synthesis/oscillator.h ****         phase_inc_ = CalcPhaseInc(f);
 1061              		.loc 12 62 20 view .LVU260
 1062 0052 84ED0E9A 		vstr.32	s18, [r4, #56]
 1063              	.LBE430:
 1064              	.LBE429:
 1065              	.LBB433:
 1066              	.LBB425:
  63:../../DaisySP//Source/Synthesis/oscillator.h ****     }
 1067              		.loc 12 63 20 view .LVU261
 1068 0056 C4ED087A 		vstr.32	s15, [r4, #32]
 1069              	.LVL70:
  63:../../DaisySP//Source/Synthesis/oscillator.h ****     }
 1070              		.loc 12 63 20 view .LVU262
 1071              	.LBE425:
 1072              	.LBE433:
  83:DualSequencer.cpp **** 	osc[1].SetFreq(f2);
 1073              		.loc 10 83 2 is_stmt 1 view .LVU263
 1074              	.LBB434:
 1075              	.LBI429:
  60:../../DaisySP//Source/Synthesis/oscillator.h ****     {
 1076              		.loc 12 60 17 view .LVU264
 1077              	.LBB431:
  62:../../DaisySP//Source/Synthesis/oscillator.h ****         phase_inc_ = CalcPhaseInc(f);
 1078              		.loc 12 62 9 view .LVU265
  63:../../DaisySP//Source/Synthesis/oscillator.h ****     }
 1079              		.loc 12 63 9 view .LVU266
  63:../../DaisySP//Source/Synthesis/oscillator.h ****     }
 1080              		.loc 12 63 34 is_stmt 0 view .LVU267
 1081 005a FFF7FEFF 		bl	_ZN7daisysp10Oscillator12CalcPhaseIncEf
 1082              	.LVL71:
 1083 005e F0EE407A 		vmov.f32	s15, s0
 1084              	.LBE431:
 1085              	.LBE434:
 1086              	.LBB435:
 1087              	.LBB436:
 1088 0062 04F16000 		add	r0, r4, #96
 1089 0066 B0EE680A 		vmov.f32	s0, s17
  62:../../DaisySP//Source/Synthesis/oscillator.h ****         phase_inc_ = CalcPhaseInc(f);
 1090              		.loc 12 62 20 view .LVU268
 1091 006a C4ED1A8A 		vstr.32	s17, [r4, #104]
 1092              	.LBE436:
 1093              	.LBE435:
 1094              	.LBB439:
 1095              	.LBB432:
  63:../../DaisySP//Source/Synthesis/oscillator.h ****     }
 1096              		.loc 12 63 20 view .LVU269
 1097 006e C4ED147A 		vstr.32	s15, [r4, #80]
 1098              	.LVL72:
  63:../../DaisySP//Source/Synthesis/oscillator.h ****     }
ARM GAS  /var/folders/hl/qgbwny5j0fd895c2c41bk3tw0000gp/T//ccXwbuCm.s 			page 36


 1099              		.loc 12 63 20 view .LVU270
 1100              	.LBE432:
 1101              	.LBE439:
  84:DualSequencer.cpp **** 	osc[2].SetFreq(f3);
 1102              		.loc 10 84 2 is_stmt 1 view .LVU271
 1103              	.LBB440:
 1104              	.LBI435:
  60:../../DaisySP//Source/Synthesis/oscillator.h ****     {
 1105              		.loc 12 60 17 view .LVU272
 1106              	.LBB437:
  62:../../DaisySP//Source/Synthesis/oscillator.h ****         phase_inc_ = CalcPhaseInc(f);
 1107              		.loc 12 62 9 view .LVU273
  63:../../DaisySP//Source/Synthesis/oscillator.h ****     }
 1108              		.loc 12 63 9 view .LVU274
  63:../../DaisySP//Source/Synthesis/oscillator.h ****     }
 1109              		.loc 12 63 34 is_stmt 0 view .LVU275
 1110 0072 FFF7FEFF 		bl	_ZN7daisysp10Oscillator12CalcPhaseIncEf
 1111              	.LVL73:
 1112 0076 F0EE407A 		vmov.f32	s15, s0
 1113              	.LBE437:
 1114              	.LBE440:
 1115              	.LBB441:
 1116              	.LBB442:
 1117 007a 04F19000 		add	r0, r4, #144
 1118 007e B0EE480A 		vmov.f32	s0, s16
  62:../../DaisySP//Source/Synthesis/oscillator.h ****         phase_inc_ = CalcPhaseInc(f);
 1119              		.loc 12 62 20 view .LVU276
 1120 0082 84ED268A 		vstr.32	s16, [r4, #152]
 1121              	.LBE442:
 1122              	.LBE441:
 1123              	.LBB444:
 1124              	.LBB438:
  63:../../DaisySP//Source/Synthesis/oscillator.h ****     }
 1125              		.loc 12 63 20 view .LVU277
 1126 0086 C4ED207A 		vstr.32	s15, [r4, #128]
 1127              	.LVL74:
  63:../../DaisySP//Source/Synthesis/oscillator.h ****     }
 1128              		.loc 12 63 20 view .LVU278
 1129              	.LBE438:
 1130              	.LBE444:
  85:DualSequencer.cpp **** 	osc[3].SetFreq(f4);
 1131              		.loc 10 85 2 is_stmt 1 view .LVU279
 1132              	.LBB445:
 1133              	.LBI441:
  60:../../DaisySP//Source/Synthesis/oscillator.h ****     {
 1134              		.loc 12 60 17 view .LVU280
 1135              	.LBB443:
  62:../../DaisySP//Source/Synthesis/oscillator.h ****         phase_inc_ = CalcPhaseInc(f);
 1136              		.loc 12 62 9 view .LVU281
  63:../../DaisySP//Source/Synthesis/oscillator.h ****     }
 1137              		.loc 12 63 9 view .LVU282
  63:../../DaisySP//Source/Synthesis/oscillator.h ****     }
 1138              		.loc 12 63 34 is_stmt 0 view .LVU283
 1139 008a FFF7FEFF 		bl	_ZN7daisysp10Oscillator12CalcPhaseIncEf
 1140              	.LVL75:
  63:../../DaisySP//Source/Synthesis/oscillator.h ****     }
 1141              		.loc 12 63 20 view .LVU284
ARM GAS  /var/folders/hl/qgbwny5j0fd895c2c41bk3tw0000gp/T//ccXwbuCm.s 			page 37


 1142 008e 84ED2C0A 		vstr.32	s0, [r4, #176]
 1143              	.LVL76:
  63:../../DaisySP//Source/Synthesis/oscillator.h ****     }
 1144              		.loc 12 63 20 view .LVU285
 1145              	.LBE443:
 1146              	.LBE445:
  86:DualSequencer.cpp **** 
  87:DualSequencer.cpp **** }...
 1147              		.loc 10 87 1 view .LVU286
 1148 0092 BDEC048B 		vldm	sp!, {d8-d9}
 1149              		.cfi_restore 82
 1150              		.cfi_restore 83
 1151              		.cfi_restore 80
 1152              		.cfi_restore 81
 1153              		.cfi_def_cfa_offset 8
 1154              	.LVL77:
 1155              		.loc 10 87 1 view .LVU287
 1156 0096 10BD     		pop	{r4, pc}
 1157              	.L33:
 1158              		.align	2
 1159              	.L32:
 1160 0098 00000000 		.word	.LANCHOR18
 1161 009c 00000000 		.word	.LANCHOR21
 1162              		.cfi_endproc
 1163              	.LFE4799:
 1165              		.section	.text._Z13AudioCallbackPKPKfPPfj,"ax",%progbits
 1166              		.align	1
 1167              		.p2align 2,,3
 1168              		.global	_Z13AudioCallbackPKPKfPPfj
 1169              		.syntax unified
 1170              		.thumb
 1171              		.thumb_func
 1172              		.fpu fpv5-d16
 1174              	_Z13AudioCallbackPKPKfPPfj:
 1175              	.LVL78:
 1176              	.LFB4797:
  18:DualSequencer.cpp **** {
 1177              		.loc 10 18 1 is_stmt 1 view -0
 1178              		.cfi_startproc
 1179              		@ args = 0, pretend = 0, frame = 0
 1180              		@ frame_needed = 0, uses_anonymous_args = 0
  19:DualSequencer.cpp **** 	hw.ProcessAllControls();
 1181              		.loc 10 19 2 view .LVU289
 1182              	.LBB446:
 1183              	.LBI446:
  66:../../libDaisy//src/daisy_patch_sm.h **** 
  67:../../libDaisy//src/daisy_patch_sm.h ****         /** Initializes the memories, and core peripherals for the Daisy Patch SM */
  68:../../libDaisy//src/daisy_patch_sm.h ****         void Init();
  69:../../libDaisy//src/daisy_patch_sm.h **** 
  70:../../libDaisy//src/daisy_patch_sm.h ****         /** Starts a non-interleaving audio callback */
  71:../../libDaisy//src/daisy_patch_sm.h ****         void StartAudio(AudioHandle::AudioCallback cb);
  72:../../libDaisy//src/daisy_patch_sm.h **** 
  73:../../libDaisy//src/daisy_patch_sm.h ****         /** Starts an interleaving audio callback */
  74:../../libDaisy//src/daisy_patch_sm.h ****         void StartAudio(AudioHandle::InterleavingAudioCallback cb);
  75:../../libDaisy//src/daisy_patch_sm.h **** 
  76:../../libDaisy//src/daisy_patch_sm.h ****         /** Changes the callback that is executing.
  77:../../libDaisy//src/daisy_patch_sm.h ****          *  This may cause clicks if done while audio is processing.
ARM GAS  /var/folders/hl/qgbwny5j0fd895c2c41bk3tw0000gp/T//ccXwbuCm.s 			page 38


  78:../../libDaisy//src/daisy_patch_sm.h ****          */
  79:../../libDaisy//src/daisy_patch_sm.h ****         void ChangeAudioCallback(AudioHandle::AudioCallback cb);
  80:../../libDaisy//src/daisy_patch_sm.h **** 
  81:../../libDaisy//src/daisy_patch_sm.h ****         /** Changes the callback that is executing.
  82:../../libDaisy//src/daisy_patch_sm.h ****          *  This may cause clicks if done while audio is processing.
  83:../../libDaisy//src/daisy_patch_sm.h ****          */
  84:../../libDaisy//src/daisy_patch_sm.h ****         void ChangeAudioCallback(AudioHandle::InterleavingAudioCallback cb);
  85:../../libDaisy//src/daisy_patch_sm.h **** 
  86:../../libDaisy//src/daisy_patch_sm.h ****         /** Stops the transmission of audio. */
  87:../../libDaisy//src/daisy_patch_sm.h ****         void StopAudio();
  88:../../libDaisy//src/daisy_patch_sm.h **** 
  89:../../libDaisy//src/daisy_patch_sm.h ****         /** Sets the number of samples processed in an audio callback. 
  90:../../libDaisy//src/daisy_patch_sm.h ****          *  This will only take effect on the next invocation of `StartAudio`
  91:../../libDaisy//src/daisy_patch_sm.h ****          */
  92:../../libDaisy//src/daisy_patch_sm.h ****         void SetAudioBlockSize(size_t size);
  93:../../libDaisy//src/daisy_patch_sm.h **** 
  94:../../libDaisy//src/daisy_patch_sm.h ****         /** Sets the samplerate for the audio engine 
  95:../../libDaisy//src/daisy_patch_sm.h ****          *  This will set it to the closest valid samplerate. Options being:
  96:../../libDaisy//src/daisy_patch_sm.h ****          *  8kHz, 16kHz, 32kHz, 48kHz, and 96kHz
  97:../../libDaisy//src/daisy_patch_sm.h ****          */
  98:../../libDaisy//src/daisy_patch_sm.h ****         void SetAudioSampleRate(float sr);
  99:../../libDaisy//src/daisy_patch_sm.h **** 
 100:../../libDaisy//src/daisy_patch_sm.h ****         void SetAudioSampleRate(SaiHandle::Config::SampleRate sample_rate);
 101:../../libDaisy//src/daisy_patch_sm.h **** 
 102:../../libDaisy//src/daisy_patch_sm.h ****         /** Returns the number of samples processed in an audio callback */
 103:../../libDaisy//src/daisy_patch_sm.h ****         size_t AudioBlockSize();
 104:../../libDaisy//src/daisy_patch_sm.h **** 
 105:../../libDaisy//src/daisy_patch_sm.h ****         /** Returns the audio engine's samplerate in Hz */
 106:../../libDaisy//src/daisy_patch_sm.h ****         float AudioSampleRate();
 107:../../libDaisy//src/daisy_patch_sm.h **** 
 108:../../libDaisy//src/daisy_patch_sm.h ****         /** Returns the rate at which the audio callback will be called in Hz */
 109:../../libDaisy//src/daisy_patch_sm.h ****         float AudioCallbackRate();
 110:../../libDaisy//src/daisy_patch_sm.h **** 
 111:../../libDaisy//src/daisy_patch_sm.h ****         /** Starts the Control ADCs 
 112:../../libDaisy//src/daisy_patch_sm.h ****          * 
 113:../../libDaisy//src/daisy_patch_sm.h ****          *  This is started automatically when Init() is called.
 114:../../libDaisy//src/daisy_patch_sm.h ****          */
 115:../../libDaisy//src/daisy_patch_sm.h ****         void StartAdc();
 116:../../libDaisy//src/daisy_patch_sm.h **** 
 117:../../libDaisy//src/daisy_patch_sm.h ****         /** Stops the Control ADCs */
 118:../../libDaisy//src/daisy_patch_sm.h ****         void StopAdc();
 119:../../libDaisy//src/daisy_patch_sm.h **** 
 120:../../libDaisy//src/daisy_patch_sm.h ****         /** Reads and filters all of the analog control inputs */
 121:../../libDaisy//src/daisy_patch_sm.h ****         void ProcessAnalogControls();
 122:../../libDaisy//src/daisy_patch_sm.h **** 
 123:../../libDaisy//src/daisy_patch_sm.h ****         /** Reads and debounces any of the digital control inputs 
 124:../../libDaisy//src/daisy_patch_sm.h ****          *  This does nothing on this board at this time.
 125:../../libDaisy//src/daisy_patch_sm.h ****          */
 126:../../libDaisy//src/daisy_patch_sm.h ****         void ProcessDigitalControls();
 127:../../libDaisy//src/daisy_patch_sm.h **** 
 128:../../libDaisy//src/daisy_patch_sm.h ****         /** Does both of the above */
 129:../../libDaisy//src/daisy_patch_sm.h ****         void ProcessAllControls()
 1184              		.loc 2 129 14 view .LVU290
 1185              	.LBB447:
 130:../../libDaisy//src/daisy_patch_sm.h ****         {
 131:../../libDaisy//src/daisy_patch_sm.h ****             ProcessAnalogControls();
 1186              		.loc 2 131 13 view .LVU291
ARM GAS  /var/folders/hl/qgbwny5j0fd895c2c41bk3tw0000gp/T//ccXwbuCm.s 			page 39


 1187              	.LBE447:
 1188              	.LBE446:
  18:DualSequencer.cpp **** {
 1189              		.loc 10 18 1 is_stmt 0 view .LVU292
 1190 0000 2DE9F047 		push	{r4, r5, r6, r7, r8, r9, r10, lr}
 1191              		.cfi_def_cfa_offset 32
 1192              		.cfi_offset 4, -32
 1193              		.cfi_offset 5, -28
 1194              		.cfi_offset 6, -24
 1195              		.cfi_offset 7, -20
 1196              		.cfi_offset 8, -16
 1197              		.cfi_offset 9, -12
 1198              		.cfi_offset 10, -8
 1199              		.cfi_offset 14, -4
 1200              	.LBB450:
 1201              	.LBB448:
 1202              		.loc 2 131 34 view .LVU293
 1203 0004 2148     		ldr	r0, .L48
 1204              	.LVL79:
 1205              		.loc 2 131 34 view .LVU294
 1206              	.LBE448:
 1207              	.LBE450:
  18:DualSequencer.cpp **** {
 1208              		.loc 10 18 1 view .LVU295
 1209 0006 9146     		mov	r9, r2
 1210 0008 8846     		mov	r8, r1
 1211              	.LBB451:
 1212              	.LBB449:
 1213              		.loc 2 131 34 view .LVU296
 1214 000a FFF7FEFF 		bl	_ZN5daisy8patch_sm12DaisyPatchSM21ProcessAnalogControlsEv
 1215              	.LVL80:
 132:../../libDaisy//src/daisy_patch_sm.h ****             ProcessDigitalControls();
 1216              		.loc 2 132 13 is_stmt 1 view .LVU297
 1217              		.loc 2 132 35 is_stmt 0 view .LVU298
 1218 000e 1F48     		ldr	r0, .L48
 1219 0010 FFF7FEFF 		bl	_ZN5daisy8patch_sm12DaisyPatchSM22ProcessDigitalControlsEv
 1220              	.LVL81:
 1221              		.loc 2 132 35 view .LVU299
 1222              	.LBE449:
 1223              	.LBE451:
  20:DualSequencer.cpp **** 	ProcessKnobs();
 1224              		.loc 10 20 2 is_stmt 1 view .LVU300
  20:DualSequencer.cpp **** 	ProcessKnobs();
 1225              		.loc 10 20 14 is_stmt 0 view .LVU301
 1226 0014 FFF7FEFF 		bl	_Z12ProcessKnobsv
 1227              	.LVL82:
  21:DualSequencer.cpp **** 	for (size_t i = 0; i < size; i++)
 1228              		.loc 10 21 2 is_stmt 1 view .LVU302
 1229              	.LBB452:
  21:DualSequencer.cpp **** 	for (size_t i = 0; i < size; i++)
 1230              		.loc 10 21 23 view .LVU303
 1231 0018 B9F1000F 		cmp	r9, #0
 1232 001c 34D0     		beq	.L34
  21:DualSequencer.cpp **** 	for (size_t i = 0; i < size; i++)
 1233              		.loc 10 21 14 is_stmt 0 view .LVU304
 1234 001e 0026     		movs	r6, #0
 1235 0020 DFF878A0 		ldr	r10, .L48+16
ARM GAS  /var/folders/hl/qgbwny5j0fd895c2c41bk3tw0000gp/T//ccXwbuCm.s 			page 40


 1236 0024 1A4F     		ldr	r7, .L48+4
 1237              	.LVL83:
 1238              	.L38:
 1239              	.LBB453:
  23:DualSequencer.cpp **** 		float sig,env_out[4];
 1240              		.loc 10 23 3 is_stmt 1 view .LVU305
  24:DualSequencer.cpp **** 		if(clock.Process())
 1241              		.loc 10 24 3 view .LVU306
  24:DualSequencer.cpp **** 		if(clock.Process())
 1242              		.loc 10 24 19 is_stmt 0 view .LVU307
 1243 0026 1B48     		ldr	r0, .L48+8
 1244 0028 FFF7FEFF 		bl	_ZN7daisysp5Metro7ProcessEv
 1245              	.LVL84:
  24:DualSequencer.cpp **** 		if(clock.Process())
 1246              		.loc 10 24 3 view .LVU308
 1247 002c 88B1     		cbz	r0, .L36
  26:DualSequencer.cpp **** 			stepNumber++;
 1248              		.loc 10 26 4 is_stmt 1 view .LVU309
  27:DualSequencer.cpp **** 			stepNumber %= 4;
 1249              		.loc 10 27 4 view .LVU310
  26:DualSequencer.cpp **** 			stepNumber++;
 1250              		.loc 10 26 14 is_stmt 0 view .LVU311
 1251 002e 1A49     		ldr	r1, .L48+12
 1252              	.LBB454:
 1253              	.LBB455:
  56:../../DaisySP//Source/Control/adenv.h ****     /** Sets the length of time (in seconds) for a specific segment. */
 1254              		.loc 13 56 38 view .LVU312
 1255 0030 0120     		movs	r0, #1
 1256              	.LBE455:
 1257              	.LBE454:
  26:DualSequencer.cpp **** 			stepNumber++;
 1258              		.loc 10 26 14 view .LVU313
 1259 0032 0B68     		ldr	r3, [r1]
 1260 0034 0344     		add	r3, r3, r0
  27:DualSequencer.cpp **** 			stepNumber %= 4;
 1261              		.loc 10 27 15 view .LVU314
 1262 0036 5A42     		rsbs	r2, r3, #0
 1263 0038 03F00303 		and	r3, r3, #3
 1264 003c 02F00302 		and	r2, r2, #3
 1265 0040 58BF     		it	pl
 1266 0042 5342     		rsbpl	r3, r2, #0
 1267              	.LBB458:
 1268              	.LBB456:
  56:../../DaisySP//Source/Control/adenv.h ****     /** Sets the length of time (in seconds) for a specific segment. */
 1269              		.loc 13 56 38 view .LVU315
 1270 0044 C3EBC302 		rsb	r2, r3, r3, lsl #3
 1271              	.LBE456:
 1272              	.LBE458:
  27:DualSequencer.cpp **** 			stepNumber %= 4;
 1273              		.loc 10 27 15 view .LVU316
 1274 0048 0B60     		str	r3, [r1]
  28:DualSequencer.cpp **** 			env[stepNumber].Trigger();
 1275              		.loc 10 28 4 is_stmt 1 view .LVU317
 1276              	.LVL85:
 1277              	.LBB459:
 1278              	.LBI454:
  56:../../DaisySP//Source/Control/adenv.h ****     /** Sets the length of time (in seconds) for a specific segment. */
ARM GAS  /var/folders/hl/qgbwny5j0fd895c2c41bk3tw0000gp/T//ccXwbuCm.s 			page 41


 1279              		.loc 13 56 17 view .LVU318
 1280              	.LBB457:
  56:../../DaisySP//Source/Control/adenv.h ****     /** Sets the length of time (in seconds) for a specific segment. */
 1281              		.loc 13 56 29 view .LVU319
  56:../../DaisySP//Source/Control/adenv.h ****     /** Sets the length of time (in seconds) for a specific segment. */
 1282              		.loc 13 56 38 is_stmt 0 view .LVU320
 1283 004a 0AEBC203 		add	r3, r10, r2, lsl #3
 1284              	.LVL86:
  56:../../DaisySP//Source/Control/adenv.h ****     /** Sets the length of time (in seconds) for a specific segment. */
 1285              		.loc 13 56 38 view .LVU321
 1286 004e 83F83400 		strb	r0, [r3, #52]
 1287              	.LVL87:
 1288              	.L36:
  56:../../DaisySP//Source/Control/adenv.h ****     /** Sets the length of time (in seconds) for a specific segment. */
 1289              		.loc 13 56 38 view .LVU322
 1290 0052 124D     		ldr	r5, .L48+16
 1291 0054 124C     		ldr	r4, .L48+20
 1292              	.L37:
 1293              	.LBE457:
 1294              	.LBE459:
 1295              	.LBB460:
  33:DualSequencer.cpp **** 			env_out[i] = env[i].Process();
 1296              		.loc 10 33 4 is_stmt 1 discriminator 2 view .LVU323
  33:DualSequencer.cpp **** 			env_out[i] = env[i].Process();
 1297              		.loc 10 33 31 is_stmt 0 discriminator 2 view .LVU324
 1298 0056 2846     		mov	r0, r5
  31:DualSequencer.cpp **** 		for (size_t i = 0; i < 4; i++)
 1299              		.loc 10 31 24 discriminator 2 view .LVU325
 1300 0058 3835     		adds	r5, r5, #56
  33:DualSequencer.cpp **** 			env_out[i] = env[i].Process();
 1301              		.loc 10 33 31 discriminator 2 view .LVU326
 1302 005a FFF7FEFF 		bl	_ZN7daisysp5AdEnv7ProcessEv
 1303              	.LVL88:
  34:DualSequencer.cpp **** 			osc[i].SetAmp(env_out[i]);
 1304              		.loc 10 34 4 is_stmt 1 discriminator 2 view .LVU327
 1305              	.LBB461:
 1306              	.LBI461:
  69:../../DaisySP//Source/Synthesis/oscillator.h ****     /** Sets the waveform to be synthesized by the Process() function.
 1307              		.loc 12 69 17 discriminator 2 view .LVU328
 1308              	.LBB462:
  69:../../DaisySP//Source/Synthesis/oscillator.h ****     /** Sets the waveform to be synthesized by the Process() function.
 1309              		.loc 12 69 41 discriminator 2 view .LVU329
 1310              	.LBE462:
 1311              	.LBE461:
  35:DualSequencer.cpp **** 			sig =+ osc[i].Process();
 1312              		.loc 10 35 25 is_stmt 0 discriminator 2 view .LVU330
 1313 005e 2046     		mov	r0, r4
  31:DualSequencer.cpp **** 		for (size_t i = 0; i < 4; i++)
 1314              		.loc 10 31 24 discriminator 2 view .LVU331
 1315 0060 3034     		adds	r4, r4, #48
 1316              	.LBB464:
 1317              	.LBB463:
  69:../../DaisySP//Source/Synthesis/oscillator.h ****     /** Sets the waveform to be synthesized by the Process() function.
 1318              		.loc 12 69 46 discriminator 2 view .LVU332
 1319 0062 04ED0B0A 		vstr.32	s0, [r4, #-44]
 1320              	.LVL89:
  69:../../DaisySP//Source/Synthesis/oscillator.h ****     /** Sets the waveform to be synthesized by the Process() function.
ARM GAS  /var/folders/hl/qgbwny5j0fd895c2c41bk3tw0000gp/T//ccXwbuCm.s 			page 42


 1321              		.loc 12 69 46 discriminator 2 view .LVU333
 1322              	.LBE463:
 1323              	.LBE464:
  35:DualSequencer.cpp **** 			sig =+ osc[i].Process();
 1324              		.loc 10 35 4 is_stmt 1 discriminator 2 view .LVU334
  35:DualSequencer.cpp **** 			sig =+ osc[i].Process();
 1325              		.loc 10 35 25 is_stmt 0 discriminator 2 view .LVU335
 1326 0066 FFF7FEFF 		bl	_ZN7daisysp10Oscillator7ProcessEv
 1327              	.LVL90:
  31:DualSequencer.cpp **** 		for (size_t i = 0; i < 4; i++)
 1328              		.loc 10 31 3 is_stmt 1 discriminator 2 view .LVU336
  31:DualSequencer.cpp **** 		for (size_t i = 0; i < 4; i++)
 1329              		.loc 10 31 24 discriminator 2 view .LVU337
 1330 006a BC42     		cmp	r4, r7
 1331 006c F3D1     		bne	.L37
 1332              	.LBE460:
  38:DualSequencer.cpp **** 		OUT_L[i] = sig;
 1333              		.loc 10 38 3 discriminator 2 view .LVU338
  39:DualSequencer.cpp **** 		OUT_R[i] = sig;
 1334              		.loc 10 39 12 is_stmt 0 discriminator 2 view .LVU339
 1335 006e D8E90023 		ldrd	r2, r3, [r8]
  38:DualSequencer.cpp **** 		OUT_L[i] = sig;
 1336              		.loc 10 38 12 discriminator 2 view .LVU340
 1337 0072 02EB8602 		add	r2, r2, r6, lsl #2
  39:DualSequencer.cpp **** 		OUT_R[i] = sig;
 1338              		.loc 10 39 12 discriminator 2 view .LVU341
 1339 0076 03EB8603 		add	r3, r3, r6, lsl #2
 1340              	.LBE453:
  21:DualSequencer.cpp **** 	for (size_t i = 0; i < size; i++)
 1341              		.loc 10 21 2 discriminator 2 view .LVU342
 1342 007a 0136     		adds	r6, r6, #1
 1343              	.LVL91:
 1344              	.LBB465:
  38:DualSequencer.cpp **** 		OUT_L[i] = sig;
 1345              		.loc 10 38 12 discriminator 2 view .LVU343
 1346 007c 82ED000A 		vstr.32	s0, [r2]
  39:DualSequencer.cpp **** 		OUT_R[i] = sig;
 1347              		.loc 10 39 3 is_stmt 1 discriminator 2 view .LVU344
 1348              	.LBE465:
  21:DualSequencer.cpp **** 	for (size_t i = 0; i < size; i++)
 1349              		.loc 10 21 23 is_stmt 0 discriminator 2 view .LVU345
 1350 0080 B145     		cmp	r9, r6
 1351              	.LBB466:
  39:DualSequencer.cpp **** 		OUT_R[i] = sig;
 1352              		.loc 10 39 12 discriminator 2 view .LVU346
 1353 0082 83ED000A 		vstr.32	s0, [r3]
 1354              	.LBE466:
  21:DualSequencer.cpp **** 	for (size_t i = 0; i < size; i++)
 1355              		.loc 10 21 2 is_stmt 1 discriminator 2 view .LVU347
 1356              	.LVL92:
  21:DualSequencer.cpp **** 	for (size_t i = 0; i < size; i++)
 1357              		.loc 10 21 23 discriminator 2 view .LVU348
 1358 0086 CED1     		bne	.L38
 1359              	.LVL93:
 1360              	.L34:
  21:DualSequencer.cpp **** 	for (size_t i = 0; i < size; i++)
 1361              		.loc 10 21 23 is_stmt 0 discriminator 2 view .LVU349
ARM GAS  /var/folders/hl/qgbwny5j0fd895c2c41bk3tw0000gp/T//ccXwbuCm.s 			page 43


 1362              	.LBE452:
  41:DualSequencer.cpp **** }
 1363              		.loc 10 41 1 view .LVU350
 1364 0088 BDE8F087 		pop	{r4, r5, r6, r7, r8, r9, r10, pc}
 1365              	.LVL94:
 1366              	.L49:
  41:DualSequencer.cpp **** }
 1367              		.loc 10 41 1 view .LVU351
 1368              		.align	2
 1369              	.L48:
 1370 008c 00000000 		.word	.LANCHOR18
 1371 0090 C0000000 		.word	.LANCHOR21+192
 1372 0094 00000000 		.word	.LANCHOR19
 1373 0098 00000000 		.word	.LANCHOR20
 1374 009c 00000000 		.word	.LANCHOR22
 1375 00a0 00000000 		.word	.LANCHOR21
 1376              		.cfi_endproc
 1377              	.LFE4797:
 1379              		.section	.text.startup._GLOBAL__sub_I__ZN5daisy8patch_sm8gen_led1E,"ax",%progbits
 1380              		.align	1
 1381              		.p2align 2,,3
 1382              		.syntax unified
 1383              		.thumb
 1384              		.thumb_func
 1385              		.fpu fpv5-d16
 1387              	_GLOBAL__sub_I__ZN5daisy8patch_sm8gen_led1E:
 1388              	.LFB5361:
 1389              		.loc 10 87 1 is_stmt 1 view -0
 1390              		.cfi_startproc
 1391              		@ args = 0, pretend = 0, frame = 0
 1392              		@ frame_needed = 0, uses_anonymous_args = 0
 1393              	.LBB591:
 1394              	.LBI591:
 1395              		.loc 10 87 1 view .LVU353
 1396              	.LVL95:
 1397              	.LBB592:
 1398              	.LBB593:
 1399              	.LBI593:
 1400              		.file 14 "../../libDaisy//src/per/gpio.h"
   1:../../libDaisy//src/per/gpio.h **** #pragma once
   2:../../libDaisy//src/per/gpio.h **** #ifndef DSY_GPIO_H
   3:../../libDaisy//src/per/gpio.h **** #define DSY_GPIO_H
   4:../../libDaisy//src/per/gpio.h **** #include "daisy_core.h"
   5:../../libDaisy//src/per/gpio.h **** 
   6:../../libDaisy//src/per/gpio.h **** #ifdef __cplusplus
   7:../../libDaisy//src/per/gpio.h **** 
   8:../../libDaisy//src/per/gpio.h **** namespace daisy
   9:../../libDaisy//src/per/gpio.h **** {
  10:../../libDaisy//src/per/gpio.h **** /** @brief General Purpose I/O control 
  11:../../libDaisy//src/per/gpio.h ****  *  @details peripheral control over a single GPIO
  12:../../libDaisy//src/per/gpio.h ****  *  @ingroup peripheral
  13:../../libDaisy//src/per/gpio.h ****  *   
  14:../../libDaisy//src/per/gpio.h ****  *  Button Input (with internal Pullup resistor)
  15:../../libDaisy//src/per/gpio.h ****  *  @include GPIO_Input.cpp 
  16:../../libDaisy//src/per/gpio.h ****  * 
  17:../../libDaisy//src/per/gpio.h ****  *  Output Example (perfect for blinking an LED)
  18:../../libDaisy//src/per/gpio.h ****  *  @include GPIO_Output.cpp
ARM GAS  /var/folders/hl/qgbwny5j0fd895c2c41bk3tw0000gp/T//ccXwbuCm.s 			page 44


  19:../../libDaisy//src/per/gpio.h ****  * 
  20:../../libDaisy//src/per/gpio.h **** */
  21:../../libDaisy//src/per/gpio.h **** class GPIO
  22:../../libDaisy//src/per/gpio.h **** {
  23:../../libDaisy//src/per/gpio.h ****   public:
  24:../../libDaisy//src/per/gpio.h ****     /** @brief Mode of operation for the specified GPIO */
  25:../../libDaisy//src/per/gpio.h ****     enum class Mode
  26:../../libDaisy//src/per/gpio.h ****     {
  27:../../libDaisy//src/per/gpio.h ****         INPUT,     /**< Input for reading state of pin */
  28:../../libDaisy//src/per/gpio.h ****         OUTPUT,    /**< Output w/ push-pull configuration */
  29:../../libDaisy//src/per/gpio.h ****         OUTPUT_OD, /**< Output w/ open-drain configuration */
  30:../../libDaisy//src/per/gpio.h ****         ANALOG,    /**< Analog for connection to ADC or DAC peripheral */
  31:../../libDaisy//src/per/gpio.h ****     };
  32:../../libDaisy//src/per/gpio.h **** 
  33:../../libDaisy//src/per/gpio.h ****     /** @brief Configures whether an internal Pull up or Pull down resistor is used. 
  34:../../libDaisy//src/per/gpio.h ****      *  
  35:../../libDaisy//src/per/gpio.h ****      * Internal Pull up/down resistors are typically 40k ohms, and will be between
  36:../../libDaisy//src/per/gpio.h ****      * 30k and 50k
  37:../../libDaisy//src/per/gpio.h ****      * 
  38:../../libDaisy//src/per/gpio.h ****      * When the Pin is configured in Analog mode, the pull up/down resistors are
  39:../../libDaisy//src/per/gpio.h ****      * disabled by hardware. 
  40:../../libDaisy//src/per/gpio.h ****      */
  41:../../libDaisy//src/per/gpio.h ****     enum class Pull
  42:../../libDaisy//src/per/gpio.h ****     {
  43:../../libDaisy//src/per/gpio.h ****         NOPULL,   /**< No pull up resistor */
  44:../../libDaisy//src/per/gpio.h ****         PULLUP,   /**< Internal pull up enabled */
  45:../../libDaisy//src/per/gpio.h ****         PULLDOWN, /**< Internal pull down enabled*/
  46:../../libDaisy//src/per/gpio.h ****     };
  47:../../libDaisy//src/per/gpio.h **** 
  48:../../libDaisy//src/per/gpio.h ****     /** @brief Output speed controls the drive strength, and slew rate of the pin */
  49:../../libDaisy//src/per/gpio.h ****     enum class Speed
  50:../../libDaisy//src/per/gpio.h ****     {
  51:../../libDaisy//src/per/gpio.h ****         LOW,
  52:../../libDaisy//src/per/gpio.h ****         MEDIUM,
  53:../../libDaisy//src/per/gpio.h ****         HIGH,
  54:../../libDaisy//src/per/gpio.h ****         VERY_HIGH,
  55:../../libDaisy//src/per/gpio.h ****     };
  56:../../libDaisy//src/per/gpio.h **** 
  57:../../libDaisy//src/per/gpio.h ****     /** @brief Configuration for a given GPIO */
  58:../../libDaisy//src/per/gpio.h ****     struct Config
  59:../../libDaisy//src/per/gpio.h ****     {
  60:../../libDaisy//src/per/gpio.h ****         Pin   pin;
  61:../../libDaisy//src/per/gpio.h ****         Mode  mode;
  62:../../libDaisy//src/per/gpio.h ****         Pull  pull;
  63:../../libDaisy//src/per/gpio.h ****         Speed speed;
  64:../../libDaisy//src/per/gpio.h **** 
  65:../../libDaisy//src/per/gpio.h ****         /** Constructor with no arguments will prepare an invalid GPIO set as
  66:../../libDaisy//src/per/gpio.h ****          *  an input, with no pullup. 
  67:../../libDaisy//src/per/gpio.h ****          */
  68:../../libDaisy//src/per/gpio.h ****         Config()
  69:../../libDaisy//src/per/gpio.h ****         : pin(), mode(Mode::INPUT), pull(Pull::NOPULL), speed(Speed::LOW)
  70:../../libDaisy//src/per/gpio.h ****         {
  71:../../libDaisy//src/per/gpio.h ****         }
  72:../../libDaisy//src/per/gpio.h ****     };
  73:../../libDaisy//src/per/gpio.h **** 
  74:../../libDaisy//src/per/gpio.h ****     GPIO() {}
 1401              		.loc 14 74 5 view .LVU354
ARM GAS  /var/folders/hl/qgbwny5j0fd895c2c41bk3tw0000gp/T//ccXwbuCm.s 			page 45


 1402              	.LBB594:
 1403              	.LBB595:
 1404              	.LBI595:
  68:../../libDaisy//src/per/gpio.h ****         : pin(), mode(Mode::INPUT), pull(Pull::NOPULL), speed(Speed::LOW)
 1405              		.loc 14 68 9 view .LVU355
 1406              	.LBB596:
 1407              	.LBB597:
 1408              	.LBB598:
 1409              	.LBI598:
 1410              		.file 15 "../../libDaisy//src/daisy_core.h"
   1:../../libDaisy//src/daisy_core.h **** #pragma once
   2:../../libDaisy//src/daisy_core.h **** #ifndef DSY_CORE_HW_H
   3:../../libDaisy//src/daisy_core.h **** #define DSY_CORE_HW_H /**< & */
   4:../../libDaisy//src/daisy_core.h **** #include <stdint.h>
   5:../../libDaisy//src/daisy_core.h **** #include <stdlib.h>
   6:../../libDaisy//src/daisy_core.h **** 
   7:../../libDaisy//src/daisy_core.h **** #if defined(_MSC_VER)
   8:../../libDaisy//src/daisy_core.h **** #define FORCE_INLINE __forceinline /**< & */
   9:../../libDaisy//src/daisy_core.h **** #elif defined(__clang__)
  10:../../libDaisy//src/daisy_core.h **** #define FORCE_INLINE inline __attribute__((always_inline)) /**< & */
  11:../../libDaisy//src/daisy_core.h **** #pragma clang diagnostic ignored "-Wduplicate-decl-specifier"
  12:../../libDaisy//src/daisy_core.h **** #elif defined(__GNUC__)
  13:../../libDaisy//src/daisy_core.h **** #define FORCE_INLINE inline __attribute__((always_inline)) /**< & */
  14:../../libDaisy//src/daisy_core.h **** #else
  15:../../libDaisy//src/daisy_core.h **** #error unknown compiler
  16:../../libDaisy//src/daisy_core.h **** #endif
  17:../../libDaisy//src/daisy_core.h **** 
  18:../../libDaisy//src/daisy_core.h **** /** @addtogroup utility
  19:../../libDaisy//src/daisy_core.h ****     @{
  20:../../libDaisy//src/daisy_core.h **** */
  21:../../libDaisy//src/daisy_core.h **** 
  22:../../libDaisy//src/daisy_core.h **** /** Macro for area of memory that is configured as cacheless
  23:../../libDaisy//src/daisy_core.h **** This should be used primarily for DMA buffers, and the like.
  24:../../libDaisy//src/daisy_core.h **** */
  25:../../libDaisy//src/daisy_core.h **** #define DMA_BUFFER_MEM_SECTION __attribute__((section(".sram1_bss")))
  26:../../libDaisy//src/daisy_core.h **** /** 
  27:../../libDaisy//src/daisy_core.h **** THE DTCM RAM section is also non-cached. However, is not suitable 
  28:../../libDaisy//src/daisy_core.h **** for DMA transfers. Performance is on par with internal SRAM w/ 
  29:../../libDaisy//src/daisy_core.h **** cache enabled.
  30:../../libDaisy//src/daisy_core.h **** */
  31:../../libDaisy//src/daisy_core.h **** #define DTCM_MEM_SECTION __attribute__((section(".dtcmram_bss")))
  32:../../libDaisy//src/daisy_core.h **** 
  33:../../libDaisy//src/daisy_core.h **** #define FBIPMAX 0.999985f             /**< close to 1.0f-LSB at 16 bit */
  34:../../libDaisy//src/daisy_core.h **** #define FBIPMIN (-FBIPMAX)            /**< - (1 - LSB) */
  35:../../libDaisy//src/daisy_core.h **** #define U82F_SCALE 0.0078740f         /**< 1 / 127 */
  36:../../libDaisy//src/daisy_core.h **** #define F2U8_SCALE 127.0f             /**< 128 - 1 */
  37:../../libDaisy//src/daisy_core.h **** #define S82F_SCALE 0.0078125f         /**< 1 / (2**7) */
  38:../../libDaisy//src/daisy_core.h **** #define F2S8_SCALE 127.0f             /**< (2 ** 7) - 1 */
  39:../../libDaisy//src/daisy_core.h **** #define S162F_SCALE 3.0517578125e-05f /**< 1 / (2** 15) */
  40:../../libDaisy//src/daisy_core.h **** #define F2S16_SCALE 32767.0f          /**< (2 ** 15) - 1 */
  41:../../libDaisy//src/daisy_core.h **** #define F2S24_SCALE 8388608.0f        /**< 2 ** 23 */
  42:../../libDaisy//src/daisy_core.h **** #define S242F_SCALE 1.192092896e-07f  /**< 1 / (2 ** 23) */
  43:../../libDaisy//src/daisy_core.h **** #define S24SIGN 0x800000              /**< 2 ** 23 */
  44:../../libDaisy//src/daisy_core.h **** #define S322F_SCALE 4.6566129e-10f    /**< 1 / (2** 31) */
  45:../../libDaisy//src/daisy_core.h **** #define F2S32_SCALE 2147483647.f      /**< (2 ** 31) - 1 */
  46:../../libDaisy//src/daisy_core.h **** 
  47:../../libDaisy//src/daisy_core.h **** 
ARM GAS  /var/folders/hl/qgbwny5j0fd895c2c41bk3tw0000gp/T//ccXwbuCm.s 			page 46


  48:../../libDaisy//src/daisy_core.h **** /** shorthand macro for simplifying the reading of the left 
  49:../../libDaisy//src/daisy_core.h ****  *  channel of a non-interleaved output buffer named out */
  50:../../libDaisy//src/daisy_core.h **** #define OUT_L out[0]
  51:../../libDaisy//src/daisy_core.h **** 
  52:../../libDaisy//src/daisy_core.h **** /** shorthand macro for simplifying the reading of the right 
  53:../../libDaisy//src/daisy_core.h ****  *  channel of a non-interleaved output buffer named out */
  54:../../libDaisy//src/daisy_core.h **** #define OUT_R out[1]
  55:../../libDaisy//src/daisy_core.h **** 
  56:../../libDaisy//src/daisy_core.h **** /** shorthand macro for simplifying the reading of the left 
  57:../../libDaisy//src/daisy_core.h ****  *  channel of a non-interleaved input buffer named in */
  58:../../libDaisy//src/daisy_core.h **** #define IN_L in[0]
  59:../../libDaisy//src/daisy_core.h **** 
  60:../../libDaisy//src/daisy_core.h **** /** shorthand macro for simplifying the reading of the right 
  61:../../libDaisy//src/daisy_core.h ****  *  channel of a non-interleaved input buffer named in */
  62:../../libDaisy//src/daisy_core.h **** #define IN_R in[1]
  63:../../libDaisy//src/daisy_core.h **** 
  64:../../libDaisy//src/daisy_core.h **** /** 
  65:../../libDaisy//src/daisy_core.h ****     Computes cube.
  66:../../libDaisy//src/daisy_core.h ****     \param x Number to be cubed
  67:../../libDaisy//src/daisy_core.h ****     \return x ^ 3
  68:../../libDaisy//src/daisy_core.h **** */
  69:../../libDaisy//src/daisy_core.h **** FORCE_INLINE float cube(float x)
  70:../../libDaisy//src/daisy_core.h **** {
  71:../../libDaisy//src/daisy_core.h ****     return (x * x) * x;
  72:../../libDaisy//src/daisy_core.h **** }
  73:../../libDaisy//src/daisy_core.h **** 
  74:../../libDaisy//src/daisy_core.h **** /** 
  75:../../libDaisy//src/daisy_core.h ****     Converts unsigned 8-bit to float
  76:../../libDaisy//src/daisy_core.h ****     \param x Number to be scaled.
  77:../../libDaisy//src/daisy_core.h ****     \return Scaled number.
  78:../../libDaisy//src/daisy_core.h **** */
  79:../../libDaisy//src/daisy_core.h **** FORCE_INLINE float u82f(uint8_t x)
  80:../../libDaisy//src/daisy_core.h **** {
  81:../../libDaisy//src/daisy_core.h ****     return ((float)x - 127.f) * U82F_SCALE;
  82:../../libDaisy//src/daisy_core.h **** }
  83:../../libDaisy//src/daisy_core.h **** 
  84:../../libDaisy//src/daisy_core.h **** /**
  85:../../libDaisy//src/daisy_core.h ****     Converts float to unsigned 8-bit
  86:../../libDaisy//src/daisy_core.h **** */
  87:../../libDaisy//src/daisy_core.h **** FORCE_INLINE uint8_t f2u8(float x)
  88:../../libDaisy//src/daisy_core.h **** {
  89:../../libDaisy//src/daisy_core.h ****     x = x <= FBIPMIN ? FBIPMIN : x;
  90:../../libDaisy//src/daisy_core.h ****     x = x >= FBIPMAX ? FBIPMAX : x;
  91:../../libDaisy//src/daisy_core.h ****     return (uint8_t)((x * F2U8_SCALE) + F2U8_SCALE);
  92:../../libDaisy//src/daisy_core.h **** }
  93:../../libDaisy//src/daisy_core.h **** 
  94:../../libDaisy//src/daisy_core.h **** 
  95:../../libDaisy//src/daisy_core.h **** /** 
  96:../../libDaisy//src/daisy_core.h ****     Converts Signed 8-bit to float
  97:../../libDaisy//src/daisy_core.h ****     \param x Number to be scaled.
  98:../../libDaisy//src/daisy_core.h ****     \return Scaled number.
  99:../../libDaisy//src/daisy_core.h **** */
 100:../../libDaisy//src/daisy_core.h **** FORCE_INLINE float s82f(int8_t x)
 101:../../libDaisy//src/daisy_core.h **** {
 102:../../libDaisy//src/daisy_core.h ****     return (float)x * S82F_SCALE;
 103:../../libDaisy//src/daisy_core.h **** }
 104:../../libDaisy//src/daisy_core.h **** 
ARM GAS  /var/folders/hl/qgbwny5j0fd895c2c41bk3tw0000gp/T//ccXwbuCm.s 			page 47


 105:../../libDaisy//src/daisy_core.h **** /**
 106:../../libDaisy//src/daisy_core.h ****     Converts float to Signed 8-bit
 107:../../libDaisy//src/daisy_core.h **** */
 108:../../libDaisy//src/daisy_core.h **** FORCE_INLINE int8_t f2s8(float x)
 109:../../libDaisy//src/daisy_core.h **** {
 110:../../libDaisy//src/daisy_core.h ****     x = x <= FBIPMIN ? FBIPMIN : x;
 111:../../libDaisy//src/daisy_core.h ****     x = x >= FBIPMAX ? FBIPMAX : x;
 112:../../libDaisy//src/daisy_core.h ****     return (int32_t)(x * F2S8_SCALE);
 113:../../libDaisy//src/daisy_core.h **** }
 114:../../libDaisy//src/daisy_core.h **** 
 115:../../libDaisy//src/daisy_core.h **** /** 
 116:../../libDaisy//src/daisy_core.h ****     Converts Signed 16-bit to float
 117:../../libDaisy//src/daisy_core.h ****     \param x Number to be scaled.
 118:../../libDaisy//src/daisy_core.h ****     \return Scaled number.
 119:../../libDaisy//src/daisy_core.h **** */
 120:../../libDaisy//src/daisy_core.h **** FORCE_INLINE float s162f(int16_t x)
 121:../../libDaisy//src/daisy_core.h **** {
 122:../../libDaisy//src/daisy_core.h ****     return (float)x * S162F_SCALE;
 123:../../libDaisy//src/daisy_core.h **** }
 124:../../libDaisy//src/daisy_core.h **** 
 125:../../libDaisy//src/daisy_core.h **** /**
 126:../../libDaisy//src/daisy_core.h ****     Converts float to Signed 16-bit
 127:../../libDaisy//src/daisy_core.h **** */
 128:../../libDaisy//src/daisy_core.h **** FORCE_INLINE int16_t f2s16(float x)
 129:../../libDaisy//src/daisy_core.h **** {
 130:../../libDaisy//src/daisy_core.h ****     x = x <= FBIPMIN ? FBIPMIN : x;
 131:../../libDaisy//src/daisy_core.h ****     x = x >= FBIPMAX ? FBIPMAX : x;
 132:../../libDaisy//src/daisy_core.h ****     return (int32_t)(x * F2S16_SCALE);
 133:../../libDaisy//src/daisy_core.h **** }
 134:../../libDaisy//src/daisy_core.h **** 
 135:../../libDaisy//src/daisy_core.h **** /**
 136:../../libDaisy//src/daisy_core.h ****     Converts Signed 24-bit to float
 137:../../libDaisy//src/daisy_core.h ****  */
 138:../../libDaisy//src/daisy_core.h **** FORCE_INLINE float s242f(int32_t x)
 139:../../libDaisy//src/daisy_core.h **** {
 140:../../libDaisy//src/daisy_core.h ****     x = (x ^ S24SIGN) - S24SIGN; //sign extend aka ((x<<8)>>8)
 141:../../libDaisy//src/daisy_core.h ****     return (float)x * S242F_SCALE;
 142:../../libDaisy//src/daisy_core.h **** }
 143:../../libDaisy//src/daisy_core.h **** /**
 144:../../libDaisy//src/daisy_core.h ****     Converts float to Signed 24-bit
 145:../../libDaisy//src/daisy_core.h ****  */
 146:../../libDaisy//src/daisy_core.h **** FORCE_INLINE int32_t f2s24(float x)
 147:../../libDaisy//src/daisy_core.h **** {
 148:../../libDaisy//src/daisy_core.h ****     x = x <= FBIPMIN ? FBIPMIN : x;
 149:../../libDaisy//src/daisy_core.h ****     x = x >= FBIPMAX ? FBIPMAX : x;
 150:../../libDaisy//src/daisy_core.h ****     return (int32_t)(x * F2S24_SCALE);
 151:../../libDaisy//src/daisy_core.h **** }
 152:../../libDaisy//src/daisy_core.h **** 
 153:../../libDaisy//src/daisy_core.h **** /**
 154:../../libDaisy//src/daisy_core.h ****     Converts Signed 32-bit to float
 155:../../libDaisy//src/daisy_core.h ****  */
 156:../../libDaisy//src/daisy_core.h **** FORCE_INLINE float s322f(int32_t x)
 157:../../libDaisy//src/daisy_core.h **** {
 158:../../libDaisy//src/daisy_core.h ****     return (float)x * S322F_SCALE;
 159:../../libDaisy//src/daisy_core.h **** }
 160:../../libDaisy//src/daisy_core.h **** /**
 161:../../libDaisy//src/daisy_core.h ****     Converts float to Signed 24-bit
ARM GAS  /var/folders/hl/qgbwny5j0fd895c2c41bk3tw0000gp/T//ccXwbuCm.s 			page 48


 162:../../libDaisy//src/daisy_core.h ****  */
 163:../../libDaisy//src/daisy_core.h **** FORCE_INLINE int32_t f2s32(float x)
 164:../../libDaisy//src/daisy_core.h **** {
 165:../../libDaisy//src/daisy_core.h ****     x = x <= FBIPMIN ? FBIPMIN : x;
 166:../../libDaisy//src/daisy_core.h ****     x = x >= FBIPMAX ? FBIPMAX : x;
 167:../../libDaisy//src/daisy_core.h ****     return (int32_t)(x * F2S32_SCALE);
 168:../../libDaisy//src/daisy_core.h **** }
 169:../../libDaisy//src/daisy_core.h **** 
 170:../../libDaisy//src/daisy_core.h **** 
 171:../../libDaisy//src/daisy_core.h **** /** Enums and a simple struct for defining a hardware pin on the MCU
 172:../../libDaisy//src/daisy_core.h ****  *  These correlate with the stm32 datasheet, and are used to configure
 173:../../libDaisy//src/daisy_core.h ****  *  the hardware.
 174:../../libDaisy//src/daisy_core.h ****  * 
 175:../../libDaisy//src/daisy_core.h ****  *  This along with the dsy_gpio_pin class should no longer be used.
 176:../../libDaisy//src/daisy_core.h ****  *  They are available for backwards compatability. 
 177:../../libDaisy//src/daisy_core.h ****  * 
 178:../../libDaisy//src/daisy_core.h ****  *  Please use GPIOPort enum and the Pin struct instead.
 179:../../libDaisy//src/daisy_core.h ****  */
 180:../../libDaisy//src/daisy_core.h **** typedef enum
 181:../../libDaisy//src/daisy_core.h **** {
 182:../../libDaisy//src/daisy_core.h ****     DSY_GPIOA, /**< & */
 183:../../libDaisy//src/daisy_core.h ****     DSY_GPIOB, /**< & */
 184:../../libDaisy//src/daisy_core.h ****     DSY_GPIOC, /**< & */
 185:../../libDaisy//src/daisy_core.h ****     DSY_GPIOD, /**< & */
 186:../../libDaisy//src/daisy_core.h ****     DSY_GPIOE, /**< & */
 187:../../libDaisy//src/daisy_core.h ****     DSY_GPIOF, /**< & */
 188:../../libDaisy//src/daisy_core.h ****     DSY_GPIOG, /**< & */
 189:../../libDaisy//src/daisy_core.h ****     DSY_GPIOH, /**< & */
 190:../../libDaisy//src/daisy_core.h ****     DSY_GPIOI, /**< & */
 191:../../libDaisy//src/daisy_core.h ****     DSY_GPIOJ, /**< & */
 192:../../libDaisy//src/daisy_core.h ****     DSY_GPIOK, /**< & */
 193:../../libDaisy//src/daisy_core.h ****     DSY_GPIOX, /** This is a non-existant port for unsupported bits of hardware. */
 194:../../libDaisy//src/daisy_core.h ****     DSY_GPIO_LAST, /** Final enum member */
 195:../../libDaisy//src/daisy_core.h **** } dsy_gpio_port;
 196:../../libDaisy//src/daisy_core.h **** 
 197:../../libDaisy//src/daisy_core.h **** /** Hardware define pins 
 198:../../libDaisy//src/daisy_core.h ****  *  
 199:../../libDaisy//src/daisy_core.h ****  *  The dsy_gpio_pin struct should no longer be used, and is only available for
 200:../../libDaisy//src/daisy_core.h ****  *  backwards compatability.
 201:../../libDaisy//src/daisy_core.h ****  * 
 202:../../libDaisy//src/daisy_core.h ****  *  Please use Pin struct instead.
 203:../../libDaisy//src/daisy_core.h ****  */
 204:../../libDaisy//src/daisy_core.h **** typedef struct
 205:../../libDaisy//src/daisy_core.h **** {
 206:../../libDaisy//src/daisy_core.h ****     dsy_gpio_port port; /**< & */
 207:../../libDaisy//src/daisy_core.h ****     uint8_t       pin;  /**< number 0-15 */
 208:../../libDaisy//src/daisy_core.h **** } dsy_gpio_pin;
 209:../../libDaisy//src/daisy_core.h **** 
 210:../../libDaisy//src/daisy_core.h **** /** Helper for creating pins from port/pin combos easily
 211:../../libDaisy//src/daisy_core.h ****  * 
 212:../../libDaisy//src/daisy_core.h ****  *  The dsy_gpio_pin struct should no longer be used, and is only available for
 213:../../libDaisy//src/daisy_core.h ****  *  backwards compatability.
 214:../../libDaisy//src/daisy_core.h ****  * 
 215:../../libDaisy//src/daisy_core.h ****  *  Please use Pin struct instead.
 216:../../libDaisy//src/daisy_core.h **** */
 217:../../libDaisy//src/daisy_core.h **** FORCE_INLINE dsy_gpio_pin dsy_pin(dsy_gpio_port port, uint8_t pin)
 218:../../libDaisy//src/daisy_core.h **** {
ARM GAS  /var/folders/hl/qgbwny5j0fd895c2c41bk3tw0000gp/T//ccXwbuCm.s 			page 49


 219:../../libDaisy//src/daisy_core.h ****     dsy_gpio_pin p;
 220:../../libDaisy//src/daisy_core.h ****     p.port = port;
 221:../../libDaisy//src/daisy_core.h ****     p.pin  = pin;
 222:../../libDaisy//src/daisy_core.h ****     return p;
 223:../../libDaisy//src/daisy_core.h **** }
 224:../../libDaisy//src/daisy_core.h **** 
 225:../../libDaisy//src/daisy_core.h **** /** Helper for testing sameness of two dsy_gpio_pins
 226:../../libDaisy//src/daisy_core.h ****  *  \return    1 if same, 0 if different
 227:../../libDaisy//src/daisy_core.h ****  * 
 228:../../libDaisy//src/daisy_core.h ****  *  The dsy_gpio_pin struct should no longer be used, and is only available for
 229:../../libDaisy//src/daisy_core.h ****  *  backwards compatability.
 230:../../libDaisy//src/daisy_core.h ****  * 
 231:../../libDaisy//src/daisy_core.h ****  *  Please use Pin struct instead.
 232:../../libDaisy//src/daisy_core.h ****  */
 233:../../libDaisy//src/daisy_core.h **** FORCE_INLINE uint8_t dsy_pin_cmp(dsy_gpio_pin *a, dsy_gpio_pin *b)
 234:../../libDaisy//src/daisy_core.h **** {
 235:../../libDaisy//src/daisy_core.h ****     return ((a->port == b->port) && (a->pin == b->pin));
 236:../../libDaisy//src/daisy_core.h **** }
 237:../../libDaisy//src/daisy_core.h **** 
 238:../../libDaisy//src/daisy_core.h **** #ifdef __cplusplus
 239:../../libDaisy//src/daisy_core.h **** 
 240:../../libDaisy//src/daisy_core.h **** namespace daisy
 241:../../libDaisy//src/daisy_core.h **** {
 242:../../libDaisy//src/daisy_core.h **** /** @brief GPIO Port names */
 243:../../libDaisy//src/daisy_core.h **** enum GPIOPort
 244:../../libDaisy//src/daisy_core.h **** {
 245:../../libDaisy//src/daisy_core.h ****     PORTA, /**< Port A */
 246:../../libDaisy//src/daisy_core.h ****     PORTB, /**< Port B */
 247:../../libDaisy//src/daisy_core.h ****     PORTC, /**< Port C */
 248:../../libDaisy//src/daisy_core.h ****     PORTD, /**< Port D */
 249:../../libDaisy//src/daisy_core.h ****     PORTE, /**< Port E */
 250:../../libDaisy//src/daisy_core.h ****     PORTF, /**< Port F */
 251:../../libDaisy//src/daisy_core.h ****     PORTG, /**< Port G */
 252:../../libDaisy//src/daisy_core.h ****     PORTH, /**< Port H */
 253:../../libDaisy//src/daisy_core.h ****     PORTI, /**< Port I */
 254:../../libDaisy//src/daisy_core.h ****     PORTJ, /**< Port J */
 255:../../libDaisy//src/daisy_core.h ****     PORTK, /**< Port K */
 256:../../libDaisy//src/daisy_core.h ****     PORTX, /**< Used as a dummy port to signal an invalid pin. */
 257:../../libDaisy//src/daisy_core.h **** };
 258:../../libDaisy//src/daisy_core.h **** 
 259:../../libDaisy//src/daisy_core.h **** /** @brief representation of hardware port/pin combination */
 260:../../libDaisy//src/daisy_core.h **** struct Pin
 261:../../libDaisy//src/daisy_core.h **** {
 262:../../libDaisy//src/daisy_core.h ****     GPIOPort port;
 263:../../libDaisy//src/daisy_core.h ****     uint8_t  pin;
 264:../../libDaisy//src/daisy_core.h **** 
 265:../../libDaisy//src/daisy_core.h ****     /** @brief Constructor creates a valid pin. 
 266:../../libDaisy//src/daisy_core.h ****      *  @param pt GPIOPort between PA, and PK corresponding to STM32 Port.
 267:../../libDaisy//src/daisy_core.h ****      *  @param pn pin number in range of 0-15
 268:../../libDaisy//src/daisy_core.h ****     */
 269:../../libDaisy//src/daisy_core.h ****     constexpr Pin(const GPIOPort pt, const uint8_t pn) : port(pt), pin(pn) {}
 270:../../libDaisy//src/daisy_core.h **** 
 271:../../libDaisy//src/daisy_core.h ****     /** @brief Basic Constructor creates an invalid Pin object */
 272:../../libDaisy//src/daisy_core.h ****     constexpr Pin() : port(PORTX), pin(255) {}
 1411              		.loc 15 272 15 view .LVU356
 1412              		.loc 15 272 15 is_stmt 0 view .LVU357
 1413              	.LBE598:
ARM GAS  /var/folders/hl/qgbwny5j0fd895c2c41bk3tw0000gp/T//ccXwbuCm.s 			page 50


 1414              	.LBE597:
 1415              	.LBE596:
 1416              	.LBE595:
 1417              	.LBE594:
 1418              	.LBE593:
 1419              	.LBE592:
 1420              	.LBE591:
 1421              		.loc 10 87 1 view .LVU358
 1422 0000 38B5     		push	{r3, r4, r5, lr}
 1423              		.cfi_def_cfa_offset 16
 1424              		.cfi_offset 3, -16
 1425              		.cfi_offset 4, -12
 1426              		.cfi_offset 5, -8
 1427              		.cfi_offset 14, -4
 1428              	.LBB793:
 1429              	.LBB790:
 1430              	.LBB611:
 1431              	.LBB612:
 1432              		.loc 14 74 12 view .LVU359
 1433 0002 474A     		ldr	r2, .L52
 1434              	.LBE612:
 1435              	.LBE611:
 1436              	.LBB622:
 1437              	.LBB608:
 1438              	.LBB605:
 1439              	.LBB602:
 1440              	.LBB599:
  69:../../libDaisy//src/per/gpio.h ****         {
 1441              		.loc 14 69 73 view .LVU360
 1442 0004 0024     		movs	r4, #0
 1443              	.LBE599:
 1444              	.LBE602:
 1445              	.LBE605:
 1446              		.loc 14 74 12 view .LVU361
 1447 0006 4FF60B73 		movw	r3, #65291
 1448 000a 4648     		ldr	r0, .L52+4
 1449              	.LBE608:
 1450              	.LBE622:
 1451              	.LBB623:
 1452              	.LBB624:
 1453 000c 4649     		ldr	r1, .L52+8
 1454              	.LBE624:
 1455              	.LBE623:
 1456              	.LBB634:
 1457              	.LBB620:
 1458              	.LBB613:
 1459              	.LBB614:
 1460              	.LBB615:
  69:../../libDaisy//src/per/gpio.h ****         {
 1461              		.loc 14 69 73 view .LVU362
 1462 000e C2E90034 		strd	r3, r4, [r2]
 1463 0012 C2E90244 		strd	r4, r4, [r2, #8]
 1464              	.LBE615:
 1465              	.LBE614:
 1466              	.LBE613:
 1467              	.LBE620:
 1468              	.LBE634:
ARM GAS  /var/folders/hl/qgbwny5j0fd895c2c41bk3tw0000gp/T//ccXwbuCm.s 			page 51


 1469              	.LBB635:
 1470              	.LBB636:
 1471              		.loc 14 74 12 view .LVU363
 1472 0016 454A     		ldr	r2, .L52+12
 1473              	.LBB637:
 1474              	.LBB638:
 1475              	.LBB639:
  69:../../libDaisy//src/per/gpio.h ****         {
 1476              		.loc 14 69 73 view .LVU364
 1477 0018 C2E90034 		strd	r3, r4, [r2]
 1478 001c C2E90244 		strd	r4, r4, [r2, #8]
 1479              	.LBE639:
 1480              	.LBE638:
 1481              	.LBE637:
 1482              	.LBE636:
 1483              	.LBE635:
 1484              	.LBB645:
 1485              	.LBB646:
 1486              		.loc 14 74 12 view .LVU365
 1487 0020 434A     		ldr	r2, .L52+16
 1488              	.LBE646:
 1489              	.LBE645:
 1490              	.LBB660:
 1491              	.LBB609:
 1492              	.LBB606:
 1493              	.LBB603:
 1494              	.LBB600:
  69:../../libDaisy//src/per/gpio.h ****         {
 1495              		.loc 14 69 73 view .LVU366
 1496 0022 C0E90034 		strd	r3, r4, [r0]
 1497              	.LBE600:
 1498              	.LBE603:
 1499              	.LBE606:
 1500              	.LBE609:
 1501              	.LBE660:
 1502              	.LBB661:
 1503              	.LBB657:
 1504              	.LBB647:
 1505              	.LBB648:
 1506              	.LBB649:
 1507 0026 C2E90034 		strd	r3, r4, [r2]
 1508              	.LBE649:
 1509              	.LBE648:
 1510              	.LBE647:
 1511              	.LBE657:
 1512              	.LBE661:
 1513              	.LBB662:
 1514              	.LBB632:
 1515              	.LBB625:
 1516              	.LBB626:
 1517              	.LBB627:
 1518 002a C1E90034 		strd	r3, r4, [r1]
 1519              	.LBE627:
 1520              	.LBE626:
 1521              	.LBE625:
 1522              	.LBE632:
 1523              	.LBE662:
ARM GAS  /var/folders/hl/qgbwny5j0fd895c2c41bk3tw0000gp/T//ccXwbuCm.s 			page 52


 1524              	.LBB663:
 1525              	.LBB610:
 1526              	.LBB607:
 1527              	.LBB604:
 1528              	.LBB601:
 1529 002e C0E90244 		strd	r4, r4, [r0, #8]
 1530              	.LVL96:
  69:../../libDaisy//src/per/gpio.h ****         {
 1531              		.loc 14 69 73 view .LVU367
 1532              	.LBE601:
 1533              	.LBE604:
 1534              	.LBE607:
 1535              	.LBE610:
 1536              	.LBE663:
 1537              	.LBB664:
 1538              	.LBI611:
 1539              		.loc 14 74 5 is_stmt 1 view .LVU368
 1540              	.LBB621:
 1541              	.LBB619:
 1542              	.LBI613:
  68:../../libDaisy//src/per/gpio.h ****         : pin(), mode(Mode::INPUT), pull(Pull::NOPULL), speed(Speed::LOW)
 1543              		.loc 14 68 9 view .LVU369
 1544              	.LBB618:
 1545              	.LBB617:
 1546              	.LBB616:
 1547              	.LBI616:
 1548              		.loc 15 272 15 view .LVU370
 1549              		.loc 15 272 15 is_stmt 0 view .LVU371
 1550              	.LBE616:
 1551              	.LBE617:
 1552              	.LBE618:
 1553              	.LBE619:
 1554              	.LBE621:
 1555              	.LBE664:
 1556              	.LBB665:
 1557              	.LBI623:
 1558              		.loc 14 74 5 is_stmt 1 view .LVU372
 1559              	.LBB633:
 1560              	.LBB631:
 1561              	.LBI625:
  68:../../libDaisy//src/per/gpio.h ****         : pin(), mode(Mode::INPUT), pull(Pull::NOPULL), speed(Speed::LOW)
 1562              		.loc 14 68 9 view .LVU373
 1563              	.LBB630:
 1564              	.LBB629:
 1565              	.LBB628:
 1566              	.LBI628:
 1567              		.loc 15 272 15 view .LVU374
 1568              		.loc 15 272 15 is_stmt 0 view .LVU375
 1569              	.LBE628:
  69:../../libDaisy//src/per/gpio.h ****         {
 1570              		.loc 14 69 73 view .LVU376
 1571 0032 C1E90244 		strd	r4, r4, [r1, #8]
 1572              	.LVL97:
  69:../../libDaisy//src/per/gpio.h ****         {
 1573              		.loc 14 69 73 view .LVU377
 1574              	.LBE629:
 1575              	.LBE630:
ARM GAS  /var/folders/hl/qgbwny5j0fd895c2c41bk3tw0000gp/T//ccXwbuCm.s 			page 53


 1576              	.LBE631:
 1577              	.LBE633:
 1578              	.LBE665:
 1579              	.LBB666:
 1580              	.LBI635:
 1581              		.loc 14 74 5 is_stmt 1 view .LVU378
 1582              	.LBB644:
 1583              	.LBB643:
 1584              	.LBI637:
  68:../../libDaisy//src/per/gpio.h ****         : pin(), mode(Mode::INPUT), pull(Pull::NOPULL), speed(Speed::LOW)
 1585              		.loc 14 68 9 view .LVU379
 1586              	.LBB642:
 1587              	.LBB641:
 1588              	.LBB640:
 1589              	.LBI640:
 1590              		.loc 15 272 15 view .LVU380
 1591              		.loc 15 272 15 is_stmt 0 view .LVU381
 1592              	.LBE640:
 1593              	.LBE641:
 1594              	.LBE642:
 1595              	.LBE643:
 1596              	.LBE644:
 1597              	.LBE666:
 1598              	.LBB667:
 1599              	.LBI667:
 1600              		.loc 14 74 5 is_stmt 1 view .LVU382
 1601              	.LBB668:
 1602              	.LBB669:
 1603              	.LBI669:
  68:../../libDaisy//src/per/gpio.h ****         : pin(), mode(Mode::INPUT), pull(Pull::NOPULL), speed(Speed::LOW)
 1604              		.loc 14 68 9 view .LVU383
 1605              	.LBB670:
 1606              	.LBB671:
 1607              	.LBB672:
 1608              	.LBI672:
 1609              		.loc 15 272 15 view .LVU384
 1610              		.loc 15 272 15 is_stmt 0 view .LVU385
 1611              	.LBE672:
 1612              	.LBE671:
 1613              	.LBE670:
 1614              	.LBE669:
 1615              	.LBE668:
 1616              	.LBE667:
 1617              	.LBB682:
 1618              	.LBB658:
 1619              	.LBB655:
 1620              	.LBB653:
 1621              	.LBB651:
  69:../../libDaisy//src/per/gpio.h ****         {
 1622              		.loc 14 69 73 view .LVU386
 1623 0036 C2E90244 		strd	r4, r4, [r2, #8]
 1624              	.LBE651:
 1625              	.LBE653:
 1626              	.LBE655:
 1627              	.LBE658:
 1628              	.LBE682:
 1629              	.LBB683:
ARM GAS  /var/folders/hl/qgbwny5j0fd895c2c41bk3tw0000gp/T//ccXwbuCm.s 			page 54


 1630              	.LBB679:
 1631              		.loc 14 74 12 view .LVU387
 1632 003a 3E48     		ldr	r0, .L52+20
 1633              	.LBE679:
 1634              	.LBE683:
 1635              	.LBB684:
 1636              	.LBB685:
 1637 003c 3E4A     		ldr	r2, .L52+24
 1638              	.LBE685:
 1639              	.LBE684:
 1640              	.LBB696:
 1641              	.LBB697:
 1642 003e 3F49     		ldr	r1, .L52+28
 1643              	.LBE697:
 1644              	.LBE696:
 1645              	.LBB707:
 1646              	.LBB693:
 1647 0040 1360     		str	r3, [r2]
 1648              	.LBE693:
 1649              	.LBE707:
 1650              	.LBB708:
 1651              	.LBB680:
 1652              	.LBB677:
 1653              	.LBB675:
 1654              	.LBB673:
  69:../../libDaisy//src/per/gpio.h ****         {
 1655              		.loc 14 69 73 view .LVU388
 1656 0042 C0E90034 		strd	r3, r4, [r0]
 1657              	.LBE673:
 1658              	.LBE675:
 1659              	.LBE677:
 1660              	.LBE680:
 1661              	.LBE708:
 1662              	.LBB709:
 1663              	.LBB705:
 1664              	.LBB698:
 1665              	.LBB699:
 1666              	.LBB700:
 1667 0046 C1E90034 		strd	r3, r4, [r1]
 1668 004a C1E90244 		strd	r4, r4, [r1, #8]
 1669              	.LBE700:
 1670              	.LBE699:
 1671              	.LBE698:
 1672              	.LBE705:
 1673              	.LBE709:
  24:daisy_bed.h   ****     Pin newPinD7 = Pin(static_cast<GPIOPort>(oldPinD7.port), oldPinD7.pin);
 1674              		.loc 11 24 18 view .LVU389
 1675 004e 3C4B     		ldr	r3, .L52+32
  26:daisy_bed.h   ****     Pin newPinA9 = Pin(static_cast<GPIOPort>(oldPinA9.port), oldPinA9.pin);
 1676              		.loc 11 26 18 view .LVU390
 1677 0050 3C49     		ldr	r1, .L52+36
 1678              	.LBB710:
 1679              	.LBB681:
 1680              	.LBB678:
 1681              	.LBB676:
 1682              	.LBB674:
  69:../../libDaisy//src/per/gpio.h ****         {
ARM GAS  /var/folders/hl/qgbwny5j0fd895c2c41bk3tw0000gp/T//ccXwbuCm.s 			page 55


 1683              		.loc 14 69 73 view .LVU391
 1684 0052 C0E90244 		strd	r4, r4, [r0, #8]
 1685              	.LVL98:
  69:../../libDaisy//src/per/gpio.h ****         {
 1686              		.loc 14 69 73 view .LVU392
 1687              	.LBE674:
 1688              	.LBE676:
 1689              	.LBE678:
 1690              	.LBE681:
 1691              	.LBE710:
 1692              	.LBB711:
 1693              	.LBI645:
 1694              		.loc 14 74 5 is_stmt 1 view .LVU393
 1695              	.LBB659:
 1696              	.LBB656:
 1697              	.LBI647:
  68:../../libDaisy//src/per/gpio.h ****         : pin(), mode(Mode::INPUT), pull(Pull::NOPULL), speed(Speed::LOW)
 1698              		.loc 14 68 9 view .LVU394
 1699              	.LBB654:
 1700              	.LBB652:
 1701              	.LBB650:
 1702              	.LBI650:
 1703              		.loc 15 272 15 view .LVU395
 1704              		.loc 15 272 15 is_stmt 0 view .LVU396
 1705              	.LBE650:
 1706              	.LBE652:
 1707              	.LBE654:
 1708              	.LBE656:
 1709              	.LBE659:
 1710              	.LBE711:
 1711              	.LBB712:
 1712              	.LBI696:
 1713              		.loc 14 74 5 is_stmt 1 view .LVU397
 1714              	.LBB706:
 1715              	.LBB704:
 1716              	.LBI698:
  68:../../libDaisy//src/per/gpio.h ****         : pin(), mode(Mode::INPUT), pull(Pull::NOPULL), speed(Speed::LOW)
 1717              		.loc 14 68 9 view .LVU398
 1718              	.LBB703:
 1719              	.LBB702:
 1720              	.LBB701:
 1721              	.LBI701:
 1722              		.loc 15 272 15 view .LVU399
 1723              		.loc 15 272 15 is_stmt 0 view .LVU400
 1724              	.LBE701:
 1725              	.LBE702:
 1726              	.LBE703:
 1727              	.LBE704:
 1728              	.LBE706:
 1729              	.LBE712:
 1730              	.LBB713:
 1731              	.LBI684:
 1732              		.loc 14 74 5 is_stmt 1 view .LVU401
 1733              	.LBB694:
 1734              	.LBB686:
 1735              	.LBI686:
  68:../../libDaisy//src/per/gpio.h ****         : pin(), mode(Mode::INPUT), pull(Pull::NOPULL), speed(Speed::LOW)
ARM GAS  /var/folders/hl/qgbwny5j0fd895c2c41bk3tw0000gp/T//ccXwbuCm.s 			page 56


 1736              		.loc 14 68 9 view .LVU402
 1737              	.LBB687:
 1738              	.LBB688:
 1739              	.LBB689:
 1740              	.LBI689:
 1741              		.loc 15 272 15 view .LVU403
 1742              		.loc 15 272 15 is_stmt 0 view .LVU404
 1743              	.LBE689:
  69:../../libDaisy//src/per/gpio.h ****         {
 1744              		.loc 14 69 73 view .LVU405
 1745 0056 C2E90144 		strd	r4, r4, [r2, #4]
 1746              	.LBE688:
 1747              	.LBE687:
 1748              	.LBE686:
 1749              	.LBE694:
 1750              	.LBE713:
  24:daisy_bed.h   ****     Pin newPinD7 = Pin(static_cast<GPIOPort>(oldPinD7.port), oldPinD7.pin);
 1751              		.loc 11 24 18 view .LVU406
 1752 005a 3B48     		ldr	r0, .L52+40
 1753              	.LBB714:
 1754              	.LBB695:
 1755              	.LBB692:
 1756              	.LBB691:
 1757              	.LBB690:
  69:../../libDaisy//src/per/gpio.h ****         {
 1758              		.loc 14 69 73 view .LVU407
 1759 005c D460     		str	r4, [r2, #12]
 1760              	.LVL99:
  69:../../libDaisy//src/per/gpio.h ****         {
 1761              		.loc 14 69 73 view .LVU408
 1762              	.LBE690:
 1763              	.LBE691:
 1764              	.LBE692:
 1765              	.LBE695:
 1766              	.LBE714:
  24:daisy_bed.h   ****     Pin newPinD7 = Pin(static_cast<GPIOPort>(oldPinD7.port), oldPinD7.pin);
 1767              		.loc 11 24 18 view .LVU409
 1768 005e 1D88     		ldrh	r5, [r3]	@ unaligned
  26:daisy_bed.h   ****     Pin newPinA9 = Pin(static_cast<GPIOPort>(oldPinA9.port), oldPinA9.pin);
 1769              		.loc 11 26 18 view .LVU410
 1770 0060 0988     		ldrh	r1, [r1]	@ unaligned
 1771 0062 3A4B     		ldr	r3, .L52+44
  24:daisy_bed.h   ****     Pin newPinD7 = Pin(static_cast<GPIOPort>(oldPinD7.port), oldPinD7.pin);
 1772              		.loc 11 24 18 view .LVU411
 1773 0064 0580     		strh	r5, [r0]	@ unaligned
  26:daisy_bed.h   ****     Pin newPinA9 = Pin(static_cast<GPIOPort>(oldPinA9.port), oldPinA9.pin);
 1774              		.loc 11 26 18 view .LVU412
 1775 0066 1980     		strh	r1, [r3]	@ unaligned
 1776              	.LBB715:
 1777              	.LBB716:
 1778              	.LBB717:
 269:../../libDaisy//src/daisy_core.h **** 
 1779              		.loc 15 269 74 view .LVU413
 1780 0068 394A     		ldr	r2, .L52+48
 1781              	.LBE717:
 1782              	.LBE716:
 1783              	.LBE715:
ARM GAS  /var/folders/hl/qgbwny5j0fd895c2c41bk3tw0000gp/T//ccXwbuCm.s 			page 57


  25:daisy_bed.h   ****     dsy_gpio_pin oldPinA9 = DaisyPatchSM::A9;
 1784              		.loc 11 25 55 view .LVU414
 1785 006a 0188     		ldrh	r1, [r0]
 1786              	.LVL100:
 1787              	.LBB720:
 1788              	.LBI715:
 269:../../libDaisy//src/daisy_core.h **** 
 1789              		.loc 15 269 15 is_stmt 1 view .LVU415
 1790              	.LBE720:
  32:daisy_bed.h   ****     Pin newPinD1 = Pin(static_cast<GPIOPort>(oldPinD1.port), oldPinD1.pin);
 1791              		.loc 11 32 18 is_stmt 0 view .LVU416
 1792 006c 3948     		ldr	r0, .L52+52
 1793              	.LBB721:
 1794              	.LBB719:
 1795              	.LBB718:
 269:../../libDaisy//src/daisy_core.h **** 
 1796              		.loc 15 269 74 view .LVU417
 1797 006e 1180     		strh	r1, [r2]	@ movhi
 1798              	.LVL101:
 269:../../libDaisy//src/daisy_core.h **** 
 1799              		.loc 15 269 74 view .LVU418
 1800              	.LBE718:
 1801              	.LBE719:
 1802              	.LBE721:
  30:daisy_bed.h   ****     Pin newPinD2 = Pin(static_cast<GPIOPort>(oldPinD2.port), oldPinD2.pin);
 1803              		.loc 11 30 18 view .LVU419
 1804 0070 3949     		ldr	r1, .L52+56
  32:daisy_bed.h   ****     Pin newPinD1 = Pin(static_cast<GPIOPort>(oldPinD1.port), oldPinD1.pin);
 1805              		.loc 11 32 18 view .LVU420
 1806 0072 0088     		ldrh	r0, [r0]	@ unaligned
  30:daisy_bed.h   ****     Pin newPinD2 = Pin(static_cast<GPIOPort>(oldPinD2.port), oldPinD2.pin);
 1807              		.loc 11 30 18 view .LVU421
 1808 0074 0D88     		ldrh	r5, [r1]	@ unaligned
  27:daisy_bed.h   **** 
 1809              		.loc 11 27 55 view .LVU422
 1810 0076 1988     		ldrh	r1, [r3]
 1811              	.LVL102:
 1812              	.LBB722:
 1813              	.LBI722:
 269:../../libDaisy//src/daisy_core.h **** 
 1814              		.loc 15 269 15 is_stmt 1 view .LVU423
 1815              	.LBB723:
 1816              	.LBB724:
 269:../../libDaisy//src/daisy_core.h **** 
 1817              		.loc 15 269 74 is_stmt 0 view .LVU424
 1818 0078 384B     		ldr	r3, .L52+60
 1819              	.LBE724:
 1820              	.LBE723:
 1821              	.LBE722:
  30:daisy_bed.h   ****     Pin newPinD2 = Pin(static_cast<GPIOPort>(oldPinD2.port), oldPinD2.pin);
 1822              		.loc 11 30 18 view .LVU425
 1823 007a 394A     		ldr	r2, .L52+64
 1824              	.LBB727:
 1825              	.LBB726:
 1826              	.LBB725:
 269:../../libDaisy//src/daisy_core.h **** 
 1827              		.loc 15 269 74 view .LVU426
ARM GAS  /var/folders/hl/qgbwny5j0fd895c2c41bk3tw0000gp/T//ccXwbuCm.s 			page 58


 1828 007c 1980     		strh	r1, [r3]	@ movhi
 1829              	.LVL103:
 269:../../libDaisy//src/daisy_core.h **** 
 1830              		.loc 15 269 74 view .LVU427
 1831              	.LBE725:
 1832              	.LBE726:
 1833              	.LBE727:
  32:daisy_bed.h   ****     Pin newPinD1 = Pin(static_cast<GPIOPort>(oldPinD1.port), oldPinD1.pin);
 1834              		.loc 11 32 18 view .LVU428
 1835 007e 394B     		ldr	r3, .L52+68
  30:daisy_bed.h   ****     Pin newPinD2 = Pin(static_cast<GPIOPort>(oldPinD2.port), oldPinD2.pin);
 1836              		.loc 11 30 18 view .LVU429
 1837 0080 1580     		strh	r5, [r2]	@ unaligned
  32:daisy_bed.h   ****     Pin newPinD1 = Pin(static_cast<GPIOPort>(oldPinD1.port), oldPinD1.pin);
 1838              		.loc 11 32 18 view .LVU430
 1839 0082 1880     		strh	r0, [r3]	@ unaligned
  31:daisy_bed.h   ****     dsy_gpio_pin oldPinD1 = DaisyPatchSM::D1;
 1840              		.loc 11 31 55 view .LVU431
 1841 0084 1288     		ldrh	r2, [r2]
 1842              	.LVL104:
 1843              	.LBB728:
 1844              	.LBI728:
 269:../../libDaisy//src/daisy_core.h **** 
 1845              		.loc 15 269 15 is_stmt 1 view .LVU432
 1846              	.LBE728:
  33:daisy_bed.h   ****     // ^^^ {DSY_GPIOB, 4},  /**< D1  - SPI2 CS */
 1847              		.loc 11 33 55 is_stmt 0 view .LVU433
 1848 0086 1D88     		ldrh	r5, [r3]
 1849              	.LBB733:
 1850              	.LBB729:
 1851              	.LBB730:
 269:../../libDaisy//src/daisy_core.h **** 
 1852              		.loc 15 269 74 view .LVU434
 1853 0088 374B     		ldr	r3, .L52+72
 1854              	.LBE730:
 1855              	.LBE729:
 1856              	.LBE733:
  37:daisy_bed.h   ****     Pin newPinD3 = Pin(static_cast<GPIOPort>(oldPinD3.port), oldPinD3.pin);
 1857              		.loc 11 37 18 view .LVU435
 1858 008a 3849     		ldr	r1, .L52+76
 1859              	.LBB734:
 1860              	.LBB732:
 1861              	.LBB731:
 269:../../libDaisy//src/daisy_core.h **** 
 1862              		.loc 15 269 74 view .LVU436
 1863 008c 1A80     		strh	r2, [r3]	@ movhi
 1864              	.LVL105:
 269:../../libDaisy//src/daisy_core.h **** 
 1865              		.loc 15 269 74 view .LVU437
 1866              	.LBE731:
 1867              	.LBE732:
 1868              	.LBE734:
 1869              	.LBB735:
 1870              	.LBI735:
 269:../../libDaisy//src/daisy_core.h **** 
 1871              		.loc 15 269 15 is_stmt 1 view .LVU438
 1872              	.LBE735:
ARM GAS  /var/folders/hl/qgbwny5j0fd895c2c41bk3tw0000gp/T//ccXwbuCm.s 			page 59


  39:daisy_bed.h   ****     Pin newPinD6 = Pin(static_cast<GPIOPort>(oldPinD6.port), oldPinD6.pin);
 1873              		.loc 11 39 18 is_stmt 0 view .LVU439
 1874 008e 384B     		ldr	r3, .L52+80
  37:daisy_bed.h   ****     Pin newPinD3 = Pin(static_cast<GPIOPort>(oldPinD3.port), oldPinD3.pin);
 1875              		.loc 11 37 18 view .LVU440
 1876 0090 B1F800E0 		ldrh	lr, [r1]	@ unaligned
  39:daisy_bed.h   ****     Pin newPinD6 = Pin(static_cast<GPIOPort>(oldPinD6.port), oldPinD6.pin);
 1877              		.loc 11 39 18 view .LVU441
 1878 0094 B3F800C0 		ldrh	ip, [r3]	@ unaligned
  41:daisy_bed.h   ****     Pin newPinD4 = Pin(static_cast<GPIOPort>(oldPinD4.port), oldPinD4.pin);
 1879              		.loc 11 41 18 view .LVU442
 1880 0098 364B     		ldr	r3, .L52+84
 1881              	.LBB740:
 1882              	.LBB741:
 1883              	.LBB742:
 269:../../libDaisy//src/daisy_core.h **** 
 1884              		.loc 15 269 74 view .LVU443
 1885 009a 3748     		ldr	r0, .L52+88
 1886              	.LBE742:
 1887              	.LBE741:
 1888              	.LBE740:
  41:daisy_bed.h   ****     Pin newPinD4 = Pin(static_cast<GPIOPort>(oldPinD4.port), oldPinD4.pin);
 1889              		.loc 11 41 18 view .LVU444
 1890 009c 1988     		ldrh	r1, [r3]	@ unaligned
  43:daisy_bed.h   ****     Pin newPinD5 = Pin(static_cast<GPIOPort>(oldPinD5.port), oldPinD5.pin);
 1891              		.loc 11 43 18 view .LVU445
 1892 009e 374B     		ldr	r3, .L52+92
 1893 00a0 1A88     		ldrh	r2, [r3]	@ unaligned
  37:daisy_bed.h   ****     Pin newPinD3 = Pin(static_cast<GPIOPort>(oldPinD3.port), oldPinD3.pin);
 1894              		.loc 11 37 18 view .LVU446
 1895 00a2 374B     		ldr	r3, .L52+96
 1896 00a4 A3F800E0 		strh	lr, [r3]	@ unaligned
  38:daisy_bed.h   ****     dsy_gpio_pin oldPinD6 = DaisyPatchSM::D6;
 1897              		.loc 11 38 55 view .LVU447
 1898 00a8 B3F800E0 		ldrh	lr, [r3]
  39:daisy_bed.h   ****     Pin newPinD6 = Pin(static_cast<GPIOPort>(oldPinD6.port), oldPinD6.pin);
 1899              		.loc 11 39 18 view .LVU448
 1900 00ac 354B     		ldr	r3, .L52+100
 1901 00ae A3F800C0 		strh	ip, [r3]	@ unaligned
  40:daisy_bed.h   ****     dsy_gpio_pin oldPinD4 = DaisyPatchSM::D4;
 1902              		.loc 11 40 55 view .LVU449
 1903 00b2 1B88     		ldrh	r3, [r3]
 1904              	.LBB745:
 1905              	.LBB744:
 1906              	.LBB743:
 269:../../libDaisy//src/daisy_core.h **** 
 1907              		.loc 15 269 74 view .LVU450
 1908 00b4 0380     		strh	r3, [r0]	@ movhi
 1909              	.LBE743:
 1910              	.LBE744:
 1911              	.LBE745:
  41:daisy_bed.h   ****     Pin newPinD4 = Pin(static_cast<GPIOPort>(oldPinD4.port), oldPinD4.pin);
 1912              		.loc 11 41 18 view .LVU451
 1913 00b6 344B     		ldr	r3, .L52+104
 1914 00b8 1980     		strh	r1, [r3]	@ unaligned
  42:daisy_bed.h   ****     dsy_gpio_pin oldPinD5 = DaisyPatchSM::D5;
 1915              		.loc 11 42 55 view .LVU452
ARM GAS  /var/folders/hl/qgbwny5j0fd895c2c41bk3tw0000gp/T//ccXwbuCm.s 			page 60


 1916 00ba B3F800C0 		ldrh	ip, [r3]
  43:daisy_bed.h   ****     Pin newPinD5 = Pin(static_cast<GPIOPort>(oldPinD5.port), oldPinD5.pin);
 1917              		.loc 11 43 18 view .LVU453
 1918 00be 334B     		ldr	r3, .L52+108
  49:daisy_bed.h   **** 
 1919              		.loc 11 49 17 view .LVU454
 1920 00c0 3349     		ldr	r1, .L52+112
  43:daisy_bed.h   ****     Pin newPinD5 = Pin(static_cast<GPIOPort>(oldPinD5.port), oldPinD5.pin);
 1921              		.loc 11 43 18 view .LVU455
 1922 00c2 1A80     		strh	r2, [r3]	@ unaligned
  44:daisy_bed.h   **** 
 1923              		.loc 11 44 55 view .LVU456
 1924 00c4 1888     		ldrh	r0, [r3]
 1925              	.LBB746:
 1926              	.LBB736:
 1927              	.LBB737:
 269:../../libDaisy//src/daisy_core.h **** 
 1928              		.loc 15 269 74 view .LVU457
 1929 00c6 334B     		ldr	r3, .L52+116
 1930              	.LBE737:
 1931              	.LBE736:
 1932              	.LBE746:
  49:daisy_bed.h   **** 
 1933              		.loc 11 49 17 view .LVU458
 1934 00c8 334A     		ldr	r2, .L52+120
 1935              	.LBB747:
 1936              	.LBB739:
 1937              	.LBB738:
 269:../../libDaisy//src/daisy_core.h **** 
 1938              		.loc 15 269 74 view .LVU459
 1939 00ca 1D80     		strh	r5, [r3]	@ movhi
 1940              	.LVL106:
 269:../../libDaisy//src/daisy_core.h **** 
 1941              		.loc 15 269 74 view .LVU460
 1942              	.LBE738:
 1943              	.LBE739:
 1944              	.LBE747:
 1945              	.LBB748:
 1946              	.LBI748:
 269:../../libDaisy//src/daisy_core.h **** 
 1947              		.loc 15 269 15 is_stmt 1 view .LVU461
 1948              	.LBB749:
 1949              	.LBB750:
 269:../../libDaisy//src/daisy_core.h **** 
 1950              		.loc 15 269 74 is_stmt 0 view .LVU462
 1951 00cc 334B     		ldr	r3, .L52+124
 1952 00ce A3F800E0 		strh	lr, [r3]	@ movhi
 1953              	.LVL107:
 269:../../libDaisy//src/daisy_core.h **** 
 1954              		.loc 15 269 74 view .LVU463
 1955              	.LBE750:
 1956              	.LBE749:
 1957              	.LBE748:
 1958              	.LBB751:
 1959              	.LBI740:
 269:../../libDaisy//src/daisy_core.h **** 
 1960              		.loc 15 269 15 is_stmt 1 view .LVU464
ARM GAS  /var/folders/hl/qgbwny5j0fd895c2c41bk3tw0000gp/T//ccXwbuCm.s 			page 61


 269:../../libDaisy//src/daisy_core.h **** 
 1961              		.loc 15 269 15 is_stmt 0 view .LVU465
 1962              	.LBE751:
 1963              	.LBB752:
 1964              	.LBI752:
 269:../../libDaisy//src/daisy_core.h **** 
 1965              		.loc 15 269 15 is_stmt 1 view .LVU466
 1966              	.LBB753:
 1967              	.LBB754:
 269:../../libDaisy//src/daisy_core.h **** 
 1968              		.loc 15 269 74 is_stmt 0 view .LVU467
 1969 00d2 334B     		ldr	r3, .L52+128
 1970 00d4 A3F800C0 		strh	ip, [r3]	@ movhi
 1971              	.LVL108:
 269:../../libDaisy//src/daisy_core.h **** 
 1972              		.loc 15 269 74 view .LVU468
 1973              	.LBE754:
 1974              	.LBE753:
 1975              	.LBE752:
 1976              	.LBB755:
 1977              	.LBI755:
 269:../../libDaisy//src/daisy_core.h **** 
 1978              		.loc 15 269 15 is_stmt 1 view .LVU469
 1979              	.LBB756:
 1980              	.LBB757:
 269:../../libDaisy//src/daisy_core.h **** 
 1981              		.loc 15 269 74 is_stmt 0 view .LVU470
 1982 00d8 324B     		ldr	r3, .L52+132
 1983 00da 1880     		strh	r0, [r3]	@ movhi
 1984              	.LVL109:
 269:../../libDaisy//src/daisy_core.h **** 
 1985              		.loc 15 269 74 view .LVU471
 1986              	.LBE757:
 1987              	.LBE756:
 1988              	.LBE755:
 1989              	.LBB758:
 1990              	.LBI758:
  41:../../libDaisy//src/hid/switch.h ****     ~Switch() {}
 1991              		.loc 1 41 5 is_stmt 1 view .LVU472
  41:../../libDaisy//src/hid/switch.h ****     ~Switch() {}
 1992              		.loc 1 41 5 is_stmt 0 view .LVU473
 1993              	.LBE758:
  49:daisy_bed.h   **** 
 1994              		.loc 11 49 17 view .LVU474
 1995 00dc 3248     		ldr	r0, .L52+136
 1996 00de FFF7FEFF 		bl	__aeabi_atexit
 1997              	.LVL110:
 1998              	.LBB759:
 1999              	.LBI759:
  41:../../libDaisy//src/hid/switch.h ****     ~Switch() {}
 2000              		.loc 1 41 5 is_stmt 1 view .LVU475
  41:../../libDaisy//src/hid/switch.h ****     ~Switch() {}
 2001              		.loc 1 41 5 is_stmt 0 view .LVU476
 2002              	.LBE759:
  49:daisy_bed.h   **** 
 2003              		.loc 11 49 20 view .LVU477
 2004 00e2 2D4A     		ldr	r2, .L52+120
ARM GAS  /var/folders/hl/qgbwny5j0fd895c2c41bk3tw0000gp/T//ccXwbuCm.s 			page 62


 2005 00e4 2A49     		ldr	r1, .L52+112
 2006 00e6 3148     		ldr	r0, .L52+140
 2007 00e8 FFF7FEFF 		bl	__aeabi_atexit
 2008              	.LVL111:
 2009              	.LBB760:
 2010              	.LBI760:
  64:../../libDaisy//src/daisy_patch_sm.h ****         ~DaisyPatchSM() {}
 2011              		.loc 2 64 9 is_stmt 1 view .LVU478
 2012              	.LBB761:
 2013              	.LBB762:
 2014              	.LBI762:
  77:../../libDaisy//src/sys/system.h ****     ~System() {}
 2015              		.loc 8 77 5 view .LVU479
  77:../../libDaisy//src/sys/system.h ****     ~System() {}
 2016              		.loc 8 77 5 is_stmt 0 view .LVU480
 2017              	.LBE762:
 2018              	.LBB763:
 2019              	.LBI763:
 2020              		.file 16 "../../libDaisy//src/per/qspi.h"
   1:../../libDaisy//src/per/qspi.h **** #ifndef DSY_QSPI
   2:../../libDaisy//src/per/qspi.h **** #define DSY_QSPI /**< Macro */
   3:../../libDaisy//src/per/qspi.h **** 
   4:../../libDaisy//src/per/qspi.h **** #ifndef UNIT_TEST // for unit tests, a dummy implementation
   5:../../libDaisy//src/per/qspi.h **** 
   6:../../libDaisy//src/per/qspi.h **** #include <cstdint>
   7:../../libDaisy//src/per/qspi.h **** #include "daisy_core.h" // Added for dsy_gpio_pin typedef
   8:../../libDaisy//src/per/qspi.h **** 
   9:../../libDaisy//src/per/qspi.h **** #define DSY_QSPI_TEXT       \
  10:../../libDaisy//src/per/qspi.h ****     __attribute__((section( \
  11:../../libDaisy//src/per/qspi.h ****         ".qspiflash_text"))) /**< used for reading memory in memory_mapped mode. */
  12:../../libDaisy//src/per/qspi.h **** #define DSY_QSPI_DATA       \
  13:../../libDaisy//src/per/qspi.h ****     __attribute__((section( \
  14:../../libDaisy//src/per/qspi.h ****         ".qspiflash_data"))) /**< used for reading memory in memory_mapped mode. */
  15:../../libDaisy//src/per/qspi.h **** #define DSY_QSPI_BSS        \
  16:../../libDaisy//src/per/qspi.h ****     __attribute__((section( \
  17:../../libDaisy//src/per/qspi.h ****         ".qspiflash_bss"))) /**< used for reading memory in memory_mapped mode. */
  18:../../libDaisy//src/per/qspi.h **** 
  19:../../libDaisy//src/per/qspi.h **** namespace daisy
  20:../../libDaisy//src/per/qspi.h **** {
  21:../../libDaisy//src/per/qspi.h **** /** @addtogroup serial
  22:../../libDaisy//src/per/qspi.h **** @{
  23:../../libDaisy//src/per/qspi.h **** */
  24:../../libDaisy//src/per/qspi.h **** 
  25:../../libDaisy//src/per/qspi.h **** /** 
  26:../../libDaisy//src/per/qspi.h ****  Driver for QSPI peripheral to interface with external flash memory. \n 
  27:../../libDaisy//src/per/qspi.h ****     Currently supported QSPI Devices: \n 
  28:../../libDaisy//src/per/qspi.h ****     * IS25LP080D
  29:../../libDaisy//src/per/qspi.h **** */
  30:../../libDaisy//src/per/qspi.h **** class QSPIHandle
  31:../../libDaisy//src/per/qspi.h **** {
  32:../../libDaisy//src/per/qspi.h ****   public:
  33:../../libDaisy//src/per/qspi.h ****     enum Result
  34:../../libDaisy//src/per/qspi.h ****     {
  35:../../libDaisy//src/per/qspi.h ****         OK = 0,
  36:../../libDaisy//src/per/qspi.h ****         ERR
  37:../../libDaisy//src/per/qspi.h ****     };
  38:../../libDaisy//src/per/qspi.h **** 
ARM GAS  /var/folders/hl/qgbwny5j0fd895c2c41bk3tw0000gp/T//ccXwbuCm.s 			page 63


  39:../../libDaisy//src/per/qspi.h ****     /** Indicates the current status of the module. 
  40:../../libDaisy//src/per/qspi.h ****          *  Warnings are indicated by a leading W.
  41:../../libDaisy//src/per/qspi.h ****          *  Errors are indicated by a leading E and cause an immediate exit.
  42:../../libDaisy//src/per/qspi.h ****          * 
  43:../../libDaisy//src/per/qspi.h ****          *  \param GOOD - No errors have been reported.
  44:../../libDaisy//src/per/qspi.h ****          *  \param E_HAL_ERROR - HAL code did not return HAL_OK.
  45:../../libDaisy//src/per/qspi.h ****          *  \param E_SWITCHING_MODES - An error was encountered while switching QSPI peripheral mod
  46:../../libDaisy//src/per/qspi.h ****          *  \param E_INVALID_MODE - QSPI should not be written to while the program is executing fr
  47:../../libDaisy//src/per/qspi.h ****          */
  48:../../libDaisy//src/per/qspi.h ****     enum Status
  49:../../libDaisy//src/per/qspi.h ****     {
  50:../../libDaisy//src/per/qspi.h ****         GOOD = 0,
  51:../../libDaisy//src/per/qspi.h ****         E_HAL_ERROR,
  52:../../libDaisy//src/per/qspi.h ****         E_SWITCHING_MODES,
  53:../../libDaisy//src/per/qspi.h ****         E_INVALID_MODE,
  54:../../libDaisy//src/per/qspi.h ****     };
  55:../../libDaisy//src/per/qspi.h **** 
  56:../../libDaisy//src/per/qspi.h ****     /** Configuration structure for interfacing with QSPI Driver */
  57:../../libDaisy//src/per/qspi.h ****     struct Config
  58:../../libDaisy//src/per/qspi.h ****     {
  59:../../libDaisy//src/per/qspi.h ****         /** Flash Devices supported. (Both of these are more-or-less the same, just different sizes
  60:../../libDaisy//src/per/qspi.h ****         enum Device
  61:../../libDaisy//src/per/qspi.h ****         {
  62:../../libDaisy//src/per/qspi.h ****             IS25LP080D,  /**< & */
  63:../../libDaisy//src/per/qspi.h ****             IS25LP064A,  /**< & */
  64:../../libDaisy//src/per/qspi.h ****             DEVICE_LAST, /**< & */
  65:../../libDaisy//src/per/qspi.h ****         };
  66:../../libDaisy//src/per/qspi.h **** 
  67:../../libDaisy//src/per/qspi.h ****         /** 
  68:../../libDaisy//src/per/qspi.h ****         Modes of operation.
  69:../../libDaisy//src/per/qspi.h ****         Memory Mapped mode: QSPI configured so that the QSPI can be
  70:../../libDaisy//src/per/qspi.h ****         read from starting address 0x90000000. Writing is not
  71:../../libDaisy//src/per/qspi.h ****         possible in this mode. \n 
  72:../../libDaisy//src/per/qspi.h ****         Indirect Polling mode: Device driver enabled. 
  73:../../libDaisy//src/per/qspi.h ****         */
  74:../../libDaisy//src/per/qspi.h ****         enum Mode
  75:../../libDaisy//src/per/qspi.h ****         {
  76:../../libDaisy//src/per/qspi.h ****             MEMORY_MAPPED,    /**< & */
  77:../../libDaisy//src/per/qspi.h ****             INDIRECT_POLLING, /**< & */
  78:../../libDaisy//src/per/qspi.h ****             MODE_LAST,
  79:../../libDaisy//src/per/qspi.h ****         };
  80:../../libDaisy//src/per/qspi.h **** 
  81:../../libDaisy//src/per/qspi.h ****         //SCK,  CE# (active low)
  82:../../libDaisy//src/per/qspi.h ****         struct
  83:../../libDaisy//src/per/qspi.h ****         {
  84:../../libDaisy//src/per/qspi.h ****             dsy_gpio_pin io0; /**< & */
  85:../../libDaisy//src/per/qspi.h ****             dsy_gpio_pin io1; /**< & */
  86:../../libDaisy//src/per/qspi.h ****             dsy_gpio_pin io2; /**< & */
  87:../../libDaisy//src/per/qspi.h ****             dsy_gpio_pin io3; /**< & */
  88:../../libDaisy//src/per/qspi.h ****             dsy_gpio_pin clk; /**< & */
  89:../../libDaisy//src/per/qspi.h ****             dsy_gpio_pin ncs; /**< & */
  90:../../libDaisy//src/per/qspi.h ****         } pin_config;
  91:../../libDaisy//src/per/qspi.h **** 
  92:../../libDaisy//src/per/qspi.h ****         Device device;
  93:../../libDaisy//src/per/qspi.h ****         Mode   mode;
  94:../../libDaisy//src/per/qspi.h ****     };
  95:../../libDaisy//src/per/qspi.h **** 
ARM GAS  /var/folders/hl/qgbwny5j0fd895c2c41bk3tw0000gp/T//ccXwbuCm.s 			page 64


  96:../../libDaisy//src/per/qspi.h ****     /** 
  97:../../libDaisy//src/per/qspi.h ****         Initializes QSPI peripheral, and Resets, and prepares memory for access.
  98:../../libDaisy//src/per/qspi.h ****         \param config should be populated with the mode, device and pin_config before calling this 
  99:../../libDaisy//src/per/qspi.h ****         \return Result::OK or Result::ERR
 100:../../libDaisy//src/per/qspi.h ****         */
 101:../../libDaisy//src/per/qspi.h ****     Result Init(const Config& config);
 102:../../libDaisy//src/per/qspi.h **** 
 103:../../libDaisy//src/per/qspi.h ****     /** Returns the current config. */
 104:../../libDaisy//src/per/qspi.h ****     const Config& GetConfig() const;
 105:../../libDaisy//src/per/qspi.h **** 
 106:../../libDaisy//src/per/qspi.h ****     // Couldn't this just be called before anything else in init? That
 107:../../libDaisy//src/per/qspi.h ****     // would make manually calling it unnecessary.
 108:../../libDaisy//src/per/qspi.h ****     /** 
 109:../../libDaisy//src/per/qspi.h ****         Deinitializes the peripheral
 110:../../libDaisy//src/per/qspi.h ****         This should be called before reinitializing QSPI in a different mode.
 111:../../libDaisy//src/per/qspi.h ****         \return Result::OK or Result::ERR
 112:../../libDaisy//src/per/qspi.h ****         */
 113:../../libDaisy//src/per/qspi.h ****     Result DeInit();
 114:../../libDaisy//src/per/qspi.h **** 
 115:../../libDaisy//src/per/qspi.h ****     /** 
 116:../../libDaisy//src/per/qspi.h ****         Writes a single page to to the specified address on the QSPI chip.
 117:../../libDaisy//src/per/qspi.h ****         For IS25LP*, page size is 256 bytes.
 118:../../libDaisy//src/per/qspi.h ****         \param address Address to write to
 119:../../libDaisy//src/per/qspi.h ****         \param size Buffer size
 120:../../libDaisy//src/per/qspi.h ****         \param buffer Buffer to write
 121:../../libDaisy//src/per/qspi.h ****         \return Result::OK or Result::ERR
 122:../../libDaisy//src/per/qspi.h ****         */
 123:../../libDaisy//src/per/qspi.h ****     Result WritePage(uint32_t address, uint32_t size, uint8_t* buffer);
 124:../../libDaisy//src/per/qspi.h **** 
 125:../../libDaisy//src/per/qspi.h ****     /** 
 126:../../libDaisy//src/per/qspi.h ****         Writes data in buffer to to the QSPI. Starting at address to address+size 
 127:../../libDaisy//src/per/qspi.h ****         \param address Address to write to
 128:../../libDaisy//src/per/qspi.h ****         \param size Buffer size
 129:../../libDaisy//src/per/qspi.h ****         \param buffer Buffer to write
 130:../../libDaisy//src/per/qspi.h ****         \return Result::OK or Result::ERR
 131:../../libDaisy//src/per/qspi.h ****         */
 132:../../libDaisy//src/per/qspi.h ****     Result Write(uint32_t address, uint32_t size, uint8_t* buffer);
 133:../../libDaisy//src/per/qspi.h **** 
 134:../../libDaisy//src/per/qspi.h ****     /** 
 135:../../libDaisy//src/per/qspi.h ****         Erases the area specified on the chip.
 136:../../libDaisy//src/per/qspi.h ****         Erasures will happen by 4K, 32K or 64K increments.
 137:../../libDaisy//src/per/qspi.h ****         Smallest erase possible is 4kB at a time. (on IS25LP*)
 138:../../libDaisy//src/per/qspi.h ****         \param start_addr Address to begin erasing from
 139:../../libDaisy//src/per/qspi.h ****         \param end_addr  Address to stop erasing at
 140:../../libDaisy//src/per/qspi.h ****         \return Result::OK or Result::ERR
 141:../../libDaisy//src/per/qspi.h ****         */
 142:../../libDaisy//src/per/qspi.h ****     Result Erase(uint32_t start_addr, uint32_t end_addr);
 143:../../libDaisy//src/per/qspi.h **** 
 144:../../libDaisy//src/per/qspi.h ****     /**  
 145:../../libDaisy//src/per/qspi.h ****          Erases a single sector of the chip.  
 146:../../libDaisy//src/per/qspi.h ****         TODO: Document the size of this function. 
 147:../../libDaisy//src/per/qspi.h ****         \param address Address of sector to erase
 148:../../libDaisy//src/per/qspi.h ****         \return Result::OK or Result::ERR
 149:../../libDaisy//src/per/qspi.h ****         */
 150:../../libDaisy//src/per/qspi.h ****     Result EraseSector(uint32_t address);
 151:../../libDaisy//src/per/qspi.h **** 
 152:../../libDaisy//src/per/qspi.h ****     /** Returns the current class status. Useful for debugging.
ARM GAS  /var/folders/hl/qgbwny5j0fd895c2c41bk3tw0000gp/T//ccXwbuCm.s 			page 65


 153:../../libDaisy//src/per/qspi.h ****      *  \returns Status
 154:../../libDaisy//src/per/qspi.h ****      */
 155:../../libDaisy//src/per/qspi.h ****     Status GetStatus();
 156:../../libDaisy//src/per/qspi.h **** 
 157:../../libDaisy//src/per/qspi.h ****     /** Returns a pointer to the actual memory used 
 158:../../libDaisy//src/per/qspi.h ****      *  The memory at this address is read-only
 159:../../libDaisy//src/per/qspi.h ****      *  to write to it use the Write function.
 160:../../libDaisy//src/per/qspi.h ****      * 
 161:../../libDaisy//src/per/qspi.h ****      *  \param offset returns the pointer starting this 
 162:../../libDaisy//src/per/qspi.h ****      *                many bytes into the memory
 163:../../libDaisy//src/per/qspi.h ****     */
 164:../../libDaisy//src/per/qspi.h ****     void* GetData(uint32_t offset = 0);
 165:../../libDaisy//src/per/qspi.h **** 
 166:../../libDaisy//src/per/qspi.h ****     QSPIHandle() : pimpl_(nullptr) {}
 2021              		.loc 16 166 5 is_stmt 1 view .LVU481
 2022              	.LBB764:
 2023              	.LBB765:
 2024              		.loc 16 166 34 is_stmt 0 view .LVU482
 2025 00ec 3048     		ldr	r0, .L52+144
 2026              	.LBE765:
 2027              	.LBE764:
 2028              	.LBE763:
 2029              	.LBE761:
 2030              	.LBE760:
   9:DualSequencer.cpp **** DaisyPatchSM 	hw;
 2031              		.loc 10 9 15 view .LVU483
 2032 00ee 3149     		ldr	r1, .L52+148
 2033 00f0 294A     		ldr	r2, .L52+120
 2034              	.LBB787:
 2035              	.LBB785:
 2036              	.LBB766:
 2037              	.LBB767:
 2038              	.LBB768:
 2039              	.LBB769:
 2040              	.LBB770:
 2041              		.file 17 "../../libDaisy//src/per/i2c.h"
   1:../../libDaisy//src/per/i2c.h **** #pragma once
   2:../../libDaisy//src/per/i2c.h **** #include "daisy_core.h"
   3:../../libDaisy//src/per/i2c.h **** 
   4:../../libDaisy//src/per/i2c.h **** namespace daisy
   5:../../libDaisy//src/per/i2c.h **** {
   6:../../libDaisy//src/per/i2c.h **** /** A handle for interacting with an I2C peripheral. This is a dumb
   7:../../libDaisy//src/per/i2c.h ****  *  gateway that internally points to one of the four I2C peripherals
   8:../../libDaisy//src/per/i2c.h ****  *  after it was initialised. It can then be copied and passed around.
   9:../../libDaisy//src/per/i2c.h ****  *  Use an I2CHandle like this:
  10:../../libDaisy//src/per/i2c.h ****  *  
  11:../../libDaisy//src/per/i2c.h ****  *      // setup the configuration
  12:../../libDaisy//src/per/i2c.h ****  *      I2CHandle::Config i2c_conf;
  13:../../libDaisy//src/per/i2c.h ****  *      i2c_conf.periph = I2CHandle::Config::Peripheral::I2C_1;
  14:../../libDaisy//src/per/i2c.h ****  *      i2c_conf.speed  = I2CHandle::Config::Speed::I2C_400KHZ;
  15:../../libDaisy//src/per/i2c.h ****  *      i2c_conf.mode   = I2CHandle::Config::Mode::Master;
  16:../../libDaisy//src/per/i2c.h ****  *      i2c_conf.pin_config.scl  = {DSY_GPIOB, 8};
  17:../../libDaisy//src/per/i2c.h ****  *      i2c_conf.pin_config.sda  = {DSY_GPIOB, 9};
  18:../../libDaisy//src/per/i2c.h ****  *      // initialise the peripheral
  19:../../libDaisy//src/per/i2c.h ****  *      I2CHandle i2c;
  20:../../libDaisy//src/per/i2c.h ****  *      i2c.Init(i2c_conf);
  21:../../libDaisy//src/per/i2c.h ****  *      // now i2c points to the corresponding peripheral and can be used.
ARM GAS  /var/folders/hl/qgbwny5j0fd895c2c41bk3tw0000gp/T//ccXwbuCm.s 			page 66


  22:../../libDaisy//src/per/i2c.h ****  *      i2c.TransmitBlocking( ... );
  23:../../libDaisy//src/per/i2c.h ****  */
  24:../../libDaisy//src/per/i2c.h **** class I2CHandle
  25:../../libDaisy//src/per/i2c.h **** {
  26:../../libDaisy//src/per/i2c.h ****   public:
  27:../../libDaisy//src/per/i2c.h ****     /** Contains settings for initialising an I2C interface. */
  28:../../libDaisy//src/per/i2c.h ****     struct Config
  29:../../libDaisy//src/per/i2c.h ****     {
  30:../../libDaisy//src/per/i2c.h ****         /** Specifies whether the interface will operate in master or slave mode. */
  31:../../libDaisy//src/per/i2c.h ****         enum class Mode
  32:../../libDaisy//src/per/i2c.h ****         {
  33:../../libDaisy//src/per/i2c.h ****             I2C_MASTER,
  34:../../libDaisy//src/per/i2c.h ****             I2C_SLAVE,
  35:../../libDaisy//src/per/i2c.h ****         };
  36:../../libDaisy//src/per/i2c.h **** 
  37:../../libDaisy//src/per/i2c.h ****         /** Specifices the internal peripheral to use (these are mapped to different pins on the ha
  38:../../libDaisy//src/per/i2c.h ****         enum class Peripheral
  39:../../libDaisy//src/per/i2c.h ****         {
  40:../../libDaisy//src/per/i2c.h ****             I2C_1 = 0, /**< & */
  41:../../libDaisy//src/per/i2c.h ****             I2C_2,     /**< & */
  42:../../libDaisy//src/per/i2c.h ****             I2C_3,     /**< & */
  43:../../libDaisy//src/per/i2c.h ****             I2C_4,     /**< & */
  44:../../libDaisy//src/per/i2c.h ****         };
  45:../../libDaisy//src/per/i2c.h **** 
  46:../../libDaisy//src/per/i2c.h ****         /** Rate at which the clock/data will be sent/received. The device being used will have max
  47:../../libDaisy//src/per/i2c.h ****          *  1MHZ Mode is currently 886kHz
  48:../../libDaisy//src/per/i2c.h ****          */
  49:../../libDaisy//src/per/i2c.h ****         enum class Speed
  50:../../libDaisy//src/per/i2c.h ****         {
  51:../../libDaisy//src/per/i2c.h ****             I2C_100KHZ, /**< & */
  52:../../libDaisy//src/per/i2c.h ****             I2C_400KHZ, /**< & */
  53:../../libDaisy//src/per/i2c.h ****             I2C_1MHZ,   /**< & */
  54:../../libDaisy//src/per/i2c.h ****         };
  55:../../libDaisy//src/per/i2c.h **** 
  56:../../libDaisy//src/per/i2c.h ****         Peripheral periph; /**< & */
  57:../../libDaisy//src/per/i2c.h ****         struct
  58:../../libDaisy//src/per/i2c.h ****         {
  59:../../libDaisy//src/per/i2c.h ****             dsy_gpio_pin scl; /**< & */
  60:../../libDaisy//src/per/i2c.h ****             dsy_gpio_pin sda; /**< & */
  61:../../libDaisy//src/per/i2c.h ****         } pin_config;         /**< & */
  62:../../libDaisy//src/per/i2c.h **** 
  63:../../libDaisy//src/per/i2c.h ****         Speed speed; /**< & */
  64:../../libDaisy//src/per/i2c.h ****         Mode  mode;  /**< & */
  65:../../libDaisy//src/per/i2c.h ****         // 0x10 is chosen as a default to avoid conflicts with reserved addresses
  66:../../libDaisy//src/per/i2c.h ****         uint8_t address = 0x10; /**< & */
  67:../../libDaisy//src/per/i2c.h ****     };
  68:../../libDaisy//src/per/i2c.h **** 
  69:../../libDaisy//src/per/i2c.h ****     /** Return values for I2C functions. */
  70:../../libDaisy//src/per/i2c.h ****     enum class Result
  71:../../libDaisy//src/per/i2c.h ****     {
  72:../../libDaisy//src/per/i2c.h ****         OK, /**< & */
  73:../../libDaisy//src/per/i2c.h ****         ERR /**< & */
  74:../../libDaisy//src/per/i2c.h ****     };
  75:../../libDaisy//src/per/i2c.h **** 
  76:../../libDaisy//src/per/i2c.h ****     enum class Direction
  77:../../libDaisy//src/per/i2c.h ****     {
  78:../../libDaisy//src/per/i2c.h ****         TRANSMIT, /**< & */
ARM GAS  /var/folders/hl/qgbwny5j0fd895c2c41bk3tw0000gp/T//ccXwbuCm.s 			page 67


  79:../../libDaisy//src/per/i2c.h ****         RECEIVE,  /**< & */
  80:../../libDaisy//src/per/i2c.h ****     };
  81:../../libDaisy//src/per/i2c.h **** 
  82:../../libDaisy//src/per/i2c.h ****     I2CHandle() : pimpl_(nullptr) {}
 2042              		.loc 17 82 33 view .LVU484
 2043 00f2 0462     		str	r4, [r0, #32]
 2044              	.LBE770:
 2045              	.LBE769:
 2046              	.LBE768:
 2047              	.LBE767:
 2048              	.LBE766:
 2049              	.LBB773:
 2050              	.LBB774:
 2051              	.LBB775:
 2052              		.file 18 "../../libDaisy//src/per/dac.h"
   1:../../libDaisy//src/per/dac.h **** #pragma once
   2:../../libDaisy//src/per/dac.h **** #ifndef DSY_DAC_H
   3:../../libDaisy//src/per/dac.h **** #define DSY_DAC_H
   4:../../libDaisy//src/per/dac.h **** 
   5:../../libDaisy//src/per/dac.h **** #include "daisy_core.h"
   6:../../libDaisy//src/per/dac.h **** 
   7:../../libDaisy//src/per/dac.h **** namespace daisy
   8:../../libDaisy//src/per/dac.h **** {
   9:../../libDaisy//src/per/dac.h **** /** @brief DAC handle for Built-in DAC Peripheral 
  10:../../libDaisy//src/per/dac.h ****  *  @ingroup per_analog
  11:../../libDaisy//src/per/dac.h ****  ** 
  12:../../libDaisy//src/per/dac.h ****  ** For now only Normal Mode is supported,
  13:../../libDaisy//src/per/dac.h ****  ** Sample and hold mode provides reduced power consumption, but requires a bit more setup.
  14:../../libDaisy//src/per/dac.h ****  **
  15:../../libDaisy//src/per/dac.h ****  ** For now connecting the DAC through other internal peripherals is also not supported.
  16:../../libDaisy//src/per/dac.h ****  **
  17:../../libDaisy//src/per/dac.h ****  ** Since the DAC channels have dedicated pins we don't need to pass in a pin config like with
  18:../../libDaisy//src/per/dac.h ****  ** other modules. However, it is still important to not try to use the DAC pins for anything else.
  19:../../libDaisy//src/per/dac.h ****  ** DAC Channel 1 is on PA4, and DAC Channel 2 is on PA5
  20:../../libDaisy//src/per/dac.h ****  ***/
  21:../../libDaisy//src/per/dac.h **** class DacHandle
  22:../../libDaisy//src/per/dac.h **** {
  23:../../libDaisy//src/per/dac.h ****   public:
  24:../../libDaisy//src/per/dac.h ****     /** Return Values for the DacHandle class */
  25:../../libDaisy//src/per/dac.h ****     enum class Result
  26:../../libDaisy//src/per/dac.h ****     {
  27:../../libDaisy//src/per/dac.h ****         OK,
  28:../../libDaisy//src/per/dac.h ****         ERR,
  29:../../libDaisy//src/per/dac.h ****     };
  30:../../libDaisy//src/per/dac.h **** 
  31:../../libDaisy//src/per/dac.h ****     /** Selects which channel(s) will be configured for use. */
  32:../../libDaisy//src/per/dac.h ****     enum class Channel
  33:../../libDaisy//src/per/dac.h ****     {
  34:../../libDaisy//src/per/dac.h ****         ONE,
  35:../../libDaisy//src/per/dac.h ****         TWO,
  36:../../libDaisy//src/per/dac.h ****         BOTH,
  37:../../libDaisy//src/per/dac.h ****     };
  38:../../libDaisy//src/per/dac.h **** 
  39:../../libDaisy//src/per/dac.h ****     /** Sets the Mode for the DAC channels.
  40:../../libDaisy//src/per/dac.h ****      **
  41:../../libDaisy//src/per/dac.h ****      ** Polling mode uses the blocking mode to transmit a single value at a time.
  42:../../libDaisy//src/per/dac.h ****      **
ARM GAS  /var/folders/hl/qgbwny5j0fd895c2c41bk3tw0000gp/T//ccXwbuCm.s 			page 68


  43:../../libDaisy//src/per/dac.h ****      ** DMA mode uses a buffer, and periodically transmits it triggering a 
  44:../../libDaisy//src/per/dac.h ****      ** callback to fill the buffer when it is ready for more samples.
  45:../../libDaisy//src/per/dac.h ****      ***/
  46:../../libDaisy//src/per/dac.h ****     enum class Mode
  47:../../libDaisy//src/per/dac.h ****     {
  48:../../libDaisy//src/per/dac.h ****         POLLING,
  49:../../libDaisy//src/per/dac.h ****         DMA,
  50:../../libDaisy//src/per/dac.h ****     };
  51:../../libDaisy//src/per/dac.h **** 
  52:../../libDaisy//src/per/dac.h ****     /** Sets the number of bits per sample transmitted out of the DAC.
  53:../../libDaisy//src/per/dac.h ****      ** The output range will be: 0V - VDDA
  54:../../libDaisy//src/per/dac.h ****      ** The resolution will be roughly: bitdepth / (VDDA - 0V) 
  55:../../libDaisy//src/per/dac.h ****      ***/
  56:../../libDaisy//src/per/dac.h ****     enum class BitDepth
  57:../../libDaisy//src/per/dac.h ****     {
  58:../../libDaisy//src/per/dac.h ****         BITS_8,
  59:../../libDaisy//src/per/dac.h ****         BITS_12
  60:../../libDaisy//src/per/dac.h ****     };
  61:../../libDaisy//src/per/dac.h **** 
  62:../../libDaisy//src/per/dac.h ****     /** Sets whether the DAC output is buffered for higher drive ability. */
  63:../../libDaisy//src/per/dac.h ****     enum class BufferState
  64:../../libDaisy//src/per/dac.h ****     {
  65:../../libDaisy//src/per/dac.h ****         ENABLED,
  66:../../libDaisy//src/per/dac.h ****         DISABLED,
  67:../../libDaisy//src/per/dac.h ****     };
  68:../../libDaisy//src/per/dac.h **** 
  69:../../libDaisy//src/per/dac.h ****     /** Configuration structure for initializing the DAC structure. */
  70:../../libDaisy//src/per/dac.h ****     struct Config
  71:../../libDaisy//src/per/dac.h ****     {
  72:../../libDaisy//src/per/dac.h ****         /** Target Samplerate in Hz used to configure the internal 
  73:../../libDaisy//src/per/dac.h ****          ** timebase for DMA mode. Does nothing in POLLING mode.
  74:../../libDaisy//src/per/dac.h ****          ** If the value is 0 at Init time this will default to 48000Hz 
  75:../../libDaisy//src/per/dac.h ****          ** otherwise the driver will attempt meet the target.*/
  76:../../libDaisy//src/per/dac.h ****         uint32_t target_samplerate;
  77:../../libDaisy//src/per/dac.h **** 
  78:../../libDaisy//src/per/dac.h ****         Channel     chn;
  79:../../libDaisy//src/per/dac.h ****         Mode        mode;
  80:../../libDaisy//src/per/dac.h ****         BitDepth    bitdepth;
  81:../../libDaisy//src/per/dac.h ****         BufferState buff_state;
  82:../../libDaisy//src/per/dac.h ****     };
  83:../../libDaisy//src/per/dac.h **** 
  84:../../libDaisy//src/per/dac.h ****     DacHandle() : pimpl_(nullptr) {}
 2053              		.loc 18 84 33 view .LVU485
 2054 00f4 8462     		str	r4, [r0, #40]
 2055              	.LBE775:
 2056              	.LBE774:
 2057              	.LBE773:
 2058              	.LBB776:
 2059              	.LBB777:
 2060              	.LBB778:
  95:../../libDaisy//src/hid/audio.h ****     ~AudioHandle() {}
 2061              		.loc 7 95 35 view .LVU486
 2062 00f6 C0E90344 		strd	r4, r4, [r0, #12]
 2063              	.LVL112:
  95:../../libDaisy//src/hid/audio.h ****     ~AudioHandle() {}
 2064              		.loc 7 95 35 view .LVU487
 2065              	.LBE778:
ARM GAS  /var/folders/hl/qgbwny5j0fd895c2c41bk3tw0000gp/T//ccXwbuCm.s 			page 69


 2066              	.LBE777:
 2067              	.LBE776:
 2068              	.LBB779:
 2069              	.LBI779:
  92:../../libDaisy//src/per/adc.h ****     ~AdcHandle() {}
 2070              		.loc 6 92 5 is_stmt 1 view .LVU488
  92:../../libDaisy//src/per/adc.h ****     ~AdcHandle() {}
 2071              		.loc 6 92 5 is_stmt 0 view .LVU489
 2072              	.LBE779:
 2073              	.LBB780:
 2074              	.LBI780:
  40:../../libDaisy//src/hid/usb.h **** 
 2075              		.loc 5 40 5 is_stmt 1 view .LVU490
  40:../../libDaisy//src/hid/usb.h **** 
 2076              		.loc 5 40 5 is_stmt 0 view .LVU491
 2077              	.LBE780:
 2078              	.LBB781:
 2079              	.LBI766:
  28:../../libDaisy//src/dev/codec_pcm3060.h ****     ~Pcm3060() {}
 2080              		.loc 4 28 5 is_stmt 1 view .LVU492
 2081              	.LBB772:
 2082              	.LBB771:
 2083              	.LBI768:
 2084              		.loc 17 82 5 view .LVU493
 2085              		.loc 17 82 5 is_stmt 0 view .LVU494
 2086              	.LBE771:
 2087              	.LBE772:
 2088              	.LBE781:
 2089              	.LBB782:
 2090              	.LBI773:
 2091              		.loc 18 84 5 is_stmt 1 view .LVU495
 2092              		.loc 18 84 5 is_stmt 0 view .LVU496
 2093              	.LBE782:
 2094              	.LBE785:
 2095              	.LBE787:
 2096              	.LBE790:
 2097              	.LBE793:
  64:../../libDaisy//src/daisy_patch_sm.h ****         ~DaisyPatchSM() {}
 2098              		.loc 2 64 24 is_stmt 1 view .LVU497
 2099              	.LBB794:
 2100              	.LBB791:
 2101              	.LBB788:
 2102              	.LBB786:
 2103              	.LBB783:
 2104              	.LBI783:
  20:../../libDaisy//src/hid/gatein.h ****     /** GateIn~
 2105              		.loc 3 20 5 view .LVU498
  20:../../libDaisy//src/hid/gatein.h ****     /** GateIn~
 2106              		.loc 3 20 5 is_stmt 0 view .LVU499
 2107              	.LBE783:
 2108              	.LBB784:
 2109              	.LBI784:
  20:../../libDaisy//src/hid/gatein.h ****     /** GateIn~
 2110              		.loc 3 20 5 is_stmt 1 view .LVU500
  20:../../libDaisy//src/hid/gatein.h ****     /** GateIn~
 2111              		.loc 3 20 5 is_stmt 0 view .LVU501
 2112              	.LBE784:
ARM GAS  /var/folders/hl/qgbwny5j0fd895c2c41bk3tw0000gp/T//ccXwbuCm.s 			page 70


 2113              	.LBE786:
 2114              	.LBE788:
   9:DualSequencer.cpp **** DaisyPatchSM 	hw;
 2115              		.loc 10 9 15 view .LVU502
 2116 00fa FFF7FEFF 		bl	__aeabi_atexit
 2117              	.LVL113:
 2118              	.LBB789:
 2119              	.LBI789:
  14:../../DaisySP//Source/Utility/metro.h ****     ~Metro() {}
 2120              		.loc 9 14 5 is_stmt 1 view .LVU503
  14:../../DaisySP//Source/Utility/metro.h ****     ~Metro() {}
 2121              		.loc 9 14 5 is_stmt 0 view .LVU504
 2122              	.LBE789:
  10:DualSequencer.cpp **** Metro			clock;
 2123              		.loc 10 10 9 view .LVU505
 2124 00fe 264A     		ldr	r2, .L52+120
 2125 0100 2D49     		ldr	r1, .L52+152
 2126 0102 2E48     		ldr	r0, .L52+156
 2127 0104 FFF7FEFF 		bl	__aeabi_atexit
 2128              	.LVL114:
  11:DualSequencer.cpp **** Oscillator		osc[4];
 2129              		.loc 10 11 18 is_stmt 1 view .LVU506
  11:DualSequencer.cpp **** Oscillator		osc[4];
 2130              		.loc 10 11 13 is_stmt 0 view .LVU507
 2131 0108 234A     		ldr	r2, .L52+120
 2132 010a 2D49     		ldr	r1, .L52+160
 2133 010c 2046     		mov	r0, r4
 2134 010e FFF7FEFF 		bl	__aeabi_atexit
 2135              	.LVL115:
  12:DualSequencer.cpp **** AdEnv			env[4];
 2136              		.loc 10 12 14 is_stmt 1 view .LVU508
  12:DualSequencer.cpp **** AdEnv			env[4];
 2137              		.loc 10 12 9 is_stmt 0 view .LVU509
 2138 0112 2046     		mov	r0, r4
 2139 0114 204A     		ldr	r2, .L52+120
 2140 0116 2B49     		ldr	r1, .L52+164
 2141              	.LBE791:
 2142              	.LBE794:
 2143              		.loc 10 87 1 view .LVU510
 2144 0118 BDE83840 		pop	{r3, r4, r5, lr}
 2145              		.cfi_restore 14
 2146              		.cfi_restore 5
 2147              		.cfi_restore 4
 2148              		.cfi_restore 3
 2149              		.cfi_def_cfa_offset 0
 2150              	.LBB795:
 2151              	.LBB792:
  12:DualSequencer.cpp **** AdEnv			env[4];
 2152              		.loc 10 12 9 view .LVU511
 2153 011c FFF7FEBF 		b	__aeabi_atexit
 2154              	.LVL116:
 2155              	.L53:
 2156              		.align	2
 2157              	.L52:
 2158 0120 00000000 		.word	.LANCHOR3
 2159 0124 00000000 		.word	.LANCHOR1
 2160 0128 00000000 		.word	.LANCHOR5
ARM GAS  /var/folders/hl/qgbwny5j0fd895c2c41bk3tw0000gp/T//ccXwbuCm.s 			page 71


 2161 012c 00000000 		.word	.LANCHOR7
 2162 0130 00000000 		.word	.LANCHOR11
 2163 0134 00000000 		.word	.LANCHOR9
 2164 0138 00000000 		.word	.LANCHOR15
 2165 013c 00000000 		.word	.LANCHOR13
 2166 0140 00000000 		.word	_ZN5daisy8patch_sm12DaisyPatchSM2D7E
 2167 0144 00000000 		.word	_ZN5daisy8patch_sm12DaisyPatchSM2A9E
 2168 0148 00000000 		.word	.LANCHOR23
 2169 014c 00000000 		.word	.LANCHOR24
 2170 0150 00000000 		.word	.LANCHOR0
 2171 0154 00000000 		.word	_ZN5daisy8patch_sm12DaisyPatchSM2D1E
 2172 0158 00000000 		.word	_ZN5daisy8patch_sm12DaisyPatchSM2D2E
 2173 015c 00000000 		.word	.LANCHOR2
 2174 0160 00000000 		.word	.LANCHOR25
 2175 0164 00000000 		.word	.LANCHOR26
 2176 0168 00000000 		.word	.LANCHOR4
 2177 016c 00000000 		.word	_ZN5daisy8patch_sm12DaisyPatchSM2D3E
 2178 0170 00000000 		.word	_ZN5daisy8patch_sm12DaisyPatchSM2D6E
 2179 0174 00000000 		.word	_ZN5daisy8patch_sm12DaisyPatchSM2D4E
 2180 0178 00000000 		.word	.LANCHOR12
 2181 017c 00000000 		.word	_ZN5daisy8patch_sm12DaisyPatchSM2D5E
 2182 0180 00000000 		.word	.LANCHOR27
 2183 0184 00000000 		.word	.LANCHOR28
 2184 0188 00000000 		.word	.LANCHOR29
 2185 018c 00000000 		.word	.LANCHOR30
 2186 0190 00000000 		.word	_ZN5daisy6SwitchD1Ev
 2187 0194 00000000 		.word	.LANCHOR6
 2188 0198 00000000 		.word	__dso_handle
 2189 019c 00000000 		.word	.LANCHOR8
 2190 01a0 00000000 		.word	.LANCHOR10
 2191 01a4 00000000 		.word	.LANCHOR14
 2192 01a8 00000000 		.word	.LANCHOR16
 2193 01ac 00000000 		.word	.LANCHOR17
 2194 01b0 00000000 		.word	.LANCHOR18
 2195 01b4 00000000 		.word	_ZN5daisy8patch_sm12DaisyPatchSMD1Ev
 2196 01b8 00000000 		.word	_ZN7daisysp5MetroD1Ev
 2197 01bc 00000000 		.word	.LANCHOR19
 2198 01c0 00000000 		.word	__tcf_0
 2199 01c4 00000000 		.word	__tcf_1
 2200              	.LBE792:
 2201              	.LBE795:
 2202              		.cfi_endproc
 2203              	.LFE5361:
 2205              		.section	.init_array,"aw",%init_array
 2206              		.align	2
 2207 0000 00000000 		.word	_GLOBAL__sub_I__ZN5daisy8patch_sm8gen_led1E(target1)
 2208              		.global	stepNumber
 2209              		.global	env
 2210              		.global	osc
 2211              		.global	clock
 2212              		.global	hw
 2213              		.global	_ZN5daisy8patch_sm2b2E
 2214              		.global	_ZN5daisy8patch_sm2b1E
 2215              		.global	_ZN5daisy8patch_sm8newPinD5E
 2216              		.global	_ZN5daisy8patch_sm8oldPinD5E
 2217              		.global	_ZN5daisy8patch_sm8newPinD4E
 2218              		.global	_ZN5daisy8patch_sm8oldPinD4E
ARM GAS  /var/folders/hl/qgbwny5j0fd895c2c41bk3tw0000gp/T//ccXwbuCm.s 			page 72


 2219              		.global	_ZN5daisy8patch_sm8newPinD6E
 2220              		.global	_ZN5daisy8patch_sm8oldPinD6E
 2221              		.global	_ZN5daisy8patch_sm8newPinD3E
 2222              		.global	_ZN5daisy8patch_sm8oldPinD3E
 2223              		.global	_ZN5daisy8patch_sm8newPinD1E
 2224              		.global	_ZN5daisy8patch_sm8oldPinD1E
 2225              		.global	_ZN5daisy8patch_sm8newPinD2E
 2226              		.global	_ZN5daisy8patch_sm8oldPinD2E
 2227              		.global	_ZN5daisy8patch_sm8newPinA9E
 2228              		.global	_ZN5daisy8patch_sm8oldPinA9E
 2229              		.global	_ZN5daisy8patch_sm8newPinD7E
 2230              		.global	_ZN5daisy8patch_sm8oldPinD7E
 2231              		.global	_ZN5daisy8patch_sm13gate_out_led2E
 2232              		.global	_ZN5daisy8patch_sm13gate_out_led1E
 2233              		.global	_ZN5daisy8patch_sm12gate_in_led2E
 2234              		.global	_ZN5daisy8patch_sm12gate_in_led1E
 2235              		.global	_ZN5daisy8patch_sm7cv_led2E
 2236              		.global	_ZN5daisy8patch_sm7cv_led1E
 2237              		.global	_ZN5daisy8patch_sm8gen_led2E
 2238              		.global	_ZN5daisy8patch_sm8gen_led1E
 2239              		.section	.bss._ZN5daisy8patch_sm12gate_in_led1E,"aw",%nobits
 2240              		.align	2
 2241              		.set	.LANCHOR9,. + 0
 2244              	_ZN5daisy8patch_sm12gate_in_led1E:
 2245 0000 00000000 		.space	20
 2245      00000000 
 2245      00000000 
 2245      00000000 
 2245      00000000 
 2246              		.section	.bss._ZN5daisy8patch_sm12gate_in_led2E,"aw",%nobits
 2247              		.align	2
 2248              		.set	.LANCHOR11,. + 0
 2251              	_ZN5daisy8patch_sm12gate_in_led2E:
 2252 0000 00000000 		.space	20
 2252      00000000 
 2252      00000000 
 2252      00000000 
 2252      00000000 
 2253              		.section	.bss._ZN5daisy8patch_sm13gate_out_led1E,"aw",%nobits
 2254              		.align	2
 2255              		.set	.LANCHOR13,. + 0
 2258              	_ZN5daisy8patch_sm13gate_out_led1E:
 2259 0000 00000000 		.space	20
 2259      00000000 
 2259      00000000 
 2259      00000000 
 2259      00000000 
 2260              		.section	.bss._ZN5daisy8patch_sm13gate_out_led2E,"aw",%nobits
 2261              		.align	2
 2262              		.set	.LANCHOR15,. + 0
 2265              	_ZN5daisy8patch_sm13gate_out_led2E:
 2266 0000 00000000 		.space	20
 2266      00000000 
 2266      00000000 
 2266      00000000 
 2266      00000000 
 2267              		.section	.bss._ZN5daisy8patch_sm2b1E,"aw",%nobits
ARM GAS  /var/folders/hl/qgbwny5j0fd895c2c41bk3tw0000gp/T//ccXwbuCm.s 			page 73


 2268              		.align	2
 2269              		.set	.LANCHOR16,. + 0
 2272              	_ZN5daisy8patch_sm2b1E:
 2273 0000 00000000 		.space	16
 2273      00000000 
 2273      00000000 
 2273      00000000 
 2274              		.section	.bss._ZN5daisy8patch_sm2b2E,"aw",%nobits
 2275              		.align	2
 2276              		.set	.LANCHOR17,. + 0
 2279              	_ZN5daisy8patch_sm2b2E:
 2280 0000 00000000 		.space	16
 2280      00000000 
 2280      00000000 
 2280      00000000 
 2281              		.section	.bss._ZN5daisy8patch_sm7cv_led1E,"aw",%nobits
 2282              		.align	2
 2283              		.set	.LANCHOR5,. + 0
 2286              	_ZN5daisy8patch_sm7cv_led1E:
 2287 0000 00000000 		.space	20
 2287      00000000 
 2287      00000000 
 2287      00000000 
 2287      00000000 
 2288              		.section	.bss._ZN5daisy8patch_sm7cv_led2E,"aw",%nobits
 2289              		.align	2
 2290              		.set	.LANCHOR7,. + 0
 2293              	_ZN5daisy8patch_sm7cv_led2E:
 2294 0000 00000000 		.space	20
 2294      00000000 
 2294      00000000 
 2294      00000000 
 2294      00000000 
 2295              		.section	.bss._ZN5daisy8patch_sm8gen_led1E,"aw",%nobits
 2296              		.align	2
 2297              		.set	.LANCHOR1,. + 0
 2300              	_ZN5daisy8patch_sm8gen_led1E:
 2301 0000 00000000 		.space	20
 2301      00000000 
 2301      00000000 
 2301      00000000 
 2301      00000000 
 2302              		.section	.bss._ZN5daisy8patch_sm8gen_led2E,"aw",%nobits
 2303              		.align	2
 2304              		.set	.LANCHOR3,. + 0
 2307              	_ZN5daisy8patch_sm8gen_led2E:
 2308 0000 00000000 		.space	20
 2308      00000000 
 2308      00000000 
 2308      00000000 
 2308      00000000 
 2309              		.section	.bss._ZN5daisy8patch_sm8newPinA9E,"aw",%nobits
 2310              		.align	2
 2311              		.set	.LANCHOR2,. + 0
 2314              	_ZN5daisy8patch_sm8newPinA9E:
 2315 0000 0000     		.space	2
 2316              		.section	.bss._ZN5daisy8patch_sm8newPinD1E,"aw",%nobits
ARM GAS  /var/folders/hl/qgbwny5j0fd895c2c41bk3tw0000gp/T//ccXwbuCm.s 			page 74


 2317              		.align	2
 2318              		.set	.LANCHOR6,. + 0
 2321              	_ZN5daisy8patch_sm8newPinD1E:
 2322 0000 0000     		.space	2
 2323              		.section	.bss._ZN5daisy8patch_sm8newPinD2E,"aw",%nobits
 2324              		.align	2
 2325              		.set	.LANCHOR4,. + 0
 2328              	_ZN5daisy8patch_sm8newPinD2E:
 2329 0000 0000     		.space	2
 2330              		.section	.bss._ZN5daisy8patch_sm8newPinD3E,"aw",%nobits
 2331              		.align	2
 2332              		.set	.LANCHOR8,. + 0
 2335              	_ZN5daisy8patch_sm8newPinD3E:
 2336 0000 0000     		.space	2
 2337              		.section	.bss._ZN5daisy8patch_sm8newPinD4E,"aw",%nobits
 2338              		.align	2
 2339              		.set	.LANCHOR10,. + 0
 2342              	_ZN5daisy8patch_sm8newPinD4E:
 2343 0000 0000     		.space	2
 2344              		.section	.bss._ZN5daisy8patch_sm8newPinD5E,"aw",%nobits
 2345              		.align	2
 2346              		.set	.LANCHOR14,. + 0
 2349              	_ZN5daisy8patch_sm8newPinD5E:
 2350 0000 0000     		.space	2
 2351              		.section	.bss._ZN5daisy8patch_sm8newPinD6E,"aw",%nobits
 2352              		.align	2
 2353              		.set	.LANCHOR12,. + 0
 2356              	_ZN5daisy8patch_sm8newPinD6E:
 2357 0000 0000     		.space	2
 2358              		.section	.bss._ZN5daisy8patch_sm8newPinD7E,"aw",%nobits
 2359              		.align	2
 2360              		.set	.LANCHOR0,. + 0
 2363              	_ZN5daisy8patch_sm8newPinD7E:
 2364 0000 0000     		.space	2
 2365              		.section	.bss._ZN5daisy8patch_sm8oldPinA9E,"aw",%nobits
 2366              		.align	2
 2367              		.set	.LANCHOR24,. + 0
 2370              	_ZN5daisy8patch_sm8oldPinA9E:
 2371 0000 0000     		.space	2
 2372              		.section	.bss._ZN5daisy8patch_sm8oldPinD1E,"aw",%nobits
 2373              		.align	2
 2374              		.set	.LANCHOR26,. + 0
 2377              	_ZN5daisy8patch_sm8oldPinD1E:
 2378 0000 0000     		.space	2
 2379              		.section	.bss._ZN5daisy8patch_sm8oldPinD2E,"aw",%nobits
 2380              		.align	2
 2381              		.set	.LANCHOR25,. + 0
 2384              	_ZN5daisy8patch_sm8oldPinD2E:
 2385 0000 0000     		.space	2
 2386              		.section	.bss._ZN5daisy8patch_sm8oldPinD3E,"aw",%nobits
 2387              		.align	2
 2388              		.set	.LANCHOR27,. + 0
 2391              	_ZN5daisy8patch_sm8oldPinD3E:
 2392 0000 0000     		.space	2
 2393              		.section	.bss._ZN5daisy8patch_sm8oldPinD4E,"aw",%nobits
 2394              		.align	2
 2395              		.set	.LANCHOR29,. + 0
ARM GAS  /var/folders/hl/qgbwny5j0fd895c2c41bk3tw0000gp/T//ccXwbuCm.s 			page 75


 2398              	_ZN5daisy8patch_sm8oldPinD4E:
 2399 0000 0000     		.space	2
 2400              		.section	.bss._ZN5daisy8patch_sm8oldPinD5E,"aw",%nobits
 2401              		.align	2
 2402              		.set	.LANCHOR30,. + 0
 2405              	_ZN5daisy8patch_sm8oldPinD5E:
 2406 0000 0000     		.space	2
 2407              		.section	.bss._ZN5daisy8patch_sm8oldPinD6E,"aw",%nobits
 2408              		.align	2
 2409              		.set	.LANCHOR28,. + 0
 2412              	_ZN5daisy8patch_sm8oldPinD6E:
 2413 0000 0000     		.space	2
 2414              		.section	.bss._ZN5daisy8patch_sm8oldPinD7E,"aw",%nobits
 2415              		.align	2
 2416              		.set	.LANCHOR23,. + 0
 2419              	_ZN5daisy8patch_sm8oldPinD7E:
 2420 0000 0000     		.space	2
 2421              		.section	.bss.clock,"aw",%nobits
 2422              		.align	2
 2423              		.set	.LANCHOR19,. + 0
 2426              	clock:
 2427 0000 00000000 		.space	16
 2427      00000000 
 2427      00000000 
 2427      00000000 
 2428              		.section	.bss.env,"aw",%nobits
 2429              		.align	2
 2430              		.set	.LANCHOR22,. + 0
 2433              	env:
 2434 0000 00000000 		.space	224
 2434      00000000 
 2434      00000000 
 2434      00000000 
 2434      00000000 
 2435              		.section	.bss.hw,"aw",%nobits
 2436              		.align	2
 2437              		.set	.LANCHOR18,. + 0
 2440              	hw:
 2441 0000 00000000 		.space	464
 2441      00000000 
 2441      00000000 
 2441      00000000 
 2441      00000000 
 2442              		.section	.bss.osc,"aw",%nobits
 2443              		.align	2
 2444              		.set	.LANCHOR21,. + 0
 2447              	osc:
 2448 0000 00000000 		.space	192
 2448      00000000 
 2448      00000000 
 2448      00000000 
 2448      00000000 
 2449              		.section	.bss.stepNumber,"aw",%nobits
 2450              		.align	2
 2451              		.set	.LANCHOR20,. + 0
 2454              	stepNumber:
 2455 0000 00000000 		.space	4
ARM GAS  /var/folders/hl/qgbwny5j0fd895c2c41bk3tw0000gp/T//ccXwbuCm.s 			page 76


 2456              		.text
 2457              	.Letext0:
 2458              		.file 19 "/opt/homebrew/Cellar/arm-none-eabi-gcc/10.3-2021.07/gcc/arm-none-eabi/include/machine/_d
 2459              		.file 20 "/opt/homebrew/Cellar/arm-none-eabi-gcc/10.3-2021.07/gcc/arm-none-eabi/include/sys/_stdin
 2460              		.file 21 "/opt/homebrew/Cellar/arm-none-eabi-gcc/10.3-2021.07/gcc/arm-none-eabi/include/stdint.h"
 2461              		.file 22 "/opt/homebrew/Cellar/arm-none-eabi-gcc/10.3-2021.07/gcc/lib/gcc/arm-none-eabi/10.3.1/inc
 2462              		.file 23 "/opt/homebrew/Cellar/arm-none-eabi-gcc/10.3-2021.07/gcc/arm-none-eabi/include/c++/10.3.1
 2463              		.file 24 "/opt/homebrew/Cellar/arm-none-eabi-gcc/10.3-2021.07/gcc/arm-none-eabi/include/c++/10.3.1
 2464              		.file 25 "/opt/homebrew/Cellar/arm-none-eabi-gcc/10.3-2021.07/gcc/arm-none-eabi/include/c++/10.3.1
 2465              		.file 26 "/opt/homebrew/Cellar/arm-none-eabi-gcc/10.3-2021.07/gcc/arm-none-eabi/include/c++/10.3.1
 2466              		.file 27 "/opt/homebrew/Cellar/arm-none-eabi-gcc/10.3-2021.07/gcc/arm-none-eabi/include/c++/10.3.1
 2467              		.file 28 "/opt/homebrew/Cellar/arm-none-eabi-gcc/10.3-2021.07/gcc/arm-none-eabi/include/c++/10.3.1
 2468              		.file 29 "/opt/homebrew/Cellar/arm-none-eabi-gcc/10.3-2021.07/gcc/arm-none-eabi/include/c++/10.3.1
 2469              		.file 30 "/opt/homebrew/Cellar/arm-none-eabi-gcc/10.3-2021.07/gcc/arm-none-eabi/include/c++/10.3.1
 2470              		.file 31 "/opt/homebrew/Cellar/arm-none-eabi-gcc/10.3-2021.07/gcc/arm-none-eabi/include/c++/10.3.1
 2471              		.file 32 "/opt/homebrew/Cellar/arm-none-eabi-gcc/10.3-2021.07/gcc/arm-none-eabi/include/c++/10.3.1
 2472              		.file 33 "/opt/homebrew/Cellar/arm-none-eabi-gcc/10.3-2021.07/gcc/arm-none-eabi/include/c++/10.3.1
 2473              		.file 34 "/opt/homebrew/Cellar/arm-none-eabi-gcc/10.3-2021.07/gcc/arm-none-eabi/include/c++/10.3.1
 2474              		.file 35 "/opt/homebrew/Cellar/arm-none-eabi-gcc/10.3-2021.07/gcc/arm-none-eabi/include/c++/10.3.1
 2475              		.file 36 "/opt/homebrew/Cellar/arm-none-eabi-gcc/10.3-2021.07/gcc/arm-none-eabi/include/c++/10.3.1
 2476              		.file 37 "/opt/homebrew/Cellar/arm-none-eabi-gcc/10.3-2021.07/gcc/arm-none-eabi/include/c++/10.3.1
 2477              		.file 38 "/opt/homebrew/Cellar/arm-none-eabi-gcc/10.3-2021.07/gcc/arm-none-eabi/include/c++/10.3.1
 2478              		.file 39 "/opt/homebrew/Cellar/arm-none-eabi-gcc/10.3-2021.07/gcc/arm-none-eabi/include/c++/10.3.1
 2479              		.file 40 "/opt/homebrew/Cellar/arm-none-eabi-gcc/10.3-2021.07/gcc/arm-none-eabi/include/c++/10.3.1
 2480              		.file 41 "/opt/homebrew/Cellar/arm-none-eabi-gcc/10.3-2021.07/gcc/arm-none-eabi/include/sys/_types
 2481              		.file 42 "/opt/homebrew/Cellar/arm-none-eabi-gcc/10.3-2021.07/gcc/arm-none-eabi/include/sys/reent.
 2482              		.file 43 "/opt/homebrew/Cellar/arm-none-eabi-gcc/10.3-2021.07/gcc/arm-none-eabi/include/sys/lock.h
 2483              		.file 44 "/opt/homebrew/Cellar/arm-none-eabi-gcc/10.3-2021.07/gcc/arm-none-eabi/include/math.h"
 2484              		.file 45 "/opt/homebrew/Cellar/arm-none-eabi-gcc/10.3-2021.07/gcc/arm-none-eabi/include/stdlib.h"
 2485              		.file 46 "/opt/homebrew/Cellar/arm-none-eabi-gcc/10.3-2021.07/gcc/arm-none-eabi/include/c++/10.3.1
 2486              		.file 47 "/opt/homebrew/Cellar/arm-none-eabi-gcc/10.3-2021.07/gcc/arm-none-eabi/include/c++/10.3.1
 2487              		.file 48 "../../libDaisy//src/per/tim.h"
 2488              		.file 49 "../../libDaisy//src/per/sai.h"
 2489              		.file 50 "../../libDaisy//src/hid/ctrl.h"
 2490              		.file 51 "../../libDaisy//src/util/wav_format.h"
 2491              		.file 52 "../../libDaisy//src/dev/max11300.h"
 2492              		.file 53 "../../libDaisy//src/dev/sdram.h"
 2493              		.file 54 "/opt/homebrew/Cellar/arm-none-eabi-gcc/10.3-2021.07/gcc/lib/gcc/arm-none-eabi/10.3.1/inc
 2494              		.file 55 "/opt/homebrew/Cellar/arm-none-eabi-gcc/10.3-2021.07/gcc/arm-none-eabi/include/stdio.h"
 2495              		.file 56 "/opt/homebrew/Cellar/arm-none-eabi-gcc/10.3-2021.07/gcc/arm-none-eabi/include/string.h"
 2496              		.file 57 "../../DaisySP//Source/Utility/dsp.h"
 2497              		.file 58 "/opt/homebrew/Cellar/arm-none-eabi-gcc/10.3-2021.07/gcc/arm-none-eabi/include/wchar.h"
 2498              		.file 59 "/opt/homebrew/Cellar/arm-none-eabi-gcc/10.3-2021.07/gcc/arm-none-eabi/include/locale.h"
 2499              		.file 60 "<built-in>"
 2500              		.file 61 "../../libDaisy//src/dev/sr_595.h"
ARM GAS  /var/folders/hl/qgbwny5j0fd895c2c41bk3tw0000gp/T//ccXwbuCm.s 			page 77

