ARM GAS  /var/folders/hl/qgbwny5j0fd895c2c41bk3tw0000gp/T//ccBzUL5G.s 			page 1


   1              		.cpu cortex-m7
   2              		.eabi_attribute 28, 1
   3              		.eabi_attribute 20, 1
   4              		.eabi_attribute 21, 1
   5              		.eabi_attribute 23, 3
   6              		.eabi_attribute 24, 1
   7              		.eabi_attribute 25, 1
   8              		.eabi_attribute 26, 1
   9              		.eabi_attribute 30, 2
  10              		.eabi_attribute 34, 1
  11              		.eabi_attribute 18, 4
  12              		.file	"KS.cpp"
  13              		.text
  14              	.Ltext0:
  15              		.cfi_sections	.debug_frame
  16              		.section	.text._ZN5daisy8patch_sm12DaisyPatchSMD2Ev,"axG",%progbits,_ZN5daisy8patch_sm12DaisyPatch
  17              		.align	1
  18              		.p2align 2,,3
  19              		.weak	_ZN5daisy8patch_sm12DaisyPatchSMD2Ev
  20              		.arch armv7e-m
  21              		.syntax unified
  22              		.thumb
  23              		.thumb_func
  24              		.fpu fpv5-d16
  26              	_ZN5daisy8patch_sm12DaisyPatchSMD2Ev:
  27              	.LVL0:
  28              	.LFB2529:
  29              		.file 1 "../../libDaisy//src/daisy_patch_sm.h"
   1:../../libDaisy//src/daisy_patch_sm.h **** #pragma once
   2:../../libDaisy//src/daisy_patch_sm.h **** 
   3:../../libDaisy//src/daisy_patch_sm.h **** #include "daisy.h"
   4:../../libDaisy//src/daisy_patch_sm.h **** 
   5:../../libDaisy//src/daisy_patch_sm.h **** namespace daisy
   6:../../libDaisy//src/daisy_patch_sm.h **** {
   7:../../libDaisy//src/daisy_patch_sm.h **** namespace patch_sm
   8:../../libDaisy//src/daisy_patch_sm.h **** {
   9:../../libDaisy//src/daisy_patch_sm.h ****     /** Accessors for the Analog Controls. 
  10:../../libDaisy//src/daisy_patch_sm.h ****      *  These cover the 8x Bipolar CV inputs
  11:../../libDaisy//src/daisy_patch_sm.h ****      *  as well as the 4x 0-3V3 ADC inputs on
  12:../../libDaisy//src/daisy_patch_sm.h ****      *  the hardware 
  13:../../libDaisy//src/daisy_patch_sm.h ****      * 
  14:../../libDaisy//src/daisy_patch_sm.h ****      *  When reading a value with DaisyPatchSM::GetAdcValue()
  15:../../libDaisy//src/daisy_patch_sm.h ****      * 
  16:../../libDaisy//src/daisy_patch_sm.h ****      *  patch.GetAdcValue(patch_sm::CV_1);
  17:../../libDaisy//src/daisy_patch_sm.h ****      */
  18:../../libDaisy//src/daisy_patch_sm.h ****     enum
  19:../../libDaisy//src/daisy_patch_sm.h ****     {
  20:../../libDaisy//src/daisy_patch_sm.h ****         CV_1 = 0,
  21:../../libDaisy//src/daisy_patch_sm.h ****         CV_2,
  22:../../libDaisy//src/daisy_patch_sm.h ****         CV_3,
  23:../../libDaisy//src/daisy_patch_sm.h ****         CV_4,
  24:../../libDaisy//src/daisy_patch_sm.h ****         CV_5,
  25:../../libDaisy//src/daisy_patch_sm.h ****         CV_6,
  26:../../libDaisy//src/daisy_patch_sm.h ****         CV_7,
  27:../../libDaisy//src/daisy_patch_sm.h ****         CV_8,
  28:../../libDaisy//src/daisy_patch_sm.h ****         ADC_9,
  29:../../libDaisy//src/daisy_patch_sm.h ****         ADC_10,
ARM GAS  /var/folders/hl/qgbwny5j0fd895c2c41bk3tw0000gp/T//ccBzUL5G.s 			page 2


  30:../../libDaisy//src/daisy_patch_sm.h ****         ADC_11,
  31:../../libDaisy//src/daisy_patch_sm.h ****         ADC_12,
  32:../../libDaisy//src/daisy_patch_sm.h ****         ADC_LAST,
  33:../../libDaisy//src/daisy_patch_sm.h ****     };
  34:../../libDaisy//src/daisy_patch_sm.h **** 
  35:../../libDaisy//src/daisy_patch_sm.h ****     /** Enum for addressing the CV Outputs via the WriteCvOut function. */
  36:../../libDaisy//src/daisy_patch_sm.h ****     enum
  37:../../libDaisy//src/daisy_patch_sm.h ****     {
  38:../../libDaisy//src/daisy_patch_sm.h ****         CV_OUT_BOTH = 0,
  39:../../libDaisy//src/daisy_patch_sm.h ****         CV_OUT_1,
  40:../../libDaisy//src/daisy_patch_sm.h ****         CV_OUT_2,
  41:../../libDaisy//src/daisy_patch_sm.h ****     };
  42:../../libDaisy//src/daisy_patch_sm.h **** 
  43:../../libDaisy//src/daisy_patch_sm.h **** 
  44:../../libDaisy//src/daisy_patch_sm.h ****     /** @brief Board support file for DaisyPatchSM hardware
  45:../../libDaisy//src/daisy_patch_sm.h ****      *  @author shensley
  46:../../libDaisy//src/daisy_patch_sm.h ****      *  @ingroup boards
  47:../../libDaisy//src/daisy_patch_sm.h ****      * 
  48:../../libDaisy//src/daisy_patch_sm.h ****      *  Daisy Patch SM is a complete Eurorack module DSP engine.
  49:../../libDaisy//src/daisy_patch_sm.h ****      *  Based on the Daisy Seed, with circuits added for 
  50:../../libDaisy//src/daisy_patch_sm.h ****      *  interfacing directly with eurorack modular synthesizers.
  51:../../libDaisy//src/daisy_patch_sm.h ****      */
  52:../../libDaisy//src/daisy_patch_sm.h ****     class DaisyPatchSM
  53:../../libDaisy//src/daisy_patch_sm.h ****     {
  54:../../libDaisy//src/daisy_patch_sm.h ****       public:
  55:../../libDaisy//src/daisy_patch_sm.h ****         /** Helper for mapping pins, and accessing them using the `GetPin` function */
  56:../../libDaisy//src/daisy_patch_sm.h ****         enum class PinBank
  57:../../libDaisy//src/daisy_patch_sm.h ****         {
  58:../../libDaisy//src/daisy_patch_sm.h ****             A,
  59:../../libDaisy//src/daisy_patch_sm.h ****             B,
  60:../../libDaisy//src/daisy_patch_sm.h ****             C,
  61:../../libDaisy//src/daisy_patch_sm.h ****             D
  62:../../libDaisy//src/daisy_patch_sm.h ****         };
  63:../../libDaisy//src/daisy_patch_sm.h **** 
  64:../../libDaisy//src/daisy_patch_sm.h ****         DaisyPatchSM() {}
  65:../../libDaisy//src/daisy_patch_sm.h ****         ~DaisyPatchSM() {}
  30              		.loc 1 65 9 view -0
  31              		.cfi_startproc
  32              		@ args = 0, pretend = 0, frame = 0
  33              		@ frame_needed = 0, uses_anonymous_args = 0
  34              		@ link register save eliminated.
  35              	.LBB241:
  36              	.LBI241:
  37              		.file 2 "../../libDaisy//src/hid/gatein.h"
   1:../../libDaisy//src/hid/gatein.h **** #pragma once
   2:../../libDaisy//src/hid/gatein.h **** #ifndef DSY_GATEIN_H
   3:../../libDaisy//src/hid/gatein.h **** #define DSY_GATEIN_H
   4:../../libDaisy//src/hid/gatein.h **** #include "per/gpio.h"
   5:../../libDaisy//src/hid/gatein.h **** 
   6:../../libDaisy//src/hid/gatein.h **** namespace daisy
   7:../../libDaisy//src/hid/gatein.h **** {
   8:../../libDaisy//src/hid/gatein.h **** /**
   9:../../libDaisy//src/hid/gatein.h ****    @brief Generic Class for handling gate inputs through GPIO.
  10:../../libDaisy//src/hid/gatein.h ****    @author Stephen Hensley
  11:../../libDaisy//src/hid/gatein.h ****    @date    March 2020
  12:../../libDaisy//src/hid/gatein.h ****    @ingroup controls
  13:../../libDaisy//src/hid/gatein.h **** */
ARM GAS  /var/folders/hl/qgbwny5j0fd895c2c41bk3tw0000gp/T//ccBzUL5G.s 			page 3


  14:../../libDaisy//src/hid/gatein.h **** class GateIn
  15:../../libDaisy//src/hid/gatein.h **** {
  16:../../libDaisy//src/hid/gatein.h ****   public:
  17:../../libDaisy//src/hid/gatein.h ****     /** GateIn 
  18:../../libDaisy//src/hid/gatein.h ****     Constructor 
  19:../../libDaisy//src/hid/gatein.h ****     */
  20:../../libDaisy//src/hid/gatein.h ****     GateIn() {}
  21:../../libDaisy//src/hid/gatein.h ****     /** GateIn~
  22:../../libDaisy//src/hid/gatein.h ****     Destructor 
  23:../../libDaisy//src/hid/gatein.h ****     */
  24:../../libDaisy//src/hid/gatein.h ****     ~GateIn() {}
  38              		.loc 2 24 5 view .LVU1
  39              		.loc 2 24 5 is_stmt 0 view .LVU2
  40              	.LBE241:
  41              	.LBB242:
  42              	.LBI242:
  43              		.loc 2 24 5 is_stmt 1 view .LVU3
  44              		.loc 2 24 5 is_stmt 0 view .LVU4
  45              	.LBE242:
  46              	.LBB243:
  47              	.LBI243:
  48              		.file 3 "../../libDaisy//src/dev/codec_pcm3060.h"
   1:../../libDaisy//src/dev/codec_pcm3060.h **** #pragma once
   2:../../libDaisy//src/dev/codec_pcm3060.h **** #ifndef DSY_CODEC_PCM3060_H
   3:../../libDaisy//src/dev/codec_pcm3060.h **** #define DSY_CODEC_PCM3060_H
   4:../../libDaisy//src/dev/codec_pcm3060.h **** #include "per/i2c.h"
   5:../../libDaisy//src/dev/codec_pcm3060.h **** namespace daisy
   6:../../libDaisy//src/dev/codec_pcm3060.h **** {
   7:../../libDaisy//src/dev/codec_pcm3060.h **** /**
   8:../../libDaisy//src/dev/codec_pcm3060.h ****  * @brief Driver for the TI PCM3060 Audio Codec.
   9:../../libDaisy//src/dev/codec_pcm3060.h ****  * @addtogroup codec
  10:../../libDaisy//src/dev/codec_pcm3060.h ****  * 
  11:../../libDaisy//src/dev/codec_pcm3060.h ****  * For now this is a limited interface that uses I2C to communicate with the PCM3060
  12:../../libDaisy//src/dev/codec_pcm3060.h ****  * The device can also be accessed with SPI, which is not yet supported.
  13:../../libDaisy//src/dev/codec_pcm3060.h ****  * 
  14:../../libDaisy//src/dev/codec_pcm3060.h ****  * For now all registers are set to their defaults, and the Init function will 
  15:../../libDaisy//src/dev/codec_pcm3060.h ****  * perform a MRST and SRST before setting the format to 24bit LJ, and disabling 
  16:../../libDaisy//src/dev/codec_pcm3060.h ****  * power save for both the ADC and DAC.
  17:../../libDaisy//src/dev/codec_pcm3060.h ****  *
  18:../../libDaisy//src/dev/codec_pcm3060.h ****  */
  19:../../libDaisy//src/dev/codec_pcm3060.h **** class Pcm3060
  20:../../libDaisy//src/dev/codec_pcm3060.h **** {
  21:../../libDaisy//src/dev/codec_pcm3060.h ****   public:
  22:../../libDaisy//src/dev/codec_pcm3060.h ****     enum class Result
  23:../../libDaisy//src/dev/codec_pcm3060.h ****     {
  24:../../libDaisy//src/dev/codec_pcm3060.h ****         OK,
  25:../../libDaisy//src/dev/codec_pcm3060.h ****         ERR,
  26:../../libDaisy//src/dev/codec_pcm3060.h ****     };
  27:../../libDaisy//src/dev/codec_pcm3060.h **** 
  28:../../libDaisy//src/dev/codec_pcm3060.h ****     Pcm3060() {}
  29:../../libDaisy//src/dev/codec_pcm3060.h ****     ~Pcm3060() {}
  49              		.loc 3 29 5 is_stmt 1 view .LVU5
  50              		.loc 3 29 5 is_stmt 0 view .LVU6
  51              	.LBE243:
  52              	.LBB244:
  53              	.LBI244:
  54              		.file 4 "../../libDaisy//src/hid/usb.h"
ARM GAS  /var/folders/hl/qgbwny5j0fd895c2c41bk3tw0000gp/T//ccBzUL5G.s 			page 4


   1:../../libDaisy//src/hid/usb.h **** #pragma once
   2:../../libDaisy//src/hid/usb.h **** #ifndef DSY_HID_USB_H
   3:../../libDaisy//src/hid/usb.h **** #define DSY_HID_USB_H
   4:../../libDaisy//src/hid/usb.h **** #include <stdint.h>
   5:../../libDaisy//src/hid/usb.h **** #include <stdlib.h>
   6:../../libDaisy//src/hid/usb.h **** 
   7:../../libDaisy//src/hid/usb.h **** namespace daisy
   8:../../libDaisy//src/hid/usb.h **** /** @addtogroup human_interface
   9:../../libDaisy//src/hid/usb.h ****     @{
  10:../../libDaisy//src/hid/usb.h **** */
  11:../../libDaisy//src/hid/usb.h **** 
  12:../../libDaisy//src/hid/usb.h **** {
  13:../../libDaisy//src/hid/usb.h **** /** 
  14:../../libDaisy//src/hid/usb.h ****     @brief Interface for initializing and using the USB Peripherals on the daisy
  15:../../libDaisy//src/hid/usb.h ****     @author Stephen Hensley
  16:../../libDaisy//src/hid/usb.h ****     @date December 2019
  17:../../libDaisy//src/hid/usb.h **** */
  18:../../libDaisy//src/hid/usb.h **** class UsbHandle
  19:../../libDaisy//src/hid/usb.h **** {
  20:../../libDaisy//src/hid/usb.h ****   public:
  21:../../libDaisy//src/hid/usb.h ****     /** Return values for USBHandle Functions */
  22:../../libDaisy//src/hid/usb.h ****     enum class Result
  23:../../libDaisy//src/hid/usb.h ****     {
  24:../../libDaisy//src/hid/usb.h ****         OK,
  25:../../libDaisy//src/hid/usb.h ****         ERR,
  26:../../libDaisy//src/hid/usb.h ****     };
  27:../../libDaisy//src/hid/usb.h **** 
  28:../../libDaisy//src/hid/usb.h ****     /** Specified which of the two USB Peripherals to initialize. */
  29:../../libDaisy//src/hid/usb.h ****     enum UsbPeriph
  30:../../libDaisy//src/hid/usb.h ****     {
  31:../../libDaisy//src/hid/usb.h ****         FS_INTERNAL, /**< Internal pin */
  32:../../libDaisy//src/hid/usb.h ****         FS_EXTERNAL, /**< FS External D+ pin is Pin 38 (GPIO32). FS External D- pin is Pin 37 (GPIO
  33:../../libDaisy//src/hid/usb.h ****         FS_BOTH,     /**< Both */
  34:../../libDaisy//src/hid/usb.h ****     };
  35:../../libDaisy//src/hid/usb.h **** 
  36:../../libDaisy//src/hid/usb.h **** 
  37:../../libDaisy//src/hid/usb.h ****     /** Function called upon reception of a buffer */
  38:../../libDaisy//src/hid/usb.h ****     typedef void (*ReceiveCallback)(uint8_t* buff, uint32_t* len);
  39:../../libDaisy//src/hid/usb.h **** 
  40:../../libDaisy//src/hid/usb.h ****     UsbHandle() {}
  41:../../libDaisy//src/hid/usb.h **** 
  42:../../libDaisy//src/hid/usb.h ****     ~UsbHandle() {}
  55              		.loc 4 42 5 is_stmt 1 view .LVU7
  56              		.loc 4 42 5 is_stmt 0 view .LVU8
  57              	.LBE244:
  58              	.LBB245:
  59              	.LBI245:
  60              		.file 5 "../../libDaisy//src/per/adc.h"
   1:../../libDaisy//src/per/adc.h **** #pragma once
   2:../../libDaisy//src/per/adc.h **** #ifndef DSY_ADC_H
   3:../../libDaisy//src/per/adc.h **** #define DSY_ADC_H /**< Macro */
   4:../../libDaisy//src/per/adc.h **** #include <stdint.h>
   5:../../libDaisy//src/per/adc.h **** #include <stdlib.h>
   6:../../libDaisy//src/per/adc.h **** #include "daisy_core.h"
   7:../../libDaisy//src/per/adc.h **** #include "per/gpio.h"
   8:../../libDaisy//src/per/adc.h **** 
   9:../../libDaisy//src/per/adc.h **** #define DSY_ADC_MAX_CHANNELS 16 /**< Maximum number of ADC channels */
ARM GAS  /var/folders/hl/qgbwny5j0fd895c2c41bk3tw0000gp/T//ccBzUL5G.s 			page 5


  10:../../libDaisy//src/per/adc.h **** 
  11:../../libDaisy//src/per/adc.h **** namespace daisy
  12:../../libDaisy//src/per/adc.h **** {
  13:../../libDaisy//src/per/adc.h **** /** @addtogroup per_analog
  14:../../libDaisy//src/per/adc.h ****     @{
  15:../../libDaisy//src/per/adc.h **** */
  16:../../libDaisy//src/per/adc.h **** 
  17:../../libDaisy//src/per/adc.h **** /* While there may not be many configuration options here,
  18:../../libDaisy//src/per/adc.h **** using a struct like this allows us to add more configuration
  19:../../libDaisy//src/per/adc.h **** later without breaking existing functionality.
  20:../../libDaisy//src/per/adc.h **** */
  21:../../libDaisy//src/per/adc.h **** 
  22:../../libDaisy//src/per/adc.h **** /** @brief   Configuration Structure for an ADC Channel 
  23:../../libDaisy//src/per/adc.h ****  *  @details This can be used to configure a a single input, 
  24:../../libDaisy//src/per/adc.h ****  *           or a multiplexed input, allowing up to 8 inputs on 
  25:../../libDaisy//src/per/adc.h ****  *           one channel.
  26:../../libDaisy//src/per/adc.h ****  *  @note    Sharing data lines to multiple muxes _is_ possible, but
  27:../../libDaisy//src/per/adc.h ****  *           each channel sharing data lines must be set to the maximum
  28:../../libDaisy//src/per/adc.h ****  *           number of channels, even if some multiplexers have fewer
  29:../../libDaisy//src/per/adc.h ****  *           inputs connected.
  30:../../libDaisy//src/per/adc.h **** */
  31:../../libDaisy//src/per/adc.h **** struct AdcChannelConfig
  32:../../libDaisy//src/per/adc.h **** {
  33:../../libDaisy//src/per/adc.h ****     /** Which pin to use for multiplexing */
  34:../../libDaisy//src/per/adc.h ****     enum MuxPin
  35:../../libDaisy//src/per/adc.h ****     {
  36:../../libDaisy//src/per/adc.h ****         MUX_SEL_0,    /**< & */
  37:../../libDaisy//src/per/adc.h ****         MUX_SEL_1,    /**< & */
  38:../../libDaisy//src/per/adc.h ****         MUX_SEL_2,    /**< & */
  39:../../libDaisy//src/per/adc.h ****         MUX_SEL_LAST, /**< & */
  40:../../libDaisy//src/per/adc.h ****     };
  41:../../libDaisy//src/per/adc.h **** 
  42:../../libDaisy//src/per/adc.h ****     /** Initializes a single ADC pin as an ADC. 
  43:../../libDaisy//src/per/adc.h ****     \param pin Pin to init.
  44:../../libDaisy//src/per/adc.h ****      */
  45:../../libDaisy//src/per/adc.h ****     void InitSingle(dsy_gpio_pin pin);
  46:../../libDaisy//src/per/adc.h **** 
  47:../../libDaisy//src/per/adc.h ****     /** 
  48:../../libDaisy//src/per/adc.h ****     Initializes a single ADC pin as a Multiplexed ADC.
  49:../../libDaisy//src/per/adc.h ****     Requires a CD405X Multiplexer connected to the pin.
  50:../../libDaisy//src/per/adc.h ****     You only need to supply the mux pins that are required,
  51:../../libDaisy//src/per/adc.h ****     e.g. a 4052 mux would only require mux_0 and mux_1.
  52:../../libDaisy//src/per/adc.h ****     Internal Callbacks handle the pin addressing.
  53:../../libDaisy//src/per/adc.h ****     \param mux_channels must be 1-8
  54:../../libDaisy//src/per/adc.h ****     \param mux_0 First mux pin
  55:../../libDaisy//src/per/adc.h ****     \param mux_1 Second mux pin
  56:../../libDaisy//src/per/adc.h ****     \param mux_2 Third mux pin
  57:../../libDaisy//src/per/adc.h ****     \param adc_pin &
  58:../../libDaisy//src/per/adc.h ****     */
  59:../../libDaisy//src/per/adc.h ****     void InitMux(dsy_gpio_pin adc_pin,
  60:../../libDaisy//src/per/adc.h ****                  size_t       mux_channels,
  61:../../libDaisy//src/per/adc.h ****                  dsy_gpio_pin mux_0,
  62:../../libDaisy//src/per/adc.h ****                  dsy_gpio_pin mux_1 = {DSY_GPIOX, 0},
  63:../../libDaisy//src/per/adc.h ****                  dsy_gpio_pin mux_2 = {DSY_GPIOX, 0});
  64:../../libDaisy//src/per/adc.h **** 
  65:../../libDaisy//src/per/adc.h ****     dsy_gpio pin_;                   /**< & */
  66:../../libDaisy//src/per/adc.h ****     dsy_gpio mux_pin_[MUX_SEL_LAST]; /**< & */
ARM GAS  /var/folders/hl/qgbwny5j0fd895c2c41bk3tw0000gp/T//ccBzUL5G.s 			page 6


  67:../../libDaisy//src/per/adc.h ****     uint8_t  mux_channels_;          /**< & */
  68:../../libDaisy//src/per/adc.h **** };
  69:../../libDaisy//src/per/adc.h **** 
  70:../../libDaisy//src/per/adc.h **** /**
  71:../../libDaisy//src/per/adc.h ****    @brief Handler for analog to digital conversion
  72:../../libDaisy//src/per/adc.h **** */
  73:../../libDaisy//src/per/adc.h **** class AdcHandle
  74:../../libDaisy//src/per/adc.h **** {
  75:../../libDaisy//src/per/adc.h ****   public:
  76:../../libDaisy//src/per/adc.h ****     /** Supported oversampling amounts */
  77:../../libDaisy//src/per/adc.h ****     enum OverSampling
  78:../../libDaisy//src/per/adc.h ****     {
  79:../../libDaisy//src/per/adc.h ****         OVS_NONE, /**< & */
  80:../../libDaisy//src/per/adc.h ****         OVS_4,    /**< & */
  81:../../libDaisy//src/per/adc.h ****         OVS_8,    /**< & */
  82:../../libDaisy//src/per/adc.h ****         OVS_16,   /**< & */
  83:../../libDaisy//src/per/adc.h ****         OVS_32,   /**< & */
  84:../../libDaisy//src/per/adc.h ****         OVS_64,   /**< & */
  85:../../libDaisy//src/per/adc.h ****         OVS_128,  /**< & */
  86:../../libDaisy//src/per/adc.h ****         OVS_256,  /**< & */
  87:../../libDaisy//src/per/adc.h ****         OVS_512,  /**< & */
  88:../../libDaisy//src/per/adc.h ****         OVS_1024, /**< & */
  89:../../libDaisy//src/per/adc.h ****         OVS_LAST, /**< & */
  90:../../libDaisy//src/per/adc.h ****     };
  91:../../libDaisy//src/per/adc.h **** 
  92:../../libDaisy//src/per/adc.h ****     AdcHandle() {}
  93:../../libDaisy//src/per/adc.h ****     ~AdcHandle() {}
  61              		.loc 5 93 5 is_stmt 1 view .LVU9
  62              		.loc 5 93 5 is_stmt 0 view .LVU10
  63              	.LBE245:
  64              	.LBB246:
  65              	.LBI246:
  66              		.file 6 "../../libDaisy//src/hid/audio.h"
   1:../../libDaisy//src/hid/audio.h **** #ifndef DSY_AUDIO_H
   2:../../libDaisy//src/hid/audio.h **** #define DSY_AUDIO_H /**< & */
   3:../../libDaisy//src/hid/audio.h **** 
   4:../../libDaisy//src/hid/audio.h **** #include "per/sai.h"
   5:../../libDaisy//src/hid/audio.h **** 
   6:../../libDaisy//src/hid/audio.h **** namespace daisy
   7:../../libDaisy//src/hid/audio.h **** {
   8:../../libDaisy//src/hid/audio.h **** /** @brief Audio Engine Handle
   9:../../libDaisy//src/hid/audio.h ****  *  @ingroup audio 
  10:../../libDaisy//src/hid/audio.h ****  *  @details This class allows for higher level access to an audio engine.
  11:../../libDaisy//src/hid/audio.h ****  *           If you're using a SOM like the DaisySeed or DaisyPatchSM (or any 
  12:../../libDaisy//src/hid/audio.h ****  *            board that includes one of those objects) then the intialization
  13:../../libDaisy//src/hid/audio.h ****  *            is already taken  care of.
  14:../../libDaisy//src/hid/audio.h ****  *           If you're setting up your own custom hardware, or need to make changes
  15:../../libDaisy//src/hid/audio.h ****  *           you will have to take the following steps:
  16:../../libDaisy//src/hid/audio.h ****  *             1. Create and Initialize an SaiHandle or two depending on your requirements
  17:../../libDaisy//src/hid/audio.h ****  *             2. Initialize the Audio Handle with the desired settings and the Initialized SaiHand
  18:../../libDaisy//src/hid/audio.h ****  *             3. If the connected codec requires special configuration or initialization, do so
  19:../../libDaisy//src/hid/audio.h ****  *             4. Write a callback method using either the AudioCallback or the InterleavingAudioCa
  20:../../libDaisy//src/hid/audio.h ****  *             5. Start the Audio using one of the StartAudio function
  21:../../libDaisy//src/hid/audio.h ****  */
  22:../../libDaisy//src/hid/audio.h **** class AudioHandle
  23:../../libDaisy//src/hid/audio.h **** {
  24:../../libDaisy//src/hid/audio.h ****   public:
ARM GAS  /var/folders/hl/qgbwny5j0fd895c2c41bk3tw0000gp/T//ccBzUL5G.s 			page 7


  25:../../libDaisy//src/hid/audio.h ****     /** Manually configurable details about the Audio Engine */
  26:../../libDaisy//src/hid/audio.h ****     /** TODO: Figure out how to get samplerate in here. */
  27:../../libDaisy//src/hid/audio.h ****     struct Config
  28:../../libDaisy//src/hid/audio.h ****     {
  29:../../libDaisy//src/hid/audio.h ****         /** number of samples to process per callback */
  30:../../libDaisy//src/hid/audio.h ****         size_t blocksize;
  31:../../libDaisy//src/hid/audio.h **** 
  32:../../libDaisy//src/hid/audio.h ****         /**< Sample rate of audio */
  33:../../libDaisy//src/hid/audio.h ****         SaiHandle::Config::SampleRate samplerate;
  34:../../libDaisy//src/hid/audio.h **** 
  35:../../libDaisy//src/hid/audio.h ****         /** factor for adjustment before and after callback for hardware that may have extra headro
  36:../../libDaisy//src/hid/audio.h ****         float postgain;
  37:../../libDaisy//src/hid/audio.h **** 
  38:../../libDaisy//src/hid/audio.h ****         /** factor for additional one-sided compensation to audio path for hardware that may
  39:../../libDaisy//src/hid/audio.h ****          *  have unequal input/output ranges
  40:../../libDaisy//src/hid/audio.h ****          */
  41:../../libDaisy//src/hid/audio.h ****         float output_compensation;
  42:../../libDaisy//src/hid/audio.h **** 
  43:../../libDaisy//src/hid/audio.h ****         /** Sets default values for config struct */
  44:../../libDaisy//src/hid/audio.h ****         Config()
  45:../../libDaisy//src/hid/audio.h ****         : blocksize(48),
  46:../../libDaisy//src/hid/audio.h ****           samplerate(SaiHandle::Config::SampleRate::SAI_48KHZ),
  47:../../libDaisy//src/hid/audio.h ****           postgain(1.f),
  48:../../libDaisy//src/hid/audio.h ****           output_compensation(1.f)
  49:../../libDaisy//src/hid/audio.h ****         {
  50:../../libDaisy//src/hid/audio.h ****         }
  51:../../libDaisy//src/hid/audio.h ****     };
  52:../../libDaisy//src/hid/audio.h **** 
  53:../../libDaisy//src/hid/audio.h ****     enum class Result
  54:../../libDaisy//src/hid/audio.h ****     {
  55:../../libDaisy//src/hid/audio.h ****         OK,
  56:../../libDaisy//src/hid/audio.h ****         ERR,
  57:../../libDaisy//src/hid/audio.h ****     };
  58:../../libDaisy//src/hid/audio.h **** 
  59:../../libDaisy//src/hid/audio.h ****     /** Non-Interleaving input buffer
  60:../../libDaisy//src/hid/audio.h ****      * Buffer arranged by float[chn][sample] 
  61:../../libDaisy//src/hid/audio.h ****      * const so that the user can't modify the input
  62:../../libDaisy//src/hid/audio.h ****      */
  63:../../libDaisy//src/hid/audio.h ****     typedef const float* const* InputBuffer;
  64:../../libDaisy//src/hid/audio.h **** 
  65:../../libDaisy//src/hid/audio.h ****     /** Non-Interleaving output buffer
  66:../../libDaisy//src/hid/audio.h ****      * Arranged by float[chn][sample] 
  67:../../libDaisy//src/hid/audio.h ****      */
  68:../../libDaisy//src/hid/audio.h ****     typedef float** OutputBuffer;
  69:../../libDaisy//src/hid/audio.h **** 
  70:../../libDaisy//src/hid/audio.h ****     /** Type for a Non-Interleaving audio callback 
  71:../../libDaisy//src/hid/audio.h ****      * Non-Interleaving audio callbacks in daisy will be of this type
  72:../../libDaisy//src/hid/audio.h ****      */
  73:../../libDaisy//src/hid/audio.h ****     typedef void (*AudioCallback)(InputBuffer  in,
  74:../../libDaisy//src/hid/audio.h ****                                   OutputBuffer out,
  75:../../libDaisy//src/hid/audio.h ****                                   size_t       size);
  76:../../libDaisy//src/hid/audio.h **** 
  77:../../libDaisy//src/hid/audio.h ****     /** Interleaving Input buffer
  78:../../libDaisy//src/hid/audio.h ****      ** audio is prepared as { L0, R0, L1, R1, . . . LN, RN }]
  79:../../libDaisy//src/hid/audio.h ****      ** this is const, as the user shouldn't modify it
  80:../../libDaisy//src/hid/audio.h ****     */
  81:../../libDaisy//src/hid/audio.h ****     typedef const float* InterleavingInputBuffer;
ARM GAS  /var/folders/hl/qgbwny5j0fd895c2c41bk3tw0000gp/T//ccBzUL5G.s 			page 8


  82:../../libDaisy//src/hid/audio.h **** 
  83:../../libDaisy//src/hid/audio.h ****     /** Interleaving Output buffer 
  84:../../libDaisy//src/hid/audio.h ****      ** audio is prepared as { L0, R0, L1, R1, . . . LN, RN }
  85:../../libDaisy//src/hid/audio.h ****     */
  86:../../libDaisy//src/hid/audio.h ****     typedef float* InterleavingOutputBuffer;
  87:../../libDaisy//src/hid/audio.h **** 
  88:../../libDaisy//src/hid/audio.h ****     /** Interleaving Audio Callback 
  89:../../libDaisy//src/hid/audio.h ****      * Interleaving audio callbacks in daisy must be of this type
  90:../../libDaisy//src/hid/audio.h ****      */
  91:../../libDaisy//src/hid/audio.h ****     typedef void (*InterleavingAudioCallback)(InterleavingInputBuffer  in,
  92:../../libDaisy//src/hid/audio.h ****                                               InterleavingOutputBuffer out,
  93:../../libDaisy//src/hid/audio.h ****                                               size_t                   size);
  94:../../libDaisy//src/hid/audio.h **** 
  95:../../libDaisy//src/hid/audio.h ****     AudioHandle() : pimpl_(nullptr) {}
  96:../../libDaisy//src/hid/audio.h ****     ~AudioHandle() {}
  67              		.loc 6 96 5 is_stmt 1 view .LVU11
  68              		.loc 6 96 5 is_stmt 0 view .LVU12
  69              	.LBE246:
  70              	.LBB247:
  71              	.LBI247:
  72              		.file 7 "../../libDaisy//src/sys/system.h"
   1:../../libDaisy//src/sys/system.h **** #ifndef DSY_SYSTEM_H
   2:../../libDaisy//src/sys/system.h **** #define DSY_SYSTEM_H
   3:../../libDaisy//src/sys/system.h **** 
   4:../../libDaisy//src/sys/system.h **** #ifndef UNIT_TEST // for unit tests, a dummy implementation is provided below
   5:../../libDaisy//src/sys/system.h **** 
   6:../../libDaisy//src/sys/system.h **** #include <cstdint>
   7:../../libDaisy//src/sys/system.h **** #include "per/tim.h"
   8:../../libDaisy//src/sys/system.h **** 
   9:../../libDaisy//src/sys/system.h **** namespace daisy
  10:../../libDaisy//src/sys/system.h **** {
  11:../../libDaisy//src/sys/system.h **** /** A handle for interacting with the Core System. 
  12:../../libDaisy//src/sys/system.h ****  ** This includes the Clock tree, MPU, global DMA initialization,
  13:../../libDaisy//src/sys/system.h ****  ** cache handling, and any other necessary global initiailzation
  14:../../libDaisy//src/sys/system.h ****  **
  15:../../libDaisy//src/sys/system.h ****  ** @author shensley
  16:../../libDaisy//src/sys/system.h ****  ** @ingroup system
  17:../../libDaisy//src/sys/system.h ****  */
  18:../../libDaisy//src/sys/system.h **** class System
  19:../../libDaisy//src/sys/system.h **** {
  20:../../libDaisy//src/sys/system.h ****   public:
  21:../../libDaisy//src/sys/system.h ****     /** Contains settings for initializing the System */
  22:../../libDaisy//src/sys/system.h ****     struct Config
  23:../../libDaisy//src/sys/system.h ****     {
  24:../../libDaisy//src/sys/system.h ****         /** Specifies the system clock frequency that feeds APB/AHB clocks, etc. */
  25:../../libDaisy//src/sys/system.h ****         enum class SysClkFreq
  26:../../libDaisy//src/sys/system.h ****         {
  27:../../libDaisy//src/sys/system.h ****             FREQ_400MHZ,
  28:../../libDaisy//src/sys/system.h ****             FREQ_480MHZ,
  29:../../libDaisy//src/sys/system.h ****         };
  30:../../libDaisy//src/sys/system.h **** 
  31:../../libDaisy//src/sys/system.h ****         /** Method to call on the struct to set to defaults
  32:../../libDaisy//src/sys/system.h ****          ** CPU Freq set to 400MHz
  33:../../libDaisy//src/sys/system.h ****          ** Cache Enabled 
  34:../../libDaisy//src/sys/system.h ****          ** */
  35:../../libDaisy//src/sys/system.h ****         void Defaults()
  36:../../libDaisy//src/sys/system.h ****         {
ARM GAS  /var/folders/hl/qgbwny5j0fd895c2c41bk3tw0000gp/T//ccBzUL5G.s 			page 9


  37:../../libDaisy//src/sys/system.h ****             cpu_freq    = SysClkFreq::FREQ_400MHZ;
  38:../../libDaisy//src/sys/system.h ****             use_dcache  = true;
  39:../../libDaisy//src/sys/system.h ****             use_icache  = true;
  40:../../libDaisy//src/sys/system.h ****             skip_clocks = false;
  41:../../libDaisy//src/sys/system.h ****         }
  42:../../libDaisy//src/sys/system.h **** 
  43:../../libDaisy//src/sys/system.h ****         /** Method to call on the struct to set to boost mode:
  44:../../libDaisy//src/sys/system.h ****          ** CPU Freq set to 480MHz
  45:../../libDaisy//src/sys/system.h ****          ** Cache Enabled 
  46:../../libDaisy//src/sys/system.h ****          ** */
  47:../../libDaisy//src/sys/system.h ****         void Boost()
  48:../../libDaisy//src/sys/system.h ****         {
  49:../../libDaisy//src/sys/system.h ****             cpu_freq    = SysClkFreq::FREQ_480MHZ;
  50:../../libDaisy//src/sys/system.h ****             use_dcache  = true;
  51:../../libDaisy//src/sys/system.h ****             use_icache  = true;
  52:../../libDaisy//src/sys/system.h ****             skip_clocks = false;
  53:../../libDaisy//src/sys/system.h ****         }
  54:../../libDaisy//src/sys/system.h **** 
  55:../../libDaisy//src/sys/system.h ****         SysClkFreq cpu_freq;
  56:../../libDaisy//src/sys/system.h ****         bool       use_dcache;
  57:../../libDaisy//src/sys/system.h ****         bool       use_icache;
  58:../../libDaisy//src/sys/system.h ****         bool       skip_clocks;
  59:../../libDaisy//src/sys/system.h ****     };
  60:../../libDaisy//src/sys/system.h **** 
  61:../../libDaisy//src/sys/system.h ****     /** Describes the different regions of memory available to the Daisy
  62:../../libDaisy//src/sys/system.h ****      * 
  63:../../libDaisy//src/sys/system.h ****      */
  64:../../libDaisy//src/sys/system.h ****     enum MemoryRegion
  65:../../libDaisy//src/sys/system.h ****     {
  66:../../libDaisy//src/sys/system.h ****         INTERNAL_FLASH = 0,
  67:../../libDaisy//src/sys/system.h ****         ITCMRAM,
  68:../../libDaisy//src/sys/system.h ****         DTCMRAM,
  69:../../libDaisy//src/sys/system.h ****         SRAM_D1,
  70:../../libDaisy//src/sys/system.h ****         SRAM_D2,
  71:../../libDaisy//src/sys/system.h ****         SRAM_D3,
  72:../../libDaisy//src/sys/system.h ****         SDRAM,
  73:../../libDaisy//src/sys/system.h ****         QSPI,
  74:../../libDaisy//src/sys/system.h ****         INVALID_ADDRESS,
  75:../../libDaisy//src/sys/system.h ****     };
  76:../../libDaisy//src/sys/system.h **** 
  77:../../libDaisy//src/sys/system.h ****     System() {}
  78:../../libDaisy//src/sys/system.h ****     ~System() {}
  73              		.loc 7 78 5 is_stmt 1 view .LVU13
  74              		.loc 7 78 5 is_stmt 0 view .LVU14
  75              	.LBE247:
  76              		.loc 1 65 26 view .LVU15
  77 0000 7047     		bx	lr
  78              		.cfi_endproc
  79              	.LFE2529:
  81              		.weak	_ZN5daisy8patch_sm12DaisyPatchSMD1Ev
  82              		.thumb_set _ZN5daisy8patch_sm12DaisyPatchSMD1Ev,_ZN5daisy8patch_sm12DaisyPatchSMD2Ev
  83 0002 00BF     		.section	.text._ZN7daisysp6StringD2Ev,"axG",%progbits,_ZN7daisysp6StringD5Ev,comdat
  84              		.align	1
  85              		.p2align 2,,3
  86              		.weak	_ZN7daisysp6StringD2Ev
  87              		.syntax unified
  88              		.thumb
ARM GAS  /var/folders/hl/qgbwny5j0fd895c2c41bk3tw0000gp/T//ccBzUL5G.s 			page 10


  89              		.thumb_func
  90              		.fpu fpv5-d16
  92              	_ZN7daisysp6StringD2Ev:
  93              	.LVL1:
  94              	.LFB4640:
  95              		.file 8 "../../DaisySP//Source/PhysicalModeling/KarplusString.h"
   1:../../DaisySP//Source/PhysicalModeling/KarplusString.h **** #pragma once
   2:../../DaisySP//Source/PhysicalModeling/KarplusString.h **** #ifndef DSY_STRING_H
   3:../../DaisySP//Source/PhysicalModeling/KarplusString.h **** #define DSY_STRING_H
   4:../../DaisySP//Source/PhysicalModeling/KarplusString.h **** 
   5:../../DaisySP//Source/PhysicalModeling/KarplusString.h **** #include <stdint.h>
   6:../../DaisySP//Source/PhysicalModeling/KarplusString.h **** 
   7:../../DaisySP//Source/PhysicalModeling/KarplusString.h **** #include "Dynamics/crossfade.h"
   8:../../DaisySP//Source/PhysicalModeling/KarplusString.h **** #include "Utility/dcblock.h"
   9:../../DaisySP//Source/PhysicalModeling/KarplusString.h **** #include "Utility/delayline.h"
  10:../../DaisySP//Source/PhysicalModeling/KarplusString.h **** #include "Filters/svf.h"
  11:../../DaisySP//Source/PhysicalModeling/KarplusString.h **** #include "Filters/tone.h"
  12:../../DaisySP//Source/PhysicalModeling/KarplusString.h **** 
  13:../../DaisySP//Source/PhysicalModeling/KarplusString.h **** #ifdef __cplusplus
  14:../../DaisySP//Source/PhysicalModeling/KarplusString.h **** 
  15:../../DaisySP//Source/PhysicalModeling/KarplusString.h **** /** @file KarplusString.h */
  16:../../DaisySP//Source/PhysicalModeling/KarplusString.h **** 
  17:../../DaisySP//Source/PhysicalModeling/KarplusString.h **** namespace daisysp
  18:../../DaisySP//Source/PhysicalModeling/KarplusString.h **** {
  19:../../DaisySP//Source/PhysicalModeling/KarplusString.h **** /**  
  20:../../DaisySP//Source/PhysicalModeling/KarplusString.h ****        @brief Comb filter / KS string.
  21:../../DaisySP//Source/PhysicalModeling/KarplusString.h ****        @author Ben Sergentanis
  22:../../DaisySP//Source/PhysicalModeling/KarplusString.h ****        @date Jan 2021 
  23:../../DaisySP//Source/PhysicalModeling/KarplusString.h ****        "Lite" version of the implementation used in Rings \n \n 
  24:../../DaisySP//Source/PhysicalModeling/KarplusString.h ****        Ported from pichenettes/eurorack/plaits/dsp/oscillator/formant_oscillator.h \n
  25:../../DaisySP//Source/PhysicalModeling/KarplusString.h ****        to an independent module. \n
  26:../../DaisySP//Source/PhysicalModeling/KarplusString.h ****        Original code written by Emilie Gillet in 2016. \n
  27:../../DaisySP//Source/PhysicalModeling/KarplusString.h **** */
  28:../../DaisySP//Source/PhysicalModeling/KarplusString.h **** class String
  29:../../DaisySP//Source/PhysicalModeling/KarplusString.h **** {
  30:../../DaisySP//Source/PhysicalModeling/KarplusString.h ****   public:
  31:../../DaisySP//Source/PhysicalModeling/KarplusString.h ****     String() {}
  32:../../DaisySP//Source/PhysicalModeling/KarplusString.h ****     ~String() {}
  96              		.loc 8 32 5 is_stmt 1 view -0
  97              		.cfi_startproc
  98              		@ args = 0, pretend = 0, frame = 0
  99              		@ frame_needed = 0, uses_anonymous_args = 0
 100              		@ link register save eliminated.
 101              	.LBB248:
 102              	.LBI248:
 103              		.file 9 "../../DaisySP//Source/Dynamics/crossfade.h"
   1:../../DaisySP//Source/Dynamics/crossfade.h **** #pragma once
   2:../../DaisySP//Source/Dynamics/crossfade.h **** #ifndef DSY_CROSSFADE_H
   3:../../DaisySP//Source/Dynamics/crossfade.h **** #define DSY_CROSSFADE_H
   4:../../DaisySP//Source/Dynamics/crossfade.h **** #include <stdint.h>
   5:../../DaisySP//Source/Dynamics/crossfade.h **** #ifdef __cplusplus
   6:../../DaisySP//Source/Dynamics/crossfade.h **** 
   7:../../DaisySP//Source/Dynamics/crossfade.h **** namespace daisysp
   8:../../DaisySP//Source/Dynamics/crossfade.h **** {
   9:../../DaisySP//Source/Dynamics/crossfade.h **** /** Curve applied to the CrossFade
  10:../../DaisySP//Source/Dynamics/crossfade.h **** - LIN = linear
  11:../../DaisySP//Source/Dynamics/crossfade.h **** - CPOW = constant power
ARM GAS  /var/folders/hl/qgbwny5j0fd895c2c41bk3tw0000gp/T//ccBzUL5G.s 			page 11


  12:../../DaisySP//Source/Dynamics/crossfade.h **** - LOG = logarithmic
  13:../../DaisySP//Source/Dynamics/crossfade.h **** - EXP  exponential
  14:../../DaisySP//Source/Dynamics/crossfade.h **** - LAST = end of enum (used for array indexing)
  15:../../DaisySP//Source/Dynamics/crossfade.h **** */
  16:../../DaisySP//Source/Dynamics/crossfade.h **** enum
  17:../../DaisySP//Source/Dynamics/crossfade.h **** {
  18:../../DaisySP//Source/Dynamics/crossfade.h ****     CROSSFADE_LIN,
  19:../../DaisySP//Source/Dynamics/crossfade.h ****     CROSSFADE_CPOW,
  20:../../DaisySP//Source/Dynamics/crossfade.h ****     CROSSFADE_LOG,
  21:../../DaisySP//Source/Dynamics/crossfade.h ****     CROSSFADE_EXP,
  22:../../DaisySP//Source/Dynamics/crossfade.h ****     CROSSFADE_LAST,
  23:../../DaisySP//Source/Dynamics/crossfade.h **** };
  24:../../DaisySP//Source/Dynamics/crossfade.h **** 
  25:../../DaisySP//Source/Dynamics/crossfade.h **** /** Performs a CrossFade between two signals
  26:../../DaisySP//Source/Dynamics/crossfade.h **** 
  27:../../DaisySP//Source/Dynamics/crossfade.h ****     Original author: Paul Batchelor
  28:../../DaisySP//Source/Dynamics/crossfade.h **** 
  29:../../DaisySP//Source/Dynamics/crossfade.h ****     Ported from Soundpipe by Andrew Ikenberry
  30:../../DaisySP//Source/Dynamics/crossfade.h **** 
  31:../../DaisySP//Source/Dynamics/crossfade.h ****     added curve option for constant power, etc.
  32:../../DaisySP//Source/Dynamics/crossfade.h **** */
  33:../../DaisySP//Source/Dynamics/crossfade.h **** class CrossFade
  34:../../DaisySP//Source/Dynamics/crossfade.h **** {
  35:../../DaisySP//Source/Dynamics/crossfade.h ****   public:
  36:../../DaisySP//Source/Dynamics/crossfade.h ****     CrossFade() {}
  37:../../DaisySP//Source/Dynamics/crossfade.h ****     ~CrossFade() {}
 104              		.loc 9 37 5 view .LVU17
 105              		.loc 9 37 5 is_stmt 0 view .LVU18
 106              	.LBE248:
 107              	.LBB249:
 108              	.LBI249:
 109              		.file 10 "../../DaisySP//Source/Utility/dcblock.h"
   1:../../DaisySP//Source/Utility/dcblock.h **** 
   2:../../DaisySP//Source/Utility/dcblock.h **** #pragma once
   3:../../DaisySP//Source/Utility/dcblock.h **** #ifndef DSY_DCBLOCK_H
   4:../../DaisySP//Source/Utility/dcblock.h **** #define DSY_DCBLOCK_H
   5:../../DaisySP//Source/Utility/dcblock.h **** #ifdef __cplusplus
   6:../../DaisySP//Source/Utility/dcblock.h **** 
   7:../../DaisySP//Source/Utility/dcblock.h **** namespace daisysp
   8:../../DaisySP//Source/Utility/dcblock.h **** {
   9:../../DaisySP//Source/Utility/dcblock.h **** /** Removes DC component of a signal
  10:../../DaisySP//Source/Utility/dcblock.h ****     */
  11:../../DaisySP//Source/Utility/dcblock.h **** class DcBlock
  12:../../DaisySP//Source/Utility/dcblock.h **** {
  13:../../DaisySP//Source/Utility/dcblock.h ****   public:
  14:../../DaisySP//Source/Utility/dcblock.h ****     DcBlock(){};
  15:../../DaisySP//Source/Utility/dcblock.h ****     ~DcBlock(){};
 110              		.loc 10 15 5 is_stmt 1 view .LVU19
 111              		.loc 10 15 5 is_stmt 0 view .LVU20
 112              	.LBE249:
 113              	.LBB250:
 114              	.LBI250:
 115              		.file 11 "../../DaisySP//Source/Filters/tone.h"
   1:../../DaisySP//Source/Filters/tone.h **** #pragma once
   2:../../DaisySP//Source/Filters/tone.h **** #ifndef DSY_TONE_H
   3:../../DaisySP//Source/Filters/tone.h **** #define DSY_TONE_H
   4:../../DaisySP//Source/Filters/tone.h **** 
ARM GAS  /var/folders/hl/qgbwny5j0fd895c2c41bk3tw0000gp/T//ccBzUL5G.s 			page 12


   5:../../DaisySP//Source/Filters/tone.h **** #include <stdint.h>
   6:../../DaisySP//Source/Filters/tone.h **** #ifdef __cplusplus
   7:../../DaisySP//Source/Filters/tone.h **** 
   8:../../DaisySP//Source/Filters/tone.h **** namespace daisysp
   9:../../DaisySP//Source/Filters/tone.h **** {
  10:../../DaisySP//Source/Filters/tone.h **** /** A first-order recursive low-pass filter with variable frequency response.
  11:../../DaisySP//Source/Filters/tone.h **** */
  12:../../DaisySP//Source/Filters/tone.h **** class Tone
  13:../../DaisySP//Source/Filters/tone.h **** {
  14:../../DaisySP//Source/Filters/tone.h ****   public:
  15:../../DaisySP//Source/Filters/tone.h ****     Tone() {}
  16:../../DaisySP//Source/Filters/tone.h ****     ~Tone() {}
 116              		.loc 11 16 5 is_stmt 1 view .LVU21
 117              		.loc 11 16 5 is_stmt 0 view .LVU22
 118              	.LBE250:
 119              	.LBB251:
 120              	.LBI251:
 121              		.file 12 "../../DaisySP//Source/Utility/delayline.h"
   1:../../DaisySP//Source/Utility/delayline.h **** #pragma once
   2:../../DaisySP//Source/Utility/delayline.h **** #ifndef DSY_DELAY_H
   3:../../DaisySP//Source/Utility/delayline.h **** #define DSY_DELAY_H
   4:../../DaisySP//Source/Utility/delayline.h **** #include <stdlib.h>
   5:../../DaisySP//Source/Utility/delayline.h **** #include <stdint.h>
   6:../../DaisySP//Source/Utility/delayline.h **** namespace daisysp
   7:../../DaisySP//Source/Utility/delayline.h **** {
   8:../../DaisySP//Source/Utility/delayline.h **** /** Simple Delay line.
   9:../../DaisySP//Source/Utility/delayline.h **** November 2019
  10:../../DaisySP//Source/Utility/delayline.h **** 
  11:../../DaisySP//Source/Utility/delayline.h **** Converted to Template December 2019
  12:../../DaisySP//Source/Utility/delayline.h **** 
  13:../../DaisySP//Source/Utility/delayline.h **** declaration example: (1 second of floats)
  14:../../DaisySP//Source/Utility/delayline.h **** 
  15:../../DaisySP//Source/Utility/delayline.h **** DelayLine<float, SAMPLE_RATE> del;
  16:../../DaisySP//Source/Utility/delayline.h **** 
  17:../../DaisySP//Source/Utility/delayline.h **** By: shensley
  18:../../DaisySP//Source/Utility/delayline.h **** */
  19:../../DaisySP//Source/Utility/delayline.h **** template <typename T, size_t max_size>
  20:../../DaisySP//Source/Utility/delayline.h **** class DelayLine
  21:../../DaisySP//Source/Utility/delayline.h **** {
  22:../../DaisySP//Source/Utility/delayline.h ****   public:
  23:../../DaisySP//Source/Utility/delayline.h ****     DelayLine() {}
  24:../../DaisySP//Source/Utility/delayline.h ****     ~DelayLine() {}
 122              		.loc 12 24 5 is_stmt 1 view .LVU23
 123              		.loc 12 24 5 is_stmt 0 view .LVU24
 124              	.LBE251:
 125              	.LBB252:
 126              	.LBI252:
 127              		.loc 12 24 5 is_stmt 1 view .LVU25
 128              		.loc 12 24 5 is_stmt 0 view .LVU26
 129              	.LBE252:
 130              		.loc 8 32 16 view .LVU27
 131 0000 7047     		bx	lr
 132              		.cfi_endproc
 133              	.LFE4640:
 135              		.weak	_ZN7daisysp6StringD1Ev
 136              		.thumb_set _ZN7daisysp6StringD1Ev,_ZN7daisysp6StringD2Ev
 137 0002 00BF     		.section	.text._Z13AudioCallbackPKPKfPPfj,"ax",%progbits
ARM GAS  /var/folders/hl/qgbwny5j0fd895c2c41bk3tw0000gp/T//ccBzUL5G.s 			page 13


 138              		.align	1
 139              		.p2align 2,,3
 140              		.global	_Z13AudioCallbackPKPKfPPfj
 141              		.syntax unified
 142              		.thumb
 143              		.thumb_func
 144              		.fpu fpv5-d16
 146              	_Z13AudioCallbackPKPKfPPfj:
 147              	.LVL2:
 148              	.LFB4784:
 149              		.file 13 "KS.cpp"
   1:KS.cpp        **** #include "daisy_patch_sm.h"
   2:KS.cpp        **** #include "daisysp.h"
   3:KS.cpp        **** 
   4:KS.cpp        **** using namespace daisy;
   5:KS.cpp        **** using namespace patch_sm;
   6:KS.cpp        **** using namespace daisysp;
   7:KS.cpp        **** 
   8:KS.cpp        **** String 		 string;
   9:KS.cpp        **** DaisyPatchSM hw;
  10:KS.cpp        **** 
  11:KS.cpp        **** void AudioCallback(AudioHandle::InputBuffer in, AudioHandle::OutputBuffer out, size_t size)
  12:KS.cpp        **** {
 150              		.loc 13 12 1 is_stmt 1 view -0
 151              		.cfi_startproc
 152              		@ args = 0, pretend = 0, frame = 0
 153              		@ frame_needed = 0, uses_anonymous_args = 0
  13:KS.cpp        **** 	hw.ProcessAllControls();
 154              		.loc 13 13 2 view .LVU29
 155              	.LBB278:
 156              	.LBI278:
  66:../../libDaisy//src/daisy_patch_sm.h **** 
  67:../../libDaisy//src/daisy_patch_sm.h ****         /** Initializes the memories, and core peripherals for the Daisy Patch SM */
  68:../../libDaisy//src/daisy_patch_sm.h ****         void Init();
  69:../../libDaisy//src/daisy_patch_sm.h **** 
  70:../../libDaisy//src/daisy_patch_sm.h ****         /** Starts a non-interleaving audio callback */
  71:../../libDaisy//src/daisy_patch_sm.h ****         void StartAudio(AudioHandle::AudioCallback cb);
  72:../../libDaisy//src/daisy_patch_sm.h **** 
  73:../../libDaisy//src/daisy_patch_sm.h ****         /** Starts an interleaving audio callback */
  74:../../libDaisy//src/daisy_patch_sm.h ****         void StartAudio(AudioHandle::InterleavingAudioCallback cb);
  75:../../libDaisy//src/daisy_patch_sm.h **** 
  76:../../libDaisy//src/daisy_patch_sm.h ****         /** Changes the callback that is executing.
  77:../../libDaisy//src/daisy_patch_sm.h ****          *  This may cause clicks if done while audio is processing.
  78:../../libDaisy//src/daisy_patch_sm.h ****          */
  79:../../libDaisy//src/daisy_patch_sm.h ****         void ChangeAudioCallback(AudioHandle::AudioCallback cb);
  80:../../libDaisy//src/daisy_patch_sm.h **** 
  81:../../libDaisy//src/daisy_patch_sm.h ****         /** Changes the callback that is executing.
  82:../../libDaisy//src/daisy_patch_sm.h ****          *  This may cause clicks if done while audio is processing.
  83:../../libDaisy//src/daisy_patch_sm.h ****          */
  84:../../libDaisy//src/daisy_patch_sm.h ****         void ChangeAudioCallback(AudioHandle::InterleavingAudioCallback cb);
  85:../../libDaisy//src/daisy_patch_sm.h **** 
  86:../../libDaisy//src/daisy_patch_sm.h ****         /** Stops the transmission of audio. */
  87:../../libDaisy//src/daisy_patch_sm.h ****         void StopAudio();
  88:../../libDaisy//src/daisy_patch_sm.h **** 
  89:../../libDaisy//src/daisy_patch_sm.h ****         /** Sets the number of samples processed in an audio callback. 
  90:../../libDaisy//src/daisy_patch_sm.h ****          *  This will only take effect on the next invocation of `StartAudio`
  91:../../libDaisy//src/daisy_patch_sm.h ****          */
ARM GAS  /var/folders/hl/qgbwny5j0fd895c2c41bk3tw0000gp/T//ccBzUL5G.s 			page 14


  92:../../libDaisy//src/daisy_patch_sm.h ****         void SetAudioBlockSize(size_t size);
  93:../../libDaisy//src/daisy_patch_sm.h **** 
  94:../../libDaisy//src/daisy_patch_sm.h ****         /** Sets the samplerate for the audio engine 
  95:../../libDaisy//src/daisy_patch_sm.h ****          *  This will set it to the closest valid samplerate. Options being:
  96:../../libDaisy//src/daisy_patch_sm.h ****          *  8kHz, 16kHz, 32kHz, 48kHz, and 96kHz
  97:../../libDaisy//src/daisy_patch_sm.h ****          */
  98:../../libDaisy//src/daisy_patch_sm.h ****         void SetAudioSampleRate(float sr);
  99:../../libDaisy//src/daisy_patch_sm.h **** 
 100:../../libDaisy//src/daisy_patch_sm.h ****         void SetAudioSampleRate(SaiHandle::Config::SampleRate sample_rate);
 101:../../libDaisy//src/daisy_patch_sm.h **** 
 102:../../libDaisy//src/daisy_patch_sm.h ****         /** Returns the number of samples processed in an audio callback */
 103:../../libDaisy//src/daisy_patch_sm.h ****         size_t AudioBlockSize();
 104:../../libDaisy//src/daisy_patch_sm.h **** 
 105:../../libDaisy//src/daisy_patch_sm.h ****         /** Returns the audio engine's samplerate in Hz */
 106:../../libDaisy//src/daisy_patch_sm.h ****         float AudioSampleRate();
 107:../../libDaisy//src/daisy_patch_sm.h **** 
 108:../../libDaisy//src/daisy_patch_sm.h ****         /** Returns the rate at which the audio callback will be called in Hz */
 109:../../libDaisy//src/daisy_patch_sm.h ****         float AudioCallbackRate();
 110:../../libDaisy//src/daisy_patch_sm.h **** 
 111:../../libDaisy//src/daisy_patch_sm.h ****         /** Starts the Control ADCs 
 112:../../libDaisy//src/daisy_patch_sm.h ****          * 
 113:../../libDaisy//src/daisy_patch_sm.h ****          *  This is started automatically when Init() is called.
 114:../../libDaisy//src/daisy_patch_sm.h ****          */
 115:../../libDaisy//src/daisy_patch_sm.h ****         void StartAdc();
 116:../../libDaisy//src/daisy_patch_sm.h **** 
 117:../../libDaisy//src/daisy_patch_sm.h ****         /** Stops the Control ADCs */
 118:../../libDaisy//src/daisy_patch_sm.h ****         void StopAdc();
 119:../../libDaisy//src/daisy_patch_sm.h **** 
 120:../../libDaisy//src/daisy_patch_sm.h ****         /** Reads and filters all of the analog control inputs */
 121:../../libDaisy//src/daisy_patch_sm.h ****         void ProcessAnalogControls();
 122:../../libDaisy//src/daisy_patch_sm.h **** 
 123:../../libDaisy//src/daisy_patch_sm.h ****         /** Reads and debounces any of the digital control inputs 
 124:../../libDaisy//src/daisy_patch_sm.h ****          *  This does nothing on this board at this time.
 125:../../libDaisy//src/daisy_patch_sm.h ****          */
 126:../../libDaisy//src/daisy_patch_sm.h ****         void ProcessDigitalControls();
 127:../../libDaisy//src/daisy_patch_sm.h **** 
 128:../../libDaisy//src/daisy_patch_sm.h ****         /** Does both of the above */
 129:../../libDaisy//src/daisy_patch_sm.h ****         void ProcessAllControls()
 157              		.loc 1 129 14 view .LVU30
 158              	.LBB279:
 130:../../libDaisy//src/daisy_patch_sm.h ****         {
 131:../../libDaisy//src/daisy_patch_sm.h ****             ProcessAnalogControls();
 159              		.loc 1 131 13 view .LVU31
 160              	.LBE279:
 161              	.LBE278:
  12:KS.cpp        **** 	hw.ProcessAllControls();
 162              		.loc 13 12 1 is_stmt 0 view .LVU32
 163 0000 2DE9F843 		push	{r3, r4, r5, r6, r7, r8, r9, lr}
 164              		.cfi_def_cfa_offset 32
 165              		.cfi_offset 3, -32
 166              		.cfi_offset 4, -28
 167              		.cfi_offset 5, -24
 168              		.cfi_offset 6, -20
 169              		.cfi_offset 7, -16
 170              		.cfi_offset 8, -12
 171              		.cfi_offset 9, -8
 172              		.cfi_offset 14, -4
ARM GAS  /var/folders/hl/qgbwny5j0fd895c2c41bk3tw0000gp/T//ccBzUL5G.s 			page 15


 173              	.LBB283:
 174              	.LBB280:
 175              		.loc 1 131 34 view .LVU33
 176 0004 3A48     		ldr	r0, .L16
 177              	.LVL3:
 178              		.loc 1 131 34 view .LVU34
 179              	.LBE280:
 180              	.LBE283:
  12:KS.cpp        **** 	hw.ProcessAllControls();
 181              		.loc 13 12 1 view .LVU35
 182 0006 9046     		mov	r8, r2
 183 0008 0F46     		mov	r7, r1
 184 000a 2DED028B 		vpush.64	{d8}
 185              		.cfi_def_cfa_offset 40
 186              		.cfi_offset 80, -40
 187              		.cfi_offset 81, -36
 188              	.LBB284:
 189              	.LBB281:
 190              		.loc 1 131 34 view .LVU36
 191 000e FFF7FEFF 		bl	_ZN5daisy8patch_sm12DaisyPatchSM21ProcessAnalogControlsEv
 192              	.LVL4:
 132:../../libDaisy//src/daisy_patch_sm.h ****             ProcessDigitalControls();
 193              		.loc 1 132 13 is_stmt 1 view .LVU37
 194              	.LBE281:
 195              	.LBE284:
 196              	.LBB285:
 197              	.LBB286:
 198              		.file 14 "../../DaisySP//Source/Utility/dsp.h"
   1:../../DaisySP//Source/Utility/dsp.h **** /** Helpful defines, functions, and other utilities for use in/with daisysp modules.
   2:../../DaisySP//Source/Utility/dsp.h **** */
   3:../../DaisySP//Source/Utility/dsp.h **** #pragma once
   4:../../DaisySP//Source/Utility/dsp.h **** #ifndef DSY_CORE_DSP
   5:../../DaisySP//Source/Utility/dsp.h **** #define DSY_CORE_DSP
   6:../../DaisySP//Source/Utility/dsp.h **** #include <cassert>
   7:../../DaisySP//Source/Utility/dsp.h **** #include <cstdint>
   8:../../DaisySP//Source/Utility/dsp.h **** #include <random>
   9:../../DaisySP//Source/Utility/dsp.h **** #include <cmath>
  10:../../DaisySP//Source/Utility/dsp.h **** 
  11:../../DaisySP//Source/Utility/dsp.h **** /** PIs
  12:../../DaisySP//Source/Utility/dsp.h **** */
  13:../../DaisySP//Source/Utility/dsp.h **** #define PI_F 3.1415927410125732421875f
  14:../../DaisySP//Source/Utility/dsp.h **** #define TWOPI_F (2.0f * PI_F)
  15:../../DaisySP//Source/Utility/dsp.h **** #define HALFPI_F (PI_F * 0.5f)
  16:../../DaisySP//Source/Utility/dsp.h **** #define DSY_MIN(in, mn) (in < mn ? in : mn)
  17:../../DaisySP//Source/Utility/dsp.h **** #define DSY_MAX(in, mx) (in > mx ? in : mx)
  18:../../DaisySP//Source/Utility/dsp.h **** #define DSY_CLAMP(in, mn, mx) (DSY_MIN(DSY_MAX(in, mn), mx))
  19:../../DaisySP//Source/Utility/dsp.h **** #define DSY_COUNTOF(_arr) (sizeof(_arr) / sizeof(_arr[0]))
  20:../../DaisySP//Source/Utility/dsp.h **** 
  21:../../DaisySP//Source/Utility/dsp.h **** namespace daisysp
  22:../../DaisySP//Source/Utility/dsp.h **** {
  23:../../DaisySP//Source/Utility/dsp.h **** //Avoids division for random floats. e.g. rand() * kRandFrac
  24:../../DaisySP//Source/Utility/dsp.h **** static constexpr float kRandFrac = 1.f / (float)RAND_MAX;
  25:../../DaisySP//Source/Utility/dsp.h **** 
  26:../../DaisySP//Source/Utility/dsp.h **** //Convert from semitones to other units. e.g. 2 ^ (kOneTwelfth * x)
  27:../../DaisySP//Source/Utility/dsp.h **** static constexpr float kOneTwelfth = 1.f / 12.f;
  28:../../DaisySP//Source/Utility/dsp.h **** 
  29:../../DaisySP//Source/Utility/dsp.h **** /** efficient floating point min/max
ARM GAS  /var/folders/hl/qgbwny5j0fd895c2c41bk3tw0000gp/T//ccBzUL5G.s 			page 16


  30:../../DaisySP//Source/Utility/dsp.h **** c/o stephen mccaul
  31:../../DaisySP//Source/Utility/dsp.h **** */
  32:../../DaisySP//Source/Utility/dsp.h **** inline float fmax(float a, float b)
  33:../../DaisySP//Source/Utility/dsp.h **** {
  34:../../DaisySP//Source/Utility/dsp.h ****     float r;
  35:../../DaisySP//Source/Utility/dsp.h **** #ifdef __arm__
  36:../../DaisySP//Source/Utility/dsp.h ****     asm("vmaxnm.f32 %[d], %[n], %[m]" : [d] "=t"(r) : [n] "t"(a), [m] "t"(b) :);
  37:../../DaisySP//Source/Utility/dsp.h **** #else
  38:../../DaisySP//Source/Utility/dsp.h ****     r = (a > b) ? a : b;
  39:../../DaisySP//Source/Utility/dsp.h **** #endif // __arm__
  40:../../DaisySP//Source/Utility/dsp.h ****     return r;
  41:../../DaisySP//Source/Utility/dsp.h **** }
  42:../../DaisySP//Source/Utility/dsp.h **** 
  43:../../DaisySP//Source/Utility/dsp.h **** inline float fmin(float a, float b)
  44:../../DaisySP//Source/Utility/dsp.h **** {
  45:../../DaisySP//Source/Utility/dsp.h ****     float r;
  46:../../DaisySP//Source/Utility/dsp.h **** #ifdef __arm__
  47:../../DaisySP//Source/Utility/dsp.h ****     asm("vminnm.f32 %[d], %[n], %[m]" : [d] "=t"(r) : [n] "t"(a), [m] "t"(b) :);
  48:../../DaisySP//Source/Utility/dsp.h **** #else
  49:../../DaisySP//Source/Utility/dsp.h ****     r = (a < b) ? a : b;
  50:../../DaisySP//Source/Utility/dsp.h **** #endif // __arm__
  51:../../DaisySP//Source/Utility/dsp.h ****     return r;
  52:../../DaisySP//Source/Utility/dsp.h **** }
  53:../../DaisySP//Source/Utility/dsp.h **** 
  54:../../DaisySP//Source/Utility/dsp.h **** /** quick fp clamp
  55:../../DaisySP//Source/Utility/dsp.h **** */
  56:../../DaisySP//Source/Utility/dsp.h **** inline float fclamp(float in, float min, float max)
  57:../../DaisySP//Source/Utility/dsp.h **** {
  58:../../DaisySP//Source/Utility/dsp.h ****     return fmin(fmax(in, min), max);
  59:../../DaisySP//Source/Utility/dsp.h **** }
  60:../../DaisySP//Source/Utility/dsp.h **** 
  61:../../DaisySP//Source/Utility/dsp.h **** /** From Musicdsp.org "Fast power and root estimates for 32bit floats)
  62:../../DaisySP//Source/Utility/dsp.h **** Original code by Stefan Stenzel
  63:../../DaisySP//Source/Utility/dsp.h **** These are approximations
  64:../../DaisySP//Source/Utility/dsp.h **** */
  65:../../DaisySP//Source/Utility/dsp.h **** inline float fastpower(float f, int n)
  66:../../DaisySP//Source/Utility/dsp.h **** {
  67:../../DaisySP//Source/Utility/dsp.h ****     long *lp, l;
  68:../../DaisySP//Source/Utility/dsp.h ****     lp = (long *)(&f);
  69:../../DaisySP//Source/Utility/dsp.h ****     l  = *lp;
  70:../../DaisySP//Source/Utility/dsp.h ****     l -= 0x3F800000;
  71:../../DaisySP//Source/Utility/dsp.h ****     l <<= (n - 1);
  72:../../DaisySP//Source/Utility/dsp.h ****     l += 0x3F800000;
  73:../../DaisySP//Source/Utility/dsp.h ****     *lp = l;
  74:../../DaisySP//Source/Utility/dsp.h ****     return f;
  75:../../DaisySP//Source/Utility/dsp.h **** }
  76:../../DaisySP//Source/Utility/dsp.h **** 
  77:../../DaisySP//Source/Utility/dsp.h **** inline float fastroot(float f, int n)
  78:../../DaisySP//Source/Utility/dsp.h **** {
  79:../../DaisySP//Source/Utility/dsp.h ****     long *lp, l;
  80:../../DaisySP//Source/Utility/dsp.h ****     lp = (long *)(&f);
  81:../../DaisySP//Source/Utility/dsp.h ****     l  = *lp;
  82:../../DaisySP//Source/Utility/dsp.h ****     l -= 0x3F800000;
  83:../../DaisySP//Source/Utility/dsp.h ****     l >>= (n = 1);
  84:../../DaisySP//Source/Utility/dsp.h ****     l += 0x3F800000;
  85:../../DaisySP//Source/Utility/dsp.h ****     *lp = l;
  86:../../DaisySP//Source/Utility/dsp.h ****     return f;
ARM GAS  /var/folders/hl/qgbwny5j0fd895c2c41bk3tw0000gp/T//ccBzUL5G.s 			page 17


  87:../../DaisySP//Source/Utility/dsp.h **** }
  88:../../DaisySP//Source/Utility/dsp.h **** 
  89:../../DaisySP//Source/Utility/dsp.h **** /** From http://openaudio.blogspot.com/2017/02/faster-log10-and-pow.html
  90:../../DaisySP//Source/Utility/dsp.h **** No approximation, pow10f(x) gives a 90% speed increase over powf(10.f, x)
  91:../../DaisySP//Source/Utility/dsp.h **** */
  92:../../DaisySP//Source/Utility/dsp.h **** inline float pow10f(float f)
  93:../../DaisySP//Source/Utility/dsp.h **** {
  94:../../DaisySP//Source/Utility/dsp.h ****     return expf(2.302585092994046f * f);
  95:../../DaisySP//Source/Utility/dsp.h **** }
  96:../../DaisySP//Source/Utility/dsp.h **** 
  97:../../DaisySP//Source/Utility/dsp.h **** /* Original code for fastlog2f by Dr. Paul Beckmann from the ARM community forum, adapted from the 
  98:../../DaisySP//Source/Utility/dsp.h **** About 25% performance increase over std::log10f
  99:../../DaisySP//Source/Utility/dsp.h **** */
 100:../../DaisySP//Source/Utility/dsp.h **** inline float fastlog2f(float f)
 101:../../DaisySP//Source/Utility/dsp.h **** {
 102:../../DaisySP//Source/Utility/dsp.h ****     float frac;
 103:../../DaisySP//Source/Utility/dsp.h ****     int   exp;
 104:../../DaisySP//Source/Utility/dsp.h ****     frac = frexpf(fabsf(f), &exp);
 105:../../DaisySP//Source/Utility/dsp.h ****     f    = 1.23149591368684f;
 106:../../DaisySP//Source/Utility/dsp.h ****     f *= frac;
 107:../../DaisySP//Source/Utility/dsp.h ****     f += -4.11852516267426f;
 108:../../DaisySP//Source/Utility/dsp.h ****     f *= frac;
 109:../../DaisySP//Source/Utility/dsp.h ****     f += 6.02197014179219f;
 110:../../DaisySP//Source/Utility/dsp.h ****     f *= frac;
 111:../../DaisySP//Source/Utility/dsp.h ****     f += -3.13396450166353f;
 112:../../DaisySP//Source/Utility/dsp.h ****     f += exp;
 113:../../DaisySP//Source/Utility/dsp.h ****     return (f);
 114:../../DaisySP//Source/Utility/dsp.h **** }
 115:../../DaisySP//Source/Utility/dsp.h **** 
 116:../../DaisySP//Source/Utility/dsp.h **** inline float fastlog10f(float f)
 117:../../DaisySP//Source/Utility/dsp.h **** {
 118:../../DaisySP//Source/Utility/dsp.h ****     return fastlog2f(f) * 0.3010299956639812f;
 119:../../DaisySP//Source/Utility/dsp.h **** }
 120:../../DaisySP//Source/Utility/dsp.h **** 
 121:../../DaisySP//Source/Utility/dsp.h **** /** Midi to frequency helper
 122:../../DaisySP//Source/Utility/dsp.h **** */
 123:../../DaisySP//Source/Utility/dsp.h **** inline float mtof(float m)
 124:../../DaisySP//Source/Utility/dsp.h **** {
 125:../../DaisySP//Source/Utility/dsp.h ****     return powf(2, (m - 69.0f) / 12.0f) * 440.0f;
 126:../../DaisySP//Source/Utility/dsp.h **** }
 127:../../DaisySP//Source/Utility/dsp.h **** 
 128:../../DaisySP//Source/Utility/dsp.h **** 
 129:../../DaisySP//Source/Utility/dsp.h **** /** one pole lpf
 130:../../DaisySP//Source/Utility/dsp.h **** out is passed by reference, and must be retained between
 131:../../DaisySP//Source/Utility/dsp.h **** calls to properly filter the signal
 132:../../DaisySP//Source/Utility/dsp.h **** coeff can be calculated:
 133:../../DaisySP//Source/Utility/dsp.h **** coeff = 1.0 / (time * sample_rate) ; where time is in seconds
 134:../../DaisySP//Source/Utility/dsp.h **** */
 135:../../DaisySP//Source/Utility/dsp.h **** inline void fonepole(float &out, float in, float coeff)
 136:../../DaisySP//Source/Utility/dsp.h **** {
 137:../../DaisySP//Source/Utility/dsp.h ****     out += coeff * (in - out);
 138:../../DaisySP//Source/Utility/dsp.h **** }
 139:../../DaisySP//Source/Utility/dsp.h **** 
 140:../../DaisySP//Source/Utility/dsp.h **** /** Curves to use with the fmap function */
 141:../../DaisySP//Source/Utility/dsp.h **** enum class Mapping
 142:../../DaisySP//Source/Utility/dsp.h **** {
 143:../../DaisySP//Source/Utility/dsp.h ****     LINEAR,
ARM GAS  /var/folders/hl/qgbwny5j0fd895c2c41bk3tw0000gp/T//ccBzUL5G.s 			page 18


 144:../../DaisySP//Source/Utility/dsp.h ****     EXP,
 145:../../DaisySP//Source/Utility/dsp.h ****     LOG,
 146:../../DaisySP//Source/Utility/dsp.h **** };
 147:../../DaisySP//Source/Utility/dsp.h **** 
 148:../../DaisySP//Source/Utility/dsp.h **** /** Maps a float between a specified range, using a specified curve. 
 149:../../DaisySP//Source/Utility/dsp.h ****  * 
 150:../../DaisySP//Source/Utility/dsp.h ****  *  \param in a value between 0 to 1 that will be mapped to the new range.
 151:../../DaisySP//Source/Utility/dsp.h ****  *  \param min the new minimum value
 152:../../DaisySP//Source/Utility/dsp.h ****  *  \param max the new maxmimum value
 153:../../DaisySP//Source/Utility/dsp.h ****  *  \param curve a Mapping Value to adjust the response curve of the transformation
 154:../../DaisySP//Source/Utility/dsp.h ****  *               defaults to Linear. @see Mapping
 155:../../DaisySP//Source/Utility/dsp.h ****  * 
 156:../../DaisySP//Source/Utility/dsp.h ****  *  When using the log curve min and max, must be greater than zero.
 157:../../DaisySP//Source/Utility/dsp.h ****  * 
 158:../../DaisySP//Source/Utility/dsp.h ****  *  \retval returns the transformed float within the new range.
 159:../../DaisySP//Source/Utility/dsp.h **** */
 160:../../DaisySP//Source/Utility/dsp.h **** inline float
 161:../../DaisySP//Source/Utility/dsp.h **** fmap(float in, float min, float max, Mapping curve = Mapping::LINEAR)
 162:../../DaisySP//Source/Utility/dsp.h **** {
 163:../../DaisySP//Source/Utility/dsp.h ****     switch(curve)
 164:../../DaisySP//Source/Utility/dsp.h ****     {
 165:../../DaisySP//Source/Utility/dsp.h ****         case Mapping::EXP:
 166:../../DaisySP//Source/Utility/dsp.h ****             return fclamp(min + (in * in) * (max - min), min, max);
 167:../../DaisySP//Source/Utility/dsp.h ****         case Mapping::LOG:
 168:../../DaisySP//Source/Utility/dsp.h ****         {
 169:../../DaisySP//Source/Utility/dsp.h ****             const float a = 1.f / log10f(max / min);
 170:../../DaisySP//Source/Utility/dsp.h ****             return fclamp(min * powf(10, in / a), min, max);
 171:../../DaisySP//Source/Utility/dsp.h ****         }
 172:../../DaisySP//Source/Utility/dsp.h ****         case Mapping::LINEAR:
 173:../../DaisySP//Source/Utility/dsp.h ****         default: return fclamp(min + in * (max - min), min, max);
 199              		.loc 14 173 31 is_stmt 0 view .LVU38
 200 0012 9FED388A 		vldr.32	s16, .L16+4
 201              	.LBE286:
 202              	.LBE285:
 203              	.LBB300:
 204              	.LBB282:
 205              		.loc 1 132 35 view .LVU39
 206 0016 3648     		ldr	r0, .L16
 207 0018 FFF7FEFF 		bl	_ZN5daisy8patch_sm12DaisyPatchSM22ProcessDigitalControlsEv
 208              	.LVL5:
 209              		.loc 1 132 35 view .LVU40
 210              	.LBE282:
 211              	.LBE300:
  14:KS.cpp        **** 	float nn, trig; 
 212              		.loc 13 14 2 is_stmt 1 view .LVU41
  15:KS.cpp        **** 
  16:KS.cpp        ****     float coarse_knob = hw.GetAdcValue(CV_1);
 213              		.loc 13 16 5 view .LVU42
 214              		.loc 13 16 39 is_stmt 0 view .LVU43
 215 001c 0021     		movs	r1, #0
 216 001e 3448     		ldr	r0, .L16
 217 0020 FFF7FEFF 		bl	_ZN5daisy8patch_sm12DaisyPatchSM11GetAdcValueEi
 218              	.LVL6:
  17:KS.cpp        ****     float coarse      = fmap(coarse_knob, 36.f, 96.f);
 219              		.loc 13 17 5 is_stmt 1 view .LVU44
 220              	.LBB301:
 221              	.LBI285:
ARM GAS  /var/folders/hl/qgbwny5j0fd895c2c41bk3tw0000gp/T//ccBzUL5G.s 			page 19


 161:../../DaisySP//Source/Utility/dsp.h **** {
 222              		.loc 14 161 1 view .LVU45
 223              	.LBE301:
 163:../../DaisySP//Source/Utility/dsp.h ****     {
 224              		.loc 14 163 5 view .LVU46
 225              	.LBB302:
 226              	.LBB297:
 172:../../DaisySP//Source/Utility/dsp.h ****         default: return fclamp(min + in * (max - min), min, max);
 227              		.loc 14 172 9 view .LVU47
 228              		.loc 14 173 9 view .LVU48
 229              		.loc 14 173 18 view .LVU49
 230              		.loc 14 173 31 is_stmt 0 view .LVU50
 231 0024 B0EE487A 		vmov.f32	s14, s16
 232 0028 DFED338A 		vldr.32	s17, .L16+8
 233              	.LBE297:
 234              	.LBE302:
  18:KS.cpp        **** 
  19:KS.cpp        ****     float voct_cv = hw.GetAdcValue(CV_5);
 235              		.loc 13 19 35 view .LVU51
 236 002c 0421     		movs	r1, #4
 237 002e 3048     		ldr	r0, .L16
 238              	.LBB303:
 239              	.LBB298:
 240              		.loc 14 173 31 view .LVU52
 241 0030 A0EE287A 		vfma.f32	s14, s0, s17
 242              	.LVL7:
 243              	.LBB287:
 244              	.LBI287:
  56:../../DaisySP//Source/Utility/dsp.h **** {
 245              		.loc 14 56 14 is_stmt 1 view .LVU53
 246              	.LBE287:
 247              	.LBE298:
 248              	.LBE303:
  58:../../DaisySP//Source/Utility/dsp.h **** }
 249              		.loc 14 58 5 view .LVU54
 250              	.LBB304:
 251              	.LBB299:
 252              	.LBB296:
 253              	.LBB288:
 254              	.LBI288:
  32:../../DaisySP//Source/Utility/dsp.h **** {
 255              		.loc 14 32 14 view .LVU55
 256              	.LBB289:
  34:../../DaisySP//Source/Utility/dsp.h **** #ifdef __arm__
 257              		.loc 14 34 5 view .LVU56
  36:../../DaisySP//Source/Utility/dsp.h **** #else
 258              		.loc 14 36 5 view .LVU57
 259              	.LBE289:
 260              	.LBE288:
 261              	.LBB291:
 262              	.LBB292:
  47:../../DaisySP//Source/Utility/dsp.h **** #else
 263              		.loc 14 47 5 is_stmt 0 view .LVU58
 264 0034 DFED317A 		vldr.32	s15, .L16+12
 265              	.LBE292:
 266              	.LBE291:
 267              	.LBB294:
ARM GAS  /var/folders/hl/qgbwny5j0fd895c2c41bk3tw0000gp/T//ccBzUL5G.s 			page 20


 268              	.LBB290:
  36:../../DaisySP//Source/Utility/dsp.h **** #else
 269              		.loc 14 36 5 view .LVU59
 270              		.syntax unified
 271              	@ 36 "../../DaisySP//Source/Utility/dsp.h" 1
 272 0038 87FE087A 		vmaxnm.f32 s14, s14, s16
 273              	@ 0 "" 2
 274              	.LVL8:
  40:../../DaisySP//Source/Utility/dsp.h **** }
 275              		.loc 14 40 5 is_stmt 1 view .LVU60
  40:../../DaisySP//Source/Utility/dsp.h **** }
 276              		.loc 14 40 5 is_stmt 0 view .LVU61
 277              		.thumb
 278              		.syntax unified
 279              	.LBE290:
 280              	.LBE294:
 281              	.LBB295:
 282              	.LBI291:
  43:../../DaisySP//Source/Utility/dsp.h **** {
 283              		.loc 14 43 14 is_stmt 1 view .LVU62
 284              	.LBB293:
  45:../../DaisySP//Source/Utility/dsp.h **** #ifdef __arm__
 285              		.loc 14 45 5 view .LVU63
  47:../../DaisySP//Source/Utility/dsp.h **** #else
 286              		.loc 14 47 5 view .LVU64
 287              		.syntax unified
 288              	@ 47 "../../DaisySP//Source/Utility/dsp.h" 1
 289 003c 87FE678A 		vminnm.f32 s16, s14, s15
 290              	@ 0 "" 2
 291              	.LVL9:
  51:../../DaisySP//Source/Utility/dsp.h **** }
 292              		.loc 14 51 5 view .LVU65
  51:../../DaisySP//Source/Utility/dsp.h **** }
 293              		.loc 14 51 5 is_stmt 0 view .LVU66
 294              		.thumb
 295              		.syntax unified
 296              	.LBE293:
 297              	.LBE295:
 298              	.LBE296:
 299              	.LBE299:
 300              	.LBE304:
 301              		.loc 13 19 5 is_stmt 1 view .LVU67
 302              		.loc 13 19 35 is_stmt 0 view .LVU68
 303 0040 FFF7FEFF 		bl	_ZN5daisy8patch_sm12DaisyPatchSM11GetAdcValueEi
 304              	.LVL10:
  20:KS.cpp        ****     float voct    = fmap(voct_cv, 0.f, 60.f);
 305              		.loc 13 20 5 is_stmt 1 view .LVU69
 306              	.LBB305:
 307              	.LBI305:
 161:../../DaisySP//Source/Utility/dsp.h **** {
 308              		.loc 14 161 1 view .LVU70
 309              	.LBE305:
 163:../../DaisySP//Source/Utility/dsp.h ****     {
 310              		.loc 14 163 5 view .LVU71
 311              	.LBB316:
 312              	.LBB306:
 172:../../DaisySP//Source/Utility/dsp.h ****         default: return fclamp(min + in * (max - min), min, max);
ARM GAS  /var/folders/hl/qgbwny5j0fd895c2c41bk3tw0000gp/T//ccBzUL5G.s 			page 21


 313              		.loc 14 172 9 view .LVU72
 314              		.loc 14 173 9 view .LVU73
 315              		.loc 14 173 18 view .LVU74
 316              		.loc 14 173 31 is_stmt 0 view .LVU75
 317 0044 9FED2E7A 		vldr.32	s14, .L16+16
 318              	.LBE306:
 319              	.LBE316:
 320              	.LBB317:
 321              	.LBB318:
 125:../../DaisySP//Source/Utility/dsp.h **** }
 322              		.loc 14 125 23 view .LVU76
 323 0048 DFED2E6A 		vldr.32	s13, .L16+20
 125:../../DaisySP//Source/Utility/dsp.h **** }
 324              		.loc 14 125 16 view .LVU77
 325 004c F2EE080A 		vmov.f32	s1, #1.2e+1
 326              	.LBE318:
 327              	.LBE317:
 328              	.LBB321:
 329              	.LBB313:
 330              		.loc 14 173 31 view .LVU78
 331 0050 F0EE477A 		vmov.f32	s15, s14
 332              	.LBE313:
 333              	.LBE321:
 334              	.LBB322:
 335              	.LBB323:
 336              	.LBB324:
  47:../../DaisySP//Source/Utility/dsp.h **** #else
 337              		.loc 14 47 5 view .LVU79
 338 0054 9FED2C6A 		vldr.32	s12, .L16+24
 339              	.LBE324:
 340              	.LBE323:
 341              	.LBE322:
 342              	.LBB331:
 343              	.LBB314:
 344              		.loc 14 173 31 view .LVU80
 345 0058 E0EE287A 		vfma.f32	s15, s0, s17
 346              	.LVL11:
 347              	.LBB307:
 348              	.LBI307:
  56:../../DaisySP//Source/Utility/dsp.h **** {
 349              		.loc 14 56 14 is_stmt 1 view .LVU81
 350              	.LBE307:
 351              	.LBE314:
 352              	.LBE331:
  58:../../DaisySP//Source/Utility/dsp.h **** }
 353              		.loc 14 58 5 view .LVU82
 354              	.LBB332:
 355              	.LBB315:
 356              	.LBB312:
 357              	.LBB308:
 358              	.LBI308:
  32:../../DaisySP//Source/Utility/dsp.h **** {
 359              		.loc 14 32 14 view .LVU83
 360              	.LBB309:
  34:../../DaisySP//Source/Utility/dsp.h **** #ifdef __arm__
 361              		.loc 14 34 5 view .LVU84
  36:../../DaisySP//Source/Utility/dsp.h **** #else
ARM GAS  /var/folders/hl/qgbwny5j0fd895c2c41bk3tw0000gp/T//ccBzUL5G.s 			page 22


 362              		.loc 14 36 5 view .LVU85
 363              		.syntax unified
 364              	@ 36 "../../DaisySP//Source/Utility/dsp.h" 1
 365 005c C7FE877A 		vmaxnm.f32 s15, s15, s14
 366              	@ 0 "" 2
 367              	.LVL12:
  40:../../DaisySP//Source/Utility/dsp.h **** }
 368              		.loc 14 40 5 view .LVU86
  40:../../DaisySP//Source/Utility/dsp.h **** }
 369              		.loc 14 40 5 is_stmt 0 view .LVU87
 370              		.thumb
 371              		.syntax unified
 372              	.LBE309:
 373              	.LBE308:
 374              	.LBB310:
 375              	.LBI310:
  43:../../DaisySP//Source/Utility/dsp.h **** {
 376              		.loc 14 43 14 is_stmt 1 view .LVU88
 377              	.LBB311:
  45:../../DaisySP//Source/Utility/dsp.h **** #ifdef __arm__
 378              		.loc 14 45 5 view .LVU89
  47:../../DaisySP//Source/Utility/dsp.h **** #else
 379              		.loc 14 47 5 view .LVU90
 380              		.syntax unified
 381              	@ 47 "../../DaisySP//Source/Utility/dsp.h" 1
 382 0060 C7FEE87A 		vminnm.f32 s15, s15, s17
 383              	@ 0 "" 2
 384              	.LVL13:
  51:../../DaisySP//Source/Utility/dsp.h **** }
 385              		.loc 14 51 5 view .LVU91
  51:../../DaisySP//Source/Utility/dsp.h **** }
 386              		.loc 14 51 5 is_stmt 0 view .LVU92
 387              		.thumb
 388              		.syntax unified
 389              	.LBE311:
 390              	.LBE310:
 391              	.LBE312:
 392              	.LBE315:
 393              	.LBE332:
  21:KS.cpp        **** 
  22:KS.cpp        ****     float midi_nn = fclamp(coarse + voct, 0.f, 127.f);
 394              		.loc 13 22 5 is_stmt 1 view .LVU93
 395              	.LBB333:
 396              	.LBI322:
  56:../../DaisySP//Source/Utility/dsp.h **** {
 397              		.loc 14 56 14 view .LVU94
 398              	.LBE333:
  58:../../DaisySP//Source/Utility/dsp.h **** }
 399              		.loc 14 58 5 view .LVU95
 400              	.LBB334:
 401              	.LBB326:
 402              	.LBI326:
  32:../../DaisySP//Source/Utility/dsp.h **** {
 403              		.loc 14 32 14 view .LVU96
 404              	.LBB327:
  34:../../DaisySP//Source/Utility/dsp.h **** #ifdef __arm__
 405              		.loc 14 34 5 view .LVU97
ARM GAS  /var/folders/hl/qgbwny5j0fd895c2c41bk3tw0000gp/T//ccBzUL5G.s 			page 23


  36:../../DaisySP//Source/Utility/dsp.h **** #else
 406              		.loc 14 36 5 view .LVU98
 407              	.LBE327:
 408              	.LBE326:
 409              	.LBE334:
 410              		.loc 13 22 27 is_stmt 0 view .LVU99
 411 0064 77EE887A 		vadd.f32	s15, s15, s16
 412              	.LVL14:
 413              	.LBB335:
 414              	.LBB319:
 125:../../DaisySP//Source/Utility/dsp.h **** }
 415              		.loc 14 125 43 view .LVU100
 416 0068 DFED288A 		vldr.32	s17, .L16+28
 417              	.LBE319:
 418              	.LBE335:
 419              	.LBB336:
 420              	.LBB329:
 421              	.LBB328:
  36:../../DaisySP//Source/Utility/dsp.h **** #else
 422              		.loc 14 36 5 view .LVU101
 423              		.syntax unified
 424              	@ 36 "../../DaisySP//Source/Utility/dsp.h" 1
 425 006c C7FE877A 		vmaxnm.f32 s15, s15, s14
 426              	@ 0 "" 2
 427              	.LVL15:
  40:../../DaisySP//Source/Utility/dsp.h **** }
 428              		.loc 14 40 5 is_stmt 1 view .LVU102
  40:../../DaisySP//Source/Utility/dsp.h **** }
 429              		.loc 14 40 5 is_stmt 0 view .LVU103
 430              		.thumb
 431              		.syntax unified
 432              	.LBE328:
 433              	.LBE329:
 434              	.LBB330:
 435              	.LBI323:
  43:../../DaisySP//Source/Utility/dsp.h **** {
 436              		.loc 14 43 14 is_stmt 1 view .LVU104
 437              	.LBB325:
  45:../../DaisySP//Source/Utility/dsp.h **** #ifdef __arm__
 438              		.loc 14 45 5 view .LVU105
  47:../../DaisySP//Source/Utility/dsp.h **** #else
 439              		.loc 14 47 5 view .LVU106
 440              		.syntax unified
 441              	@ 47 "../../DaisySP//Source/Utility/dsp.h" 1
 442 0070 C7FEC67A 		vminnm.f32 s15, s15, s12
 443              	@ 0 "" 2
 444              	.LVL16:
  51:../../DaisySP//Source/Utility/dsp.h **** }
 445              		.loc 14 51 5 view .LVU107
  51:../../DaisySP//Source/Utility/dsp.h **** }
 446              		.loc 14 51 5 is_stmt 0 view .LVU108
 447              		.thumb
 448              		.syntax unified
 449              	.LBE325:
 450              	.LBE330:
 451              	.LBE336:
  23:KS.cpp        ****     float freq    = mtof(midi_nn);
ARM GAS  /var/folders/hl/qgbwny5j0fd895c2c41bk3tw0000gp/T//ccBzUL5G.s 			page 24


 452              		.loc 13 23 5 is_stmt 1 view .LVU109
 453              	.LBB337:
 454              	.LBI317:
 123:../../DaisySP//Source/Utility/dsp.h **** {
 455              		.loc 14 123 14 view .LVU110
 456              	.LBB320:
 125:../../DaisySP//Source/Utility/dsp.h **** }
 457              		.loc 14 125 5 view .LVU111
 125:../../DaisySP//Source/Utility/dsp.h **** }
 458              		.loc 14 125 23 is_stmt 0 view .LVU112
 459 0074 77EEE67A 		vsub.f32	s15, s15, s13
 460              	.LVL17:
 125:../../DaisySP//Source/Utility/dsp.h **** }
 461              		.loc 14 125 16 view .LVU113
 462 0078 B0EE000A 		vmov.f32	s0, #2.0e+0
 463              	.LVL18:
 125:../../DaisySP//Source/Utility/dsp.h **** }
 464              		.loc 14 125 16 view .LVU114
 465 007c C7EEA00A 		vdiv.f32	s1, s15, s1
 466 0080 FFF7FEFF 		bl	powf
 467              	.LVL19:
 125:../../DaisySP//Source/Utility/dsp.h **** }
 468              		.loc 14 125 43 view .LVU115
 469 0084 60EE288A 		vmul.f32	s17, s0, s17
 470              	.LVL20:
 125:../../DaisySP//Source/Utility/dsp.h **** }
 471              		.loc 14 125 43 view .LVU116
 472              	.LBE320:
 473              	.LBE337:
  24:KS.cpp        **** 
  25:KS.cpp        ****     for(size_t i = 0; i < size; i += 2)
 474              		.loc 13 25 5 is_stmt 1 view .LVU117
 475              	.LBB338:
 476              		.loc 13 25 25 view .LVU118
 477 0088 B8F1000F 		cmp	r8, #0
 478 008c 2BD0     		beq	.L4
 479              		.loc 13 25 16 is_stmt 0 view .LVU119
 480 008e 0025     		movs	r5, #0
 481 0090 1BE0     		b	.L7
 482              	.LVL21:
 483              	.L6:
 484              	.LBB339:
  26:KS.cpp        ****     {
  27:KS.cpp        ****         bool trig = hw.gate_in_1.Trig();
  28:KS.cpp        ****         if(trig)
  29:KS.cpp        ****         {
  30:KS.cpp        ****             string.SetFreq(freq);
  31:KS.cpp        ****         }
  32:KS.cpp        ****         // Output
  33:KS.cpp        ****         OUT_L[i] = string.Process(trig);
 485              		.loc 13 33 9 is_stmt 1 discriminator 2 view .LVU120
 486              		.loc 13 33 34 is_stmt 0 discriminator 2 view .LVU121
 487 0092 07EE904A 		vmov	s15, r4	@ int
 488              		.loc 13 33 16 discriminator 2 view .LVU122
 489 0096 3B68     		ldr	r3, [r7]
 490              		.loc 13 33 34 discriminator 2 view .LVU123
 491 0098 1D48     		ldr	r0, .L16+32
ARM GAS  /var/folders/hl/qgbwny5j0fd895c2c41bk3tw0000gp/T//ccBzUL5G.s 			page 25


 492 009a B8EE678A 		vcvt.f32.u32	s16, s15
 493              		.loc 13 33 16 discriminator 2 view .LVU124
 494 009e 03EB8506 		add	r6, r3, r5, lsl #2
 495              	.LBE339:
  25:KS.cpp        ****     {
 496              		.loc 13 25 35 discriminator 2 view .LVU125
 497 00a2 0235     		adds	r5, r5, #2
 498              	.LVL22:
 499              	.LBB340:
 500              		.loc 13 33 34 discriminator 2 view .LVU126
 501 00a4 B0EE480A 		vmov.f32	s0, s16
 502 00a8 FFF7FEFF 		bl	_ZN7daisysp6String7ProcessEf
 503              	.LVL23:
 504 00ac F0EE407A 		vmov.f32	s15, s0
  34:KS.cpp        ****         OUT_R[i] = string.Process(trig);
 505              		.loc 13 34 16 discriminator 2 view .LVU127
 506 00b0 7C68     		ldr	r4, [r7, #4]
 507              		.loc 13 34 34 discriminator 2 view .LVU128
 508 00b2 B0EE480A 		vmov.f32	s0, s16
 509 00b6 1648     		ldr	r0, .L16+32
  33:KS.cpp        ****         OUT_R[i] = string.Process(trig);
 510              		.loc 13 33 18 discriminator 2 view .LVU129
 511 00b8 C6ED007A 		vstr.32	s15, [r6]
 512              		.loc 13 34 9 is_stmt 1 discriminator 2 view .LVU130
 513              		.loc 13 34 16 is_stmt 0 discriminator 2 view .LVU131
 514 00bc 4C44     		add	r4, r4, r9
 515              		.loc 13 34 34 discriminator 2 view .LVU132
 516 00be FFF7FEFF 		bl	_ZN7daisysp6String7ProcessEf
 517              	.LVL24:
 518              	.LBE340:
  25:KS.cpp        ****     {
 519              		.loc 13 25 25 discriminator 2 view .LVU133
 520 00c2 A845     		cmp	r8, r5
 521              	.LBB341:
 522              		.loc 13 34 18 discriminator 2 view .LVU134
 523 00c4 84ED000A 		vstr.32	s0, [r4]
 524              	.LBE341:
  25:KS.cpp        ****     {
 525              		.loc 13 25 5 is_stmt 1 discriminator 2 view .LVU135
 526              	.LVL25:
  25:KS.cpp        ****     {
 527              		.loc 13 25 25 discriminator 2 view .LVU136
 528 00c8 0DD9     		bls	.L4
 529              	.LVL26:
 530              	.L7:
 531              	.LBB342:
  27:KS.cpp        ****         if(trig)
 532              		.loc 13 27 9 view .LVU137
  27:KS.cpp        ****         if(trig)
 533              		.loc 13 27 38 is_stmt 0 view .LVU138
 534 00ca 1248     		ldr	r0, .L16+36
 535 00cc 4FEA8509 		lsl	r9, r5, #2
 536 00d0 FFF7FEFF 		bl	_ZN5daisy6GateIn4TrigEv
 537              	.LVL27:
  28:KS.cpp        ****         {
 538              		.loc 13 28 9 is_stmt 1 view .LVU139
 539 00d4 0446     		mov	r4, r0
ARM GAS  /var/folders/hl/qgbwny5j0fd895c2c41bk3tw0000gp/T//ccBzUL5G.s 			page 26


 540 00d6 0028     		cmp	r0, #0
 541 00d8 DBD0     		beq	.L6
  30:KS.cpp        ****         }
 542              		.loc 13 30 13 view .LVU140
  30:KS.cpp        ****         }
 543              		.loc 13 30 27 is_stmt 0 view .LVU141
 544 00da B0EE680A 		vmov.f32	s0, s17
 545 00de 0C48     		ldr	r0, .L16+32
 546              	.LVL28:
  30:KS.cpp        ****         }
 547              		.loc 13 30 27 view .LVU142
 548 00e0 FFF7FEFF 		bl	_ZN7daisysp6String7SetFreqEf
 549              	.LVL29:
 550 00e4 D5E7     		b	.L6
 551              	.LVL30:
 552              	.L4:
  30:KS.cpp        ****         }
 553              		.loc 13 30 27 view .LVU143
 554              	.LBE342:
 555              	.LBE338:
  35:KS.cpp        ****     }
  36:KS.cpp        **** }
 556              		.loc 13 36 1 view .LVU144
 557 00e6 BDEC028B 		vldm	sp!, {d8}
 558              		.cfi_restore 80
 559              		.cfi_restore 81
 560              		.cfi_def_cfa_offset 32
 561 00ea BDE8F883 		pop	{r3, r4, r5, r6, r7, r8, r9, pc}
 562              	.LVL31:
 563              	.L17:
 564              		.loc 13 36 1 view .LVU145
 565 00ee 00BF     		.align	2
 566              	.L16:
 567 00f0 00000000 		.word	.LANCHOR0
 568 00f4 00001042 		.word	1108344832
 569 00f8 00007042 		.word	1114636288
 570 00fc 0000C042 		.word	1119879168
 571 0100 00000000 		.word	0
 572 0104 00008A42 		.word	1116340224
 573 0108 0000FE42 		.word	1123942400
 574 010c 0000DC43 		.word	1138491392
 575 0110 00000000 		.word	string
 576 0114 B0010000 		.word	.LANCHOR0+432
 577              		.cfi_endproc
 578              	.LFE4784:
 580              		.section	.text.startup.main,"ax",%progbits
 581              		.align	1
 582              		.p2align 2,,3
 583              		.global	main
 584              		.syntax unified
 585              		.thumb
 586              		.thumb_func
 587              		.fpu fpv5-d16
 589              	main:
 590              	.LFB4785:
  37:KS.cpp        **** 
  38:KS.cpp        **** int main(void)
ARM GAS  /var/folders/hl/qgbwny5j0fd895c2c41bk3tw0000gp/T//ccBzUL5G.s 			page 27


  39:KS.cpp        **** {
 591              		.loc 13 39 1 is_stmt 1 view -0
 592              		.cfi_startproc
 593              		@ Volatile: function does not return.
 594              		@ args = 0, pretend = 0, frame = 0
 595              		@ frame_needed = 0, uses_anonymous_args = 0
  40:KS.cpp        **** 	hw.Init();
 596              		.loc 13 40 2 view .LVU147
  39:KS.cpp        **** 	hw.Init();
 597              		.loc 13 39 1 is_stmt 0 view .LVU148
 598 0000 08B5     		push	{r3, lr}
 599              		.cfi_def_cfa_offset 8
 600              		.cfi_offset 3, -8
 601              		.cfi_offset 14, -4
 602              		.loc 13 40 9 view .LVU149
 603 0002 0C48     		ldr	r0, .L21
 604 0004 FFF7FEFF 		bl	_ZN5daisy8patch_sm12DaisyPatchSM4InitEv
 605              	.LVL32:
  41:KS.cpp        **** 	hw.SetAudioBlockSize(4); // number of samples handled per callback
 606              		.loc 13 41 2 is_stmt 1 view .LVU150
 607              		.loc 13 41 22 is_stmt 0 view .LVU151
 608 0008 0421     		movs	r1, #4
 609 000a 0A48     		ldr	r0, .L21
 610 000c FFF7FEFF 		bl	_ZN5daisy8patch_sm12DaisyPatchSM17SetAudioBlockSizeEj
 611              	.LVL33:
  42:KS.cpp        **** 	hw.SetAudioSampleRate(SaiHandle::Config::SampleRate::SAI_48KHZ);
 612              		.loc 13 42 2 is_stmt 1 view .LVU152
 613              		.loc 13 42 23 is_stmt 0 view .LVU153
 614 0010 0321     		movs	r1, #3
 615 0012 0848     		ldr	r0, .L21
 616 0014 FFF7FEFF 		bl	_ZN5daisy8patch_sm12DaisyPatchSM18SetAudioSampleRateENS_9SaiHandle6Config10SampleRateE
 617              	.LVL34:
  43:KS.cpp        **** 
  44:KS.cpp        ****     // Set up Pluck algo
  45:KS.cpp        ****     string.Init(hw.AudioSampleRate());
 618              		.loc 13 45 5 is_stmt 1 view .LVU154
 619              		.loc 13 45 16 is_stmt 0 view .LVU155
 620 0018 0648     		ldr	r0, .L21
 621 001a FFF7FEFF 		bl	_ZN5daisy8patch_sm12DaisyPatchSM15AudioSampleRateEv
 622              	.LVL35:
 623 001e 0648     		ldr	r0, .L21+4
 624 0020 FFF7FEFF 		bl	_ZN7daisysp6String4InitEf
 625              	.LVL36:
  46:KS.cpp        **** 
  47:KS.cpp        **** 	hw.StartAdc();
 626              		.loc 13 47 2 is_stmt 1 view .LVU156
 627              		.loc 13 47 13 is_stmt 0 view .LVU157
 628 0024 0348     		ldr	r0, .L21
 629 0026 FFF7FEFF 		bl	_ZN5daisy8patch_sm12DaisyPatchSM8StartAdcEv
 630              	.LVL37:
  48:KS.cpp        **** 	hw.StartAudio(AudioCallback);
 631              		.loc 13 48 2 is_stmt 1 view .LVU158
 632              		.loc 13 48 15 is_stmt 0 view .LVU159
 633 002a 0449     		ldr	r1, .L21+8
 634 002c 0148     		ldr	r0, .L21
 635 002e FFF7FEFF 		bl	_ZN5daisy8patch_sm12DaisyPatchSM10StartAudioEPFvPKPKfPPfjE
 636              	.LVL38:
ARM GAS  /var/folders/hl/qgbwny5j0fd895c2c41bk3tw0000gp/T//ccBzUL5G.s 			page 28


 637              	.L19:
  49:KS.cpp        **** 	while(1) {}
 638              		.loc 13 49 2 is_stmt 1 discriminator 1 view .LVU160
 639              		.loc 13 49 2 discriminator 1 view .LVU161
 640              		.loc 13 49 2 discriminator 1 view .LVU162
 641              		.loc 13 49 2 discriminator 1 view .LVU163
 642 0032 FEE7     		b	.L19
 643              	.L22:
 644              		.align	2
 645              	.L21:
 646 0034 00000000 		.word	.LANCHOR0
 647 0038 00000000 		.word	string
 648 003c 00000000 		.word	_Z13AudioCallbackPKPKfPPfj
 649              		.cfi_endproc
 650              	.LFE4785:
 652              		.section	.text.startup._GLOBAL__sub_I_string,"ax",%progbits
 653              		.align	1
 654              		.p2align 2,,3
 655              		.syntax unified
 656              		.thumb
 657              		.thumb_func
 658              		.fpu fpv5-d16
 660              	_GLOBAL__sub_I_string:
 661              	.LFB5345:
  50:KS.cpp        **** }
 662              		.loc 13 50 1 view -0
 663              		.cfi_startproc
 664              		@ args = 0, pretend = 0, frame = 0
 665              		@ frame_needed = 0, uses_anonymous_args = 0
 666              	.LBB383:
 667              	.LBI383:
 668              		.loc 13 50 1 view .LVU165
 669              	.LVL39:
 670              	.LBB384:
 671              	.LBB385:
 672              	.LBI385:
  31:../../DaisySP//Source/PhysicalModeling/KarplusString.h ****     ~String() {}
 673              		.loc 8 31 5 view .LVU166
 674              	.LBB386:
 675              	.LBB387:
 676              	.LBI387:
  23:../../DaisySP//Source/Utility/delayline.h ****     ~DelayLine() {}
 677              		.loc 12 23 5 view .LVU167
  23:../../DaisySP//Source/Utility/delayline.h ****     ~DelayLine() {}
 678              		.loc 12 23 5 is_stmt 0 view .LVU168
 679              	.LBE387:
 680              	.LBB388:
 681              	.LBI388:
  23:../../DaisySP//Source/Utility/delayline.h ****     ~DelayLine() {}
 682              		.loc 12 23 5 is_stmt 1 view .LVU169
  23:../../DaisySP//Source/Utility/delayline.h ****     ~DelayLine() {}
 683              		.loc 12 23 5 is_stmt 0 view .LVU170
 684              	.LBE388:
 685              	.LBB389:
 686              	.LBI389:
  15:../../DaisySP//Source/Filters/tone.h ****     ~Tone() {}
 687              		.loc 11 15 5 is_stmt 1 view .LVU171
ARM GAS  /var/folders/hl/qgbwny5j0fd895c2c41bk3tw0000gp/T//ccBzUL5G.s 			page 29


  15:../../DaisySP//Source/Filters/tone.h ****     ~Tone() {}
 688              		.loc 11 15 5 is_stmt 0 view .LVU172
 689              	.LBE389:
 690              	.LBB390:
 691              	.LBI390:
  14:../../DaisySP//Source/Utility/dcblock.h ****     ~DcBlock(){};
 692              		.loc 10 14 5 is_stmt 1 view .LVU173
  14:../../DaisySP//Source/Utility/dcblock.h ****     ~DcBlock(){};
 693              		.loc 10 14 5 is_stmt 0 view .LVU174
 694              	.LBE390:
 695              	.LBB391:
 696              	.LBI391:
  36:../../DaisySP//Source/Dynamics/crossfade.h ****     ~CrossFade() {}
 697              		.loc 9 36 5 is_stmt 1 view .LVU175
  36:../../DaisySP//Source/Dynamics/crossfade.h ****     ~CrossFade() {}
 698              		.loc 9 36 5 is_stmt 0 view .LVU176
 699              	.LBE391:
 700              	.LBE386:
 701              	.LBE385:
 702              	.LBE384:
 703              	.LBE383:
 704              		.loc 13 50 1 view .LVU177
 705 0000 08B5     		push	{r3, lr}
 706              		.cfi_def_cfa_offset 8
 707              		.cfi_offset 3, -8
 708              		.cfi_offset 14, -4
 709              	.LBB426:
 710              	.LBB423:
   8:KS.cpp        **** DaisyPatchSM hw;
 711              		.loc 13 8 11 view .LVU178
 712 0002 084A     		ldr	r2, .L25
 713 0004 0849     		ldr	r1, .L25+4
 714 0006 0948     		ldr	r0, .L25+8
 715 0008 FFF7FEFF 		bl	__aeabi_atexit
 716              	.LVL40:
 717              	.LBB392:
 718              	.LBI392:
  64:../../libDaisy//src/daisy_patch_sm.h ****         ~DaisyPatchSM() {}
 719              		.loc 1 64 9 is_stmt 1 view .LVU179
 720              	.LBB393:
 721              	.LBB394:
 722              	.LBI394:
  77:../../libDaisy//src/sys/system.h ****     ~System() {}
 723              		.loc 7 77 5 view .LVU180
  77:../../libDaisy//src/sys/system.h ****     ~System() {}
 724              		.loc 7 77 5 is_stmt 0 view .LVU181
 725              	.LBE394:
 726              	.LBB395:
 727              	.LBI395:
 728              		.file 15 "../../libDaisy//src/per/qspi.h"
   1:../../libDaisy//src/per/qspi.h **** #ifndef DSY_QSPI
   2:../../libDaisy//src/per/qspi.h **** #define DSY_QSPI /**< Macro */
   3:../../libDaisy//src/per/qspi.h **** 
   4:../../libDaisy//src/per/qspi.h **** #ifndef UNIT_TEST // for unit tests, a dummy implementation
   5:../../libDaisy//src/per/qspi.h **** 
   6:../../libDaisy//src/per/qspi.h **** #include <cstdint>
   7:../../libDaisy//src/per/qspi.h **** #include "daisy_core.h" // Added for dsy_gpio_pin typedef
ARM GAS  /var/folders/hl/qgbwny5j0fd895c2c41bk3tw0000gp/T//ccBzUL5G.s 			page 30


   8:../../libDaisy//src/per/qspi.h **** 
   9:../../libDaisy//src/per/qspi.h **** #define DSY_QSPI_TEXT       \
  10:../../libDaisy//src/per/qspi.h ****     __attribute__((section( \
  11:../../libDaisy//src/per/qspi.h ****         ".qspiflash_text"))) /**< used for reading memory in memory_mapped mode. */
  12:../../libDaisy//src/per/qspi.h **** #define DSY_QSPI_DATA       \
  13:../../libDaisy//src/per/qspi.h ****     __attribute__((section( \
  14:../../libDaisy//src/per/qspi.h ****         ".qspiflash_data"))) /**< used for reading memory in memory_mapped mode. */
  15:../../libDaisy//src/per/qspi.h **** #define DSY_QSPI_BSS        \
  16:../../libDaisy//src/per/qspi.h ****     __attribute__((section( \
  17:../../libDaisy//src/per/qspi.h ****         ".qspiflash_bss"))) /**< used for reading memory in memory_mapped mode. */
  18:../../libDaisy//src/per/qspi.h **** 
  19:../../libDaisy//src/per/qspi.h **** namespace daisy
  20:../../libDaisy//src/per/qspi.h **** {
  21:../../libDaisy//src/per/qspi.h **** /** @addtogroup serial
  22:../../libDaisy//src/per/qspi.h **** @{
  23:../../libDaisy//src/per/qspi.h **** */
  24:../../libDaisy//src/per/qspi.h **** 
  25:../../libDaisy//src/per/qspi.h **** /** 
  26:../../libDaisy//src/per/qspi.h ****  Driver for QSPI peripheral to interface with external flash memory. \n 
  27:../../libDaisy//src/per/qspi.h ****     Currently supported QSPI Devices: \n 
  28:../../libDaisy//src/per/qspi.h ****     * IS25LP080D
  29:../../libDaisy//src/per/qspi.h **** */
  30:../../libDaisy//src/per/qspi.h **** class QSPIHandle
  31:../../libDaisy//src/per/qspi.h **** {
  32:../../libDaisy//src/per/qspi.h ****   public:
  33:../../libDaisy//src/per/qspi.h ****     enum Result
  34:../../libDaisy//src/per/qspi.h ****     {
  35:../../libDaisy//src/per/qspi.h ****         OK = 0,
  36:../../libDaisy//src/per/qspi.h ****         ERR
  37:../../libDaisy//src/per/qspi.h ****     };
  38:../../libDaisy//src/per/qspi.h **** 
  39:../../libDaisy//src/per/qspi.h ****     /** Indicates the current status of the module. 
  40:../../libDaisy//src/per/qspi.h ****          *  Warnings are indicated by a leading W.
  41:../../libDaisy//src/per/qspi.h ****          *  Errors are indicated by a leading E and cause an immediate exit.
  42:../../libDaisy//src/per/qspi.h ****          * 
  43:../../libDaisy//src/per/qspi.h ****          *  \param GOOD - No errors have been reported.
  44:../../libDaisy//src/per/qspi.h ****          *  \param E_HAL_ERROR - HAL code did not return HAL_OK.
  45:../../libDaisy//src/per/qspi.h ****          *  \param E_SWITCHING_MODES - An error was encountered while switching QSPI peripheral mod
  46:../../libDaisy//src/per/qspi.h ****          *  \param E_INVALID_MODE - QSPI should not be written to while the program is executing fr
  47:../../libDaisy//src/per/qspi.h ****          */
  48:../../libDaisy//src/per/qspi.h ****     enum Status
  49:../../libDaisy//src/per/qspi.h ****     {
  50:../../libDaisy//src/per/qspi.h ****         GOOD = 0,
  51:../../libDaisy//src/per/qspi.h ****         E_HAL_ERROR,
  52:../../libDaisy//src/per/qspi.h ****         E_SWITCHING_MODES,
  53:../../libDaisy//src/per/qspi.h ****         E_INVALID_MODE,
  54:../../libDaisy//src/per/qspi.h ****     };
  55:../../libDaisy//src/per/qspi.h **** 
  56:../../libDaisy//src/per/qspi.h ****     /** Configuration structure for interfacing with QSPI Driver */
  57:../../libDaisy//src/per/qspi.h ****     struct Config
  58:../../libDaisy//src/per/qspi.h ****     {
  59:../../libDaisy//src/per/qspi.h ****         /** Flash Devices supported. (Both of these are more-or-less the same, just different sizes
  60:../../libDaisy//src/per/qspi.h ****         enum Device
  61:../../libDaisy//src/per/qspi.h ****         {
  62:../../libDaisy//src/per/qspi.h ****             IS25LP080D,  /**< & */
  63:../../libDaisy//src/per/qspi.h ****             IS25LP064A,  /**< & */
  64:../../libDaisy//src/per/qspi.h ****             DEVICE_LAST, /**< & */
ARM GAS  /var/folders/hl/qgbwny5j0fd895c2c41bk3tw0000gp/T//ccBzUL5G.s 			page 31


  65:../../libDaisy//src/per/qspi.h ****         };
  66:../../libDaisy//src/per/qspi.h **** 
  67:../../libDaisy//src/per/qspi.h ****         /** 
  68:../../libDaisy//src/per/qspi.h ****         Modes of operation.
  69:../../libDaisy//src/per/qspi.h ****         Memory Mapped mode: QSPI configured so that the QSPI can be
  70:../../libDaisy//src/per/qspi.h ****         read from starting address 0x90000000. Writing is not
  71:../../libDaisy//src/per/qspi.h ****         possible in this mode. \n 
  72:../../libDaisy//src/per/qspi.h ****         Indirect Polling mode: Device driver enabled. 
  73:../../libDaisy//src/per/qspi.h ****         */
  74:../../libDaisy//src/per/qspi.h ****         enum Mode
  75:../../libDaisy//src/per/qspi.h ****         {
  76:../../libDaisy//src/per/qspi.h ****             MEMORY_MAPPED,    /**< & */
  77:../../libDaisy//src/per/qspi.h ****             INDIRECT_POLLING, /**< & */
  78:../../libDaisy//src/per/qspi.h ****             MODE_LAST,
  79:../../libDaisy//src/per/qspi.h ****         };
  80:../../libDaisy//src/per/qspi.h **** 
  81:../../libDaisy//src/per/qspi.h ****         //SCK,  CE# (active low)
  82:../../libDaisy//src/per/qspi.h ****         struct
  83:../../libDaisy//src/per/qspi.h ****         {
  84:../../libDaisy//src/per/qspi.h ****             dsy_gpio_pin io0; /**< & */
  85:../../libDaisy//src/per/qspi.h ****             dsy_gpio_pin io1; /**< & */
  86:../../libDaisy//src/per/qspi.h ****             dsy_gpio_pin io2; /**< & */
  87:../../libDaisy//src/per/qspi.h ****             dsy_gpio_pin io3; /**< & */
  88:../../libDaisy//src/per/qspi.h ****             dsy_gpio_pin clk; /**< & */
  89:../../libDaisy//src/per/qspi.h ****             dsy_gpio_pin ncs; /**< & */
  90:../../libDaisy//src/per/qspi.h ****         } pin_config;
  91:../../libDaisy//src/per/qspi.h **** 
  92:../../libDaisy//src/per/qspi.h ****         Device device;
  93:../../libDaisy//src/per/qspi.h ****         Mode   mode;
  94:../../libDaisy//src/per/qspi.h ****     };
  95:../../libDaisy//src/per/qspi.h **** 
  96:../../libDaisy//src/per/qspi.h ****     /** 
  97:../../libDaisy//src/per/qspi.h ****         Initializes QSPI peripheral, and Resets, and prepares memory for access.
  98:../../libDaisy//src/per/qspi.h ****         \param config should be populated with the mode, device and pin_config before calling this 
  99:../../libDaisy//src/per/qspi.h ****         \return Result::OK or Result::ERR
 100:../../libDaisy//src/per/qspi.h ****         */
 101:../../libDaisy//src/per/qspi.h ****     Result Init(const Config& config);
 102:../../libDaisy//src/per/qspi.h **** 
 103:../../libDaisy//src/per/qspi.h ****     /** Returns the current config. */
 104:../../libDaisy//src/per/qspi.h ****     const Config& GetConfig() const;
 105:../../libDaisy//src/per/qspi.h **** 
 106:../../libDaisy//src/per/qspi.h ****     // Couldn't this just be called before anything else in init? That
 107:../../libDaisy//src/per/qspi.h ****     // would make manually calling it unnecessary.
 108:../../libDaisy//src/per/qspi.h ****     /** 
 109:../../libDaisy//src/per/qspi.h ****         Deinitializes the peripheral
 110:../../libDaisy//src/per/qspi.h ****         This should be called before reinitializing QSPI in a different mode.
 111:../../libDaisy//src/per/qspi.h ****         \return Result::OK or Result::ERR
 112:../../libDaisy//src/per/qspi.h ****         */
 113:../../libDaisy//src/per/qspi.h ****     Result DeInit();
 114:../../libDaisy//src/per/qspi.h **** 
 115:../../libDaisy//src/per/qspi.h ****     /** 
 116:../../libDaisy//src/per/qspi.h ****         Writes a single page to to the specified address on the QSPI chip.
 117:../../libDaisy//src/per/qspi.h ****         For IS25LP*, page size is 256 bytes.
 118:../../libDaisy//src/per/qspi.h ****         \param address Address to write to
 119:../../libDaisy//src/per/qspi.h ****         \param size Buffer size
 120:../../libDaisy//src/per/qspi.h ****         \param buffer Buffer to write
 121:../../libDaisy//src/per/qspi.h ****         \return Result::OK or Result::ERR
ARM GAS  /var/folders/hl/qgbwny5j0fd895c2c41bk3tw0000gp/T//ccBzUL5G.s 			page 32


 122:../../libDaisy//src/per/qspi.h ****         */
 123:../../libDaisy//src/per/qspi.h ****     Result WritePage(uint32_t address, uint32_t size, uint8_t* buffer);
 124:../../libDaisy//src/per/qspi.h **** 
 125:../../libDaisy//src/per/qspi.h ****     /** 
 126:../../libDaisy//src/per/qspi.h ****         Writes data in buffer to to the QSPI. Starting at address to address+size 
 127:../../libDaisy//src/per/qspi.h ****         \param address Address to write to
 128:../../libDaisy//src/per/qspi.h ****         \param size Buffer size
 129:../../libDaisy//src/per/qspi.h ****         \param buffer Buffer to write
 130:../../libDaisy//src/per/qspi.h ****         \return Result::OK or Result::ERR
 131:../../libDaisy//src/per/qspi.h ****         */
 132:../../libDaisy//src/per/qspi.h ****     Result Write(uint32_t address, uint32_t size, uint8_t* buffer);
 133:../../libDaisy//src/per/qspi.h **** 
 134:../../libDaisy//src/per/qspi.h ****     /** 
 135:../../libDaisy//src/per/qspi.h ****         Erases the area specified on the chip.
 136:../../libDaisy//src/per/qspi.h ****         Erasures will happen by 4K, 32K or 64K increments.
 137:../../libDaisy//src/per/qspi.h ****         Smallest erase possible is 4kB at a time. (on IS25LP*)
 138:../../libDaisy//src/per/qspi.h ****         \param start_addr Address to begin erasing from
 139:../../libDaisy//src/per/qspi.h ****         \param end_addr  Address to stop erasing at
 140:../../libDaisy//src/per/qspi.h ****         \return Result::OK or Result::ERR
 141:../../libDaisy//src/per/qspi.h ****         */
 142:../../libDaisy//src/per/qspi.h ****     Result Erase(uint32_t start_addr, uint32_t end_addr);
 143:../../libDaisy//src/per/qspi.h **** 
 144:../../libDaisy//src/per/qspi.h ****     /**  
 145:../../libDaisy//src/per/qspi.h ****          Erases a single sector of the chip.  
 146:../../libDaisy//src/per/qspi.h ****         TODO: Document the size of this function. 
 147:../../libDaisy//src/per/qspi.h ****         \param address Address of sector to erase
 148:../../libDaisy//src/per/qspi.h ****         \return Result::OK or Result::ERR
 149:../../libDaisy//src/per/qspi.h ****         */
 150:../../libDaisy//src/per/qspi.h ****     Result EraseSector(uint32_t address);
 151:../../libDaisy//src/per/qspi.h **** 
 152:../../libDaisy//src/per/qspi.h ****     /** Returns the current class status. Useful for debugging.
 153:../../libDaisy//src/per/qspi.h ****      *  \returns Status
 154:../../libDaisy//src/per/qspi.h ****      */
 155:../../libDaisy//src/per/qspi.h ****     Status GetStatus();
 156:../../libDaisy//src/per/qspi.h **** 
 157:../../libDaisy//src/per/qspi.h ****     /** Returns a pointer to the actual memory used 
 158:../../libDaisy//src/per/qspi.h ****      *  The memory at this address is read-only
 159:../../libDaisy//src/per/qspi.h ****      *  to write to it use the Write function.
 160:../../libDaisy//src/per/qspi.h ****      * 
 161:../../libDaisy//src/per/qspi.h ****      *  \param offset returns the pointer starting this 
 162:../../libDaisy//src/per/qspi.h ****      *                many bytes into the memory
 163:../../libDaisy//src/per/qspi.h ****     */
 164:../../libDaisy//src/per/qspi.h ****     void* GetData(uint32_t offset = 0);
 165:../../libDaisy//src/per/qspi.h **** 
 166:../../libDaisy//src/per/qspi.h ****     QSPIHandle() : pimpl_(nullptr) {}
 729              		.loc 15 166 5 is_stmt 1 view .LVU182
 730              	.LBB396:
 731              	.LBB397:
 732              		.loc 15 166 34 is_stmt 0 view .LVU183
 733 000c 0023     		movs	r3, #0
 734 000e 0848     		ldr	r0, .L25+12
 735              	.LBE397:
 736              	.LBE396:
 737              	.LBE395:
 738              	.LBE393:
 739              	.LBE392:
   9:KS.cpp        **** 
ARM GAS  /var/folders/hl/qgbwny5j0fd895c2c41bk3tw0000gp/T//ccBzUL5G.s 			page 33


 740              		.loc 13 9 14 view .LVU184
 741 0010 044A     		ldr	r2, .L25
 742              	.LBB420:
 743              	.LBB417:
 744              	.LBB398:
 745              	.LBB399:
 746              	.LBB400:
 747              	.LBB401:
 748              	.LBB402:
 749              		.file 16 "../../libDaisy//src/per/i2c.h"
   1:../../libDaisy//src/per/i2c.h **** #pragma once
   2:../../libDaisy//src/per/i2c.h **** #include "daisy_core.h"
   3:../../libDaisy//src/per/i2c.h **** 
   4:../../libDaisy//src/per/i2c.h **** namespace daisy
   5:../../libDaisy//src/per/i2c.h **** {
   6:../../libDaisy//src/per/i2c.h **** /** A handle for interacting with an I2C peripheral. This is a dumb
   7:../../libDaisy//src/per/i2c.h ****  *  gateway that internally points to one of the four I2C peripherals
   8:../../libDaisy//src/per/i2c.h ****  *  after it was initialised. It can then be copied and passed around.
   9:../../libDaisy//src/per/i2c.h ****  *  Use an I2CHandle like this:
  10:../../libDaisy//src/per/i2c.h ****  *  
  11:../../libDaisy//src/per/i2c.h ****  *      // setup the configuration
  12:../../libDaisy//src/per/i2c.h ****  *      I2CHandle::Config i2c_conf;
  13:../../libDaisy//src/per/i2c.h ****  *      i2c_conf.periph = I2CHandle::Config::Peripheral::I2C_1;
  14:../../libDaisy//src/per/i2c.h ****  *      i2c_conf.speed  = I2CHandle::Config::Speed::I2C_400KHZ;
  15:../../libDaisy//src/per/i2c.h ****  *      i2c_conf.mode   = I2CHandle::Config::Mode::Master;
  16:../../libDaisy//src/per/i2c.h ****  *      i2c_conf.pin_config.scl  = {DSY_GPIOB, 8};
  17:../../libDaisy//src/per/i2c.h ****  *      i2c_conf.pin_config.sda  = {DSY_GPIOB, 9};
  18:../../libDaisy//src/per/i2c.h ****  *      // initialise the peripheral
  19:../../libDaisy//src/per/i2c.h ****  *      I2CHandle i2c;
  20:../../libDaisy//src/per/i2c.h ****  *      i2c.Init(i2c_conf);
  21:../../libDaisy//src/per/i2c.h ****  *      // now i2c points to the corresponding peripheral and can be used.
  22:../../libDaisy//src/per/i2c.h ****  *      i2c.TransmitBlocking( ... );
  23:../../libDaisy//src/per/i2c.h ****  */
  24:../../libDaisy//src/per/i2c.h **** class I2CHandle
  25:../../libDaisy//src/per/i2c.h **** {
  26:../../libDaisy//src/per/i2c.h ****   public:
  27:../../libDaisy//src/per/i2c.h ****     /** Contains settings for initialising an I2C interface. */
  28:../../libDaisy//src/per/i2c.h ****     struct Config
  29:../../libDaisy//src/per/i2c.h ****     {
  30:../../libDaisy//src/per/i2c.h ****         /** Specifies whether the interface will operate in master or slave mode. */
  31:../../libDaisy//src/per/i2c.h ****         enum class Mode
  32:../../libDaisy//src/per/i2c.h ****         {
  33:../../libDaisy//src/per/i2c.h ****             I2C_MASTER,
  34:../../libDaisy//src/per/i2c.h ****             I2C_SLAVE,
  35:../../libDaisy//src/per/i2c.h ****         };
  36:../../libDaisy//src/per/i2c.h **** 
  37:../../libDaisy//src/per/i2c.h ****         /** Specifices the internal peripheral to use (these are mapped to different pins on the ha
  38:../../libDaisy//src/per/i2c.h ****         enum class Peripheral
  39:../../libDaisy//src/per/i2c.h ****         {
  40:../../libDaisy//src/per/i2c.h ****             I2C_1 = 0, /**< & */
  41:../../libDaisy//src/per/i2c.h ****             I2C_2,     /**< & */
  42:../../libDaisy//src/per/i2c.h ****             I2C_3,     /**< & */
  43:../../libDaisy//src/per/i2c.h ****             I2C_4,     /**< & */
  44:../../libDaisy//src/per/i2c.h ****         };
  45:../../libDaisy//src/per/i2c.h **** 
  46:../../libDaisy//src/per/i2c.h ****         /** Rate at which the clock/data will be sent/received. The device being used will have max
  47:../../libDaisy//src/per/i2c.h ****          *  1MHZ Mode is currently 886kHz
ARM GAS  /var/folders/hl/qgbwny5j0fd895c2c41bk3tw0000gp/T//ccBzUL5G.s 			page 34


  48:../../libDaisy//src/per/i2c.h ****          */
  49:../../libDaisy//src/per/i2c.h ****         enum class Speed
  50:../../libDaisy//src/per/i2c.h ****         {
  51:../../libDaisy//src/per/i2c.h ****             I2C_100KHZ, /**< & */
  52:../../libDaisy//src/per/i2c.h ****             I2C_400KHZ, /**< & */
  53:../../libDaisy//src/per/i2c.h ****             I2C_1MHZ,   /**< & */
  54:../../libDaisy//src/per/i2c.h ****         };
  55:../../libDaisy//src/per/i2c.h **** 
  56:../../libDaisy//src/per/i2c.h ****         Peripheral periph; /**< & */
  57:../../libDaisy//src/per/i2c.h ****         struct
  58:../../libDaisy//src/per/i2c.h ****         {
  59:../../libDaisy//src/per/i2c.h ****             dsy_gpio_pin scl; /**< & */
  60:../../libDaisy//src/per/i2c.h ****             dsy_gpio_pin sda; /**< & */
  61:../../libDaisy//src/per/i2c.h ****         } pin_config;         /**< & */
  62:../../libDaisy//src/per/i2c.h **** 
  63:../../libDaisy//src/per/i2c.h ****         Speed speed; /**< & */
  64:../../libDaisy//src/per/i2c.h ****         Mode  mode;  /**< & */
  65:../../libDaisy//src/per/i2c.h ****         // 0x10 is chosen as a default to avoid conflicts with reserved addresses
  66:../../libDaisy//src/per/i2c.h ****         uint8_t address = 0x10; /**< & */
  67:../../libDaisy//src/per/i2c.h ****     };
  68:../../libDaisy//src/per/i2c.h **** 
  69:../../libDaisy//src/per/i2c.h ****     /** Return values for I2C functions. */
  70:../../libDaisy//src/per/i2c.h ****     enum class Result
  71:../../libDaisy//src/per/i2c.h ****     {
  72:../../libDaisy//src/per/i2c.h ****         OK, /**< & */
  73:../../libDaisy//src/per/i2c.h ****         ERR /**< & */
  74:../../libDaisy//src/per/i2c.h ****     };
  75:../../libDaisy//src/per/i2c.h **** 
  76:../../libDaisy//src/per/i2c.h ****     enum class Direction
  77:../../libDaisy//src/per/i2c.h ****     {
  78:../../libDaisy//src/per/i2c.h ****         TRANSMIT, /**< & */
  79:../../libDaisy//src/per/i2c.h ****         RECEIVE,  /**< & */
  80:../../libDaisy//src/per/i2c.h ****     };
  81:../../libDaisy//src/per/i2c.h **** 
  82:../../libDaisy//src/per/i2c.h ****     I2CHandle() : pimpl_(nullptr) {}
 750              		.loc 16 82 33 view .LVU185
 751 0012 0362     		str	r3, [r0, #32]
 752              	.LBE402:
 753              	.LBE401:
 754              	.LBE400:
 755              	.LBE399:
 756              	.LBE398:
 757              	.LBB405:
 758              	.LBB406:
 759              	.LBB407:
 760              		.file 17 "../../libDaisy//src/per/dac.h"
   1:../../libDaisy//src/per/dac.h **** #pragma once
   2:../../libDaisy//src/per/dac.h **** #ifndef DSY_DAC_H
   3:../../libDaisy//src/per/dac.h **** #define DSY_DAC_H
   4:../../libDaisy//src/per/dac.h **** 
   5:../../libDaisy//src/per/dac.h **** #include "daisy_core.h"
   6:../../libDaisy//src/per/dac.h **** 
   7:../../libDaisy//src/per/dac.h **** namespace daisy
   8:../../libDaisy//src/per/dac.h **** {
   9:../../libDaisy//src/per/dac.h **** /** @brief DAC handle for Built-in DAC Peripheral 
  10:../../libDaisy//src/per/dac.h ****  *  @ingroup per_analog
  11:../../libDaisy//src/per/dac.h ****  ** 
ARM GAS  /var/folders/hl/qgbwny5j0fd895c2c41bk3tw0000gp/T//ccBzUL5G.s 			page 35


  12:../../libDaisy//src/per/dac.h ****  ** For now only Normal Mode is supported,
  13:../../libDaisy//src/per/dac.h ****  ** Sample and hold mode provides reduced power consumption, but requires a bit more setup.
  14:../../libDaisy//src/per/dac.h ****  **
  15:../../libDaisy//src/per/dac.h ****  ** For now connecting the DAC through other internal peripherals is also not supported.
  16:../../libDaisy//src/per/dac.h ****  **
  17:../../libDaisy//src/per/dac.h ****  ** Since the DAC channels have dedicated pins we don't need to pass in a pin config like with
  18:../../libDaisy//src/per/dac.h ****  ** other modules. However, it is still important to not try to use the DAC pins for anything else.
  19:../../libDaisy//src/per/dac.h ****  ** DAC Channel 1 is on PA4, and DAC Channel 2 is on PA5
  20:../../libDaisy//src/per/dac.h ****  ***/
  21:../../libDaisy//src/per/dac.h **** class DacHandle
  22:../../libDaisy//src/per/dac.h **** {
  23:../../libDaisy//src/per/dac.h ****   public:
  24:../../libDaisy//src/per/dac.h ****     /** Return Values for the DacHandle class */
  25:../../libDaisy//src/per/dac.h ****     enum class Result
  26:../../libDaisy//src/per/dac.h ****     {
  27:../../libDaisy//src/per/dac.h ****         OK,
  28:../../libDaisy//src/per/dac.h ****         ERR,
  29:../../libDaisy//src/per/dac.h ****     };
  30:../../libDaisy//src/per/dac.h **** 
  31:../../libDaisy//src/per/dac.h ****     /** Selects which channel(s) will be configured for use. */
  32:../../libDaisy//src/per/dac.h ****     enum class Channel
  33:../../libDaisy//src/per/dac.h ****     {
  34:../../libDaisy//src/per/dac.h ****         ONE,
  35:../../libDaisy//src/per/dac.h ****         TWO,
  36:../../libDaisy//src/per/dac.h ****         BOTH,
  37:../../libDaisy//src/per/dac.h ****     };
  38:../../libDaisy//src/per/dac.h **** 
  39:../../libDaisy//src/per/dac.h ****     /** Sets the Mode for the DAC channels.
  40:../../libDaisy//src/per/dac.h ****      **
  41:../../libDaisy//src/per/dac.h ****      ** Polling mode uses the blocking mode to transmit a single value at a time.
  42:../../libDaisy//src/per/dac.h ****      **
  43:../../libDaisy//src/per/dac.h ****      ** DMA mode uses a buffer, and periodically transmits it triggering a 
  44:../../libDaisy//src/per/dac.h ****      ** callback to fill the buffer when it is ready for more samples.
  45:../../libDaisy//src/per/dac.h ****      ***/
  46:../../libDaisy//src/per/dac.h ****     enum class Mode
  47:../../libDaisy//src/per/dac.h ****     {
  48:../../libDaisy//src/per/dac.h ****         POLLING,
  49:../../libDaisy//src/per/dac.h ****         DMA,
  50:../../libDaisy//src/per/dac.h ****     };
  51:../../libDaisy//src/per/dac.h **** 
  52:../../libDaisy//src/per/dac.h ****     /** Sets the number of bits per sample transmitted out of the DAC.
  53:../../libDaisy//src/per/dac.h ****      ** The output range will be: 0V - VDDA
  54:../../libDaisy//src/per/dac.h ****      ** The resolution will be roughly: bitdepth / (VDDA - 0V) 
  55:../../libDaisy//src/per/dac.h ****      ***/
  56:../../libDaisy//src/per/dac.h ****     enum class BitDepth
  57:../../libDaisy//src/per/dac.h ****     {
  58:../../libDaisy//src/per/dac.h ****         BITS_8,
  59:../../libDaisy//src/per/dac.h ****         BITS_12
  60:../../libDaisy//src/per/dac.h ****     };
  61:../../libDaisy//src/per/dac.h **** 
  62:../../libDaisy//src/per/dac.h ****     /** Sets whether the DAC output is buffered for higher drive ability. */
  63:../../libDaisy//src/per/dac.h ****     enum class BufferState
  64:../../libDaisy//src/per/dac.h ****     {
  65:../../libDaisy//src/per/dac.h ****         ENABLED,
  66:../../libDaisy//src/per/dac.h ****         DISABLED,
  67:../../libDaisy//src/per/dac.h ****     };
  68:../../libDaisy//src/per/dac.h **** 
ARM GAS  /var/folders/hl/qgbwny5j0fd895c2c41bk3tw0000gp/T//ccBzUL5G.s 			page 36


  69:../../libDaisy//src/per/dac.h ****     /** Configuration structure for initializing the DAC structure. */
  70:../../libDaisy//src/per/dac.h ****     struct Config
  71:../../libDaisy//src/per/dac.h ****     {
  72:../../libDaisy//src/per/dac.h ****         /** Target Samplerate in Hz used to configure the internal 
  73:../../libDaisy//src/per/dac.h ****          ** timebase for DMA mode. Does nothing in POLLING mode.
  74:../../libDaisy//src/per/dac.h ****          ** If the value is 0 at Init time this will default to 48000Hz 
  75:../../libDaisy//src/per/dac.h ****          ** otherwise the driver will attempt meet the target.*/
  76:../../libDaisy//src/per/dac.h ****         uint32_t target_samplerate;
  77:../../libDaisy//src/per/dac.h **** 
  78:../../libDaisy//src/per/dac.h ****         Channel     chn;
  79:../../libDaisy//src/per/dac.h ****         Mode        mode;
  80:../../libDaisy//src/per/dac.h ****         BitDepth    bitdepth;
  81:../../libDaisy//src/per/dac.h ****         BufferState buff_state;
  82:../../libDaisy//src/per/dac.h ****     };
  83:../../libDaisy//src/per/dac.h **** 
  84:../../libDaisy//src/per/dac.h ****     DacHandle() : pimpl_(nullptr) {}
 761              		.loc 17 84 33 view .LVU186
 762 0014 8362     		str	r3, [r0, #40]
 763              	.LBE407:
 764              	.LBE406:
 765              	.LBE405:
 766              	.LBE417:
 767              	.LBE420:
   9:KS.cpp        **** 
 768              		.loc 13 9 14 view .LVU187
 769 0016 0749     		ldr	r1, .L25+16
 770              	.LBB421:
 771              	.LBB418:
 772              	.LBB408:
 773              	.LBB409:
 774              	.LBB410:
  95:../../libDaisy//src/hid/audio.h ****     ~AudioHandle() {}
 775              		.loc 6 95 35 view .LVU188
 776 0018 C0E90333 		strd	r3, r3, [r0, #12]
 777              	.LVL41:
  95:../../libDaisy//src/hid/audio.h ****     ~AudioHandle() {}
 778              		.loc 6 95 35 view .LVU189
 779              	.LBE410:
 780              	.LBE409:
 781              	.LBE408:
 782              	.LBB411:
 783              	.LBI411:
  92:../../libDaisy//src/per/adc.h ****     ~AdcHandle() {}
 784              		.loc 5 92 5 is_stmt 1 view .LVU190
  92:../../libDaisy//src/per/adc.h ****     ~AdcHandle() {}
 785              		.loc 5 92 5 is_stmt 0 view .LVU191
 786              	.LBE411:
 787              	.LBB412:
 788              	.LBI412:
  40:../../libDaisy//src/hid/usb.h **** 
 789              		.loc 4 40 5 is_stmt 1 view .LVU192
  40:../../libDaisy//src/hid/usb.h **** 
 790              		.loc 4 40 5 is_stmt 0 view .LVU193
 791              	.LBE412:
 792              	.LBB413:
 793              	.LBI398:
  28:../../libDaisy//src/dev/codec_pcm3060.h ****     ~Pcm3060() {}
ARM GAS  /var/folders/hl/qgbwny5j0fd895c2c41bk3tw0000gp/T//ccBzUL5G.s 			page 37


 794              		.loc 3 28 5 is_stmt 1 view .LVU194
 795              	.LBB404:
 796              	.LBB403:
 797              	.LBI400:
 798              		.loc 16 82 5 view .LVU195
 799              		.loc 16 82 5 is_stmt 0 view .LVU196
 800              	.LBE403:
 801              	.LBE404:
 802              	.LBE413:
 803              	.LBB414:
 804              	.LBI405:
 805              		.loc 17 84 5 is_stmt 1 view .LVU197
 806              		.loc 17 84 5 is_stmt 0 view .LVU198
 807              	.LBE414:
 808              	.LBE418:
 809              	.LBE421:
 810              	.LBE423:
 811              	.LBE426:
  64:../../libDaisy//src/daisy_patch_sm.h ****         ~DaisyPatchSM() {}
 812              		.loc 1 64 24 is_stmt 1 view .LVU199
 813              	.LBB427:
 814              	.LBB424:
 815              	.LBB422:
 816              	.LBB419:
 817              	.LBB415:
 818              	.LBI415:
  20:../../libDaisy//src/hid/gatein.h ****     /** GateIn~
 819              		.loc 2 20 5 view .LVU200
  20:../../libDaisy//src/hid/gatein.h ****     /** GateIn~
 820              		.loc 2 20 5 is_stmt 0 view .LVU201
 821              	.LBE415:
 822              	.LBB416:
 823              	.LBI416:
  20:../../libDaisy//src/hid/gatein.h ****     /** GateIn~
 824              		.loc 2 20 5 is_stmt 1 view .LVU202
  20:../../libDaisy//src/hid/gatein.h ****     /** GateIn~
 825              		.loc 2 20 5 is_stmt 0 view .LVU203
 826              	.LBE416:
 827              	.LBE419:
 828              	.LBE422:
 829              	.LBE424:
 830              	.LBE427:
 831              		.loc 13 50 1 view .LVU204
 832 001c BDE80840 		pop	{r3, lr}
 833              		.cfi_restore 14
 834              		.cfi_restore 3
 835              		.cfi_def_cfa_offset 0
 836              	.LBB428:
 837              	.LBB425:
   9:KS.cpp        **** 
 838              		.loc 13 9 14 view .LVU205
 839 0020 FFF7FEBF 		b	__aeabi_atexit
 840              	.LVL42:
 841              	.L26:
 842              		.align	2
 843              	.L25:
 844 0024 00000000 		.word	__dso_handle
ARM GAS  /var/folders/hl/qgbwny5j0fd895c2c41bk3tw0000gp/T//ccBzUL5G.s 			page 38


 845 0028 00000000 		.word	_ZN7daisysp6StringD1Ev
 846 002c 00000000 		.word	string
 847 0030 00000000 		.word	.LANCHOR0
 848 0034 00000000 		.word	_ZN5daisy8patch_sm12DaisyPatchSMD1Ev
 849              	.LBE425:
 850              	.LBE428:
 851              		.cfi_endproc
 852              	.LFE5345:
 854              		.section	.init_array,"aw",%init_array
 855              		.align	2
 856 0000 00000000 		.word	_GLOBAL__sub_I_string(target1)
 857              		.global	hw
 858              		.global	string
 859              		.section	.bss.hw,"aw",%nobits
 860              		.align	2
 861              		.set	.LANCHOR0,. + 0
 864              	hw:
 865 0000 00000000 		.space	464
 865      00000000 
 865      00000000 
 865      00000000 
 865      00000000 
 866              		.section	.bss.string,"aw",%nobits
 867              		.align	2
 870              	string:
 871 0000 00000000 		.space	5232
 871      00000000 
 871      00000000 
 871      00000000 
 871      00000000 
 872              		.text
 873              	.Letext0:
 874              		.file 18 "/opt/homebrew/Cellar/arm-none-eabi-gcc/10.3-2021.07/gcc/arm-none-eabi/include/machine/_d
 875              		.file 19 "/opt/homebrew/Cellar/arm-none-eabi-gcc/10.3-2021.07/gcc/arm-none-eabi/include/sys/_stdin
 876              		.file 20 "/opt/homebrew/Cellar/arm-none-eabi-gcc/10.3-2021.07/gcc/arm-none-eabi/include/stdint.h"
 877              		.file 21 "/opt/homebrew/Cellar/arm-none-eabi-gcc/10.3-2021.07/gcc/lib/gcc/arm-none-eabi/10.3.1/inc
 878              		.file 22 "/opt/homebrew/Cellar/arm-none-eabi-gcc/10.3-2021.07/gcc/arm-none-eabi/include/c++/10.3.1
 879              		.file 23 "/opt/homebrew/Cellar/arm-none-eabi-gcc/10.3-2021.07/gcc/arm-none-eabi/include/c++/10.3.1
 880              		.file 24 "/opt/homebrew/Cellar/arm-none-eabi-gcc/10.3-2021.07/gcc/arm-none-eabi/include/c++/10.3.1
 881              		.file 25 "/opt/homebrew/Cellar/arm-none-eabi-gcc/10.3-2021.07/gcc/arm-none-eabi/include/c++/10.3.1
 882              		.file 26 "/opt/homebrew/Cellar/arm-none-eabi-gcc/10.3-2021.07/gcc/arm-none-eabi/include/c++/10.3.1
 883              		.file 27 "/opt/homebrew/Cellar/arm-none-eabi-gcc/10.3-2021.07/gcc/arm-none-eabi/include/c++/10.3.1
 884              		.file 28 "/opt/homebrew/Cellar/arm-none-eabi-gcc/10.3-2021.07/gcc/arm-none-eabi/include/c++/10.3.1
 885              		.file 29 "/opt/homebrew/Cellar/arm-none-eabi-gcc/10.3-2021.07/gcc/arm-none-eabi/include/c++/10.3.1
 886              		.file 30 "/opt/homebrew/Cellar/arm-none-eabi-gcc/10.3-2021.07/gcc/arm-none-eabi/include/c++/10.3.1
 887              		.file 31 "/opt/homebrew/Cellar/arm-none-eabi-gcc/10.3-2021.07/gcc/arm-none-eabi/include/c++/10.3.1
 888              		.file 32 "/opt/homebrew/Cellar/arm-none-eabi-gcc/10.3-2021.07/gcc/arm-none-eabi/include/c++/10.3.1
 889              		.file 33 "/opt/homebrew/Cellar/arm-none-eabi-gcc/10.3-2021.07/gcc/arm-none-eabi/include/c++/10.3.1
 890              		.file 34 "/opt/homebrew/Cellar/arm-none-eabi-gcc/10.3-2021.07/gcc/arm-none-eabi/include/c++/10.3.1
 891              		.file 35 "/opt/homebrew/Cellar/arm-none-eabi-gcc/10.3-2021.07/gcc/arm-none-eabi/include/c++/10.3.1
 892              		.file 36 "/opt/homebrew/Cellar/arm-none-eabi-gcc/10.3-2021.07/gcc/arm-none-eabi/include/c++/10.3.1
 893              		.file 37 "/opt/homebrew/Cellar/arm-none-eabi-gcc/10.3-2021.07/gcc/arm-none-eabi/include/c++/10.3.1
 894              		.file 38 "/opt/homebrew/Cellar/arm-none-eabi-gcc/10.3-2021.07/gcc/arm-none-eabi/include/c++/10.3.1
 895              		.file 39 "/opt/homebrew/Cellar/arm-none-eabi-gcc/10.3-2021.07/gcc/arm-none-eabi/include/c++/10.3.1
 896              		.file 40 "/opt/homebrew/Cellar/arm-none-eabi-gcc/10.3-2021.07/gcc/arm-none-eabi/include/sys/_types
 897              		.file 41 "/opt/homebrew/Cellar/arm-none-eabi-gcc/10.3-2021.07/gcc/arm-none-eabi/include/sys/reent.
 898              		.file 42 "/opt/homebrew/Cellar/arm-none-eabi-gcc/10.3-2021.07/gcc/arm-none-eabi/include/sys/lock.h
ARM GAS  /var/folders/hl/qgbwny5j0fd895c2c41bk3tw0000gp/T//ccBzUL5G.s 			page 39


 899              		.file 43 "/opt/homebrew/Cellar/arm-none-eabi-gcc/10.3-2021.07/gcc/arm-none-eabi/include/math.h"
 900              		.file 44 "/opt/homebrew/Cellar/arm-none-eabi-gcc/10.3-2021.07/gcc/arm-none-eabi/include/stdlib.h"
 901              		.file 45 "/opt/homebrew/Cellar/arm-none-eabi-gcc/10.3-2021.07/gcc/arm-none-eabi/include/c++/10.3.1
 902              		.file 46 "/opt/homebrew/Cellar/arm-none-eabi-gcc/10.3-2021.07/gcc/arm-none-eabi/include/c++/10.3.1
 903              		.file 47 "../../libDaisy//src/daisy_core.h"
 904              		.file 48 "../../libDaisy//src/per/tim.h"
 905              		.file 49 "../../libDaisy//src/per/sai.h"
 906              		.file 50 "../../libDaisy//src/hid/ctrl.h"
 907              		.file 51 "../../libDaisy//src/util/wav_format.h"
 908              		.file 52 "../../libDaisy//src/dev/max11300.h"
 909              		.file 53 "../../libDaisy//src/per/gpio.h"
 910              		.file 54 "../../libDaisy//src/dev/sdram.h"
 911              		.file 55 "/opt/homebrew/Cellar/arm-none-eabi-gcc/10.3-2021.07/gcc/lib/gcc/arm-none-eabi/10.3.1/inc
 912              		.file 56 "/opt/homebrew/Cellar/arm-none-eabi-gcc/10.3-2021.07/gcc/arm-none-eabi/include/stdio.h"
 913              		.file 57 "/opt/homebrew/Cellar/arm-none-eabi-gcc/10.3-2021.07/gcc/arm-none-eabi/include/string.h"
 914              		.file 58 "../../DaisySP//Source/Control/adenv.h"
 915              		.file 59 "/opt/homebrew/Cellar/arm-none-eabi-gcc/10.3-2021.07/gcc/arm-none-eabi/include/wchar.h"
 916              		.file 60 "/opt/homebrew/Cellar/arm-none-eabi-gcc/10.3-2021.07/gcc/arm-none-eabi/include/locale.h"
 917              		.file 61 "<built-in>"
 918              		.file 62 "../../libDaisy//src/dev/sr_595.h"
ARM GAS  /var/folders/hl/qgbwny5j0fd895c2c41bk3tw0000gp/T//ccBzUL5G.s 			page 40

