ARM GAS  C:\Users\daniel\AppData\Local\Temp\ccfMEBIt.s 			page 1


   1              		.cpu cortex-m7
   2              		.eabi_attribute 28, 1
   3              		.eabi_attribute 20, 1
   4              		.eabi_attribute 21, 1
   5              		.eabi_attribute 23, 3
   6              		.eabi_attribute 24, 1
   7              		.eabi_attribute 25, 1
   8              		.eabi_attribute 26, 1
   9              		.eabi_attribute 30, 2
  10              		.eabi_attribute 34, 1
  11              		.eabi_attribute 18, 4
  12              		.file	"testbed.cpp"
  13              		.text
  14              	.Ltext0:
  15              		.cfi_sections	.debug_frame
  16              		.section	.text._ZN5daisy8patch_sm12DaisyPatchSMD2Ev,"axG",%progbits,_ZN5daisy8patch_sm12DaisyPatch
  17              		.align	1
  18              		.p2align 2,,3
  19              		.weak	_ZN5daisy8patch_sm12DaisyPatchSMD2Ev
  20              		.arch armv7e-m
  21              		.syntax unified
  22              		.thumb
  23              		.thumb_func
  24              		.fpu fpv5-d16
  26              	_ZN5daisy8patch_sm12DaisyPatchSMD2Ev:
  27              	.LVL0:
  28              	.LFB2528:
  29              		.file 1 "../../libDaisy//src/daisy_patch_sm.h"
   1:../../libDaisy//src/daisy_patch_sm.h **** #pragma once
   2:../../libDaisy//src/daisy_patch_sm.h **** 
   3:../../libDaisy//src/daisy_patch_sm.h **** #include "daisy.h"
   4:../../libDaisy//src/daisy_patch_sm.h **** 
   5:../../libDaisy//src/daisy_patch_sm.h **** namespace daisy
   6:../../libDaisy//src/daisy_patch_sm.h **** {
   7:../../libDaisy//src/daisy_patch_sm.h **** namespace patch_sm
   8:../../libDaisy//src/daisy_patch_sm.h **** {
   9:../../libDaisy//src/daisy_patch_sm.h ****     /** Accessors for the Analog Controls. 
  10:../../libDaisy//src/daisy_patch_sm.h ****      *  These cover the 8x Bipolar CV inputs
  11:../../libDaisy//src/daisy_patch_sm.h ****      *  as well as the 4x 0-3V3 ADC inputs on
  12:../../libDaisy//src/daisy_patch_sm.h ****      *  the hardware 
  13:../../libDaisy//src/daisy_patch_sm.h ****      * 
  14:../../libDaisy//src/daisy_patch_sm.h ****      *  When reading a value with DaisyPatchSM::GetAdcValue()
  15:../../libDaisy//src/daisy_patch_sm.h ****      * 
  16:../../libDaisy//src/daisy_patch_sm.h ****      *  patch.GetAdcValue(patch_sm::CV_1);
  17:../../libDaisy//src/daisy_patch_sm.h ****      */
  18:../../libDaisy//src/daisy_patch_sm.h ****     enum
  19:../../libDaisy//src/daisy_patch_sm.h ****     {
  20:../../libDaisy//src/daisy_patch_sm.h ****         CV_1 = 0,
  21:../../libDaisy//src/daisy_patch_sm.h ****         CV_2,
  22:../../libDaisy//src/daisy_patch_sm.h ****         CV_3,
  23:../../libDaisy//src/daisy_patch_sm.h ****         CV_4,
  24:../../libDaisy//src/daisy_patch_sm.h ****         CV_5,
  25:../../libDaisy//src/daisy_patch_sm.h ****         CV_6,
  26:../../libDaisy//src/daisy_patch_sm.h ****         CV_7,
  27:../../libDaisy//src/daisy_patch_sm.h ****         CV_8,
  28:../../libDaisy//src/daisy_patch_sm.h ****         ADC_9,
  29:../../libDaisy//src/daisy_patch_sm.h ****         ADC_10,
ARM GAS  C:\Users\daniel\AppData\Local\Temp\ccfMEBIt.s 			page 2


  30:../../libDaisy//src/daisy_patch_sm.h ****         ADC_11,
  31:../../libDaisy//src/daisy_patch_sm.h ****         ADC_12,
  32:../../libDaisy//src/daisy_patch_sm.h ****         ADC_LAST,
  33:../../libDaisy//src/daisy_patch_sm.h ****     };
  34:../../libDaisy//src/daisy_patch_sm.h **** 
  35:../../libDaisy//src/daisy_patch_sm.h ****     /** Enum for addressing the CV Outputs via the WriteCvOut function. */
  36:../../libDaisy//src/daisy_patch_sm.h ****     enum
  37:../../libDaisy//src/daisy_patch_sm.h ****     {
  38:../../libDaisy//src/daisy_patch_sm.h ****         CV_OUT_BOTH = 0,
  39:../../libDaisy//src/daisy_patch_sm.h ****         CV_OUT_1,
  40:../../libDaisy//src/daisy_patch_sm.h ****         CV_OUT_2,
  41:../../libDaisy//src/daisy_patch_sm.h ****     };
  42:../../libDaisy//src/daisy_patch_sm.h **** 
  43:../../libDaisy//src/daisy_patch_sm.h **** 
  44:../../libDaisy//src/daisy_patch_sm.h ****     /** @brief Board support file for DaisyPatchSM hardware
  45:../../libDaisy//src/daisy_patch_sm.h ****      *  @author shensley
  46:../../libDaisy//src/daisy_patch_sm.h ****      *  @ingroup boards
  47:../../libDaisy//src/daisy_patch_sm.h ****      * 
  48:../../libDaisy//src/daisy_patch_sm.h ****      *  Daisy Patch SM is a complete Eurorack module DSP engine.
  49:../../libDaisy//src/daisy_patch_sm.h ****      *  Based on the Daisy Seed, with circuits added for 
  50:../../libDaisy//src/daisy_patch_sm.h ****      *  interfacing directly with eurorack modular synthesizers.
  51:../../libDaisy//src/daisy_patch_sm.h ****      */
  52:../../libDaisy//src/daisy_patch_sm.h ****     class DaisyPatchSM
  53:../../libDaisy//src/daisy_patch_sm.h ****     {
  54:../../libDaisy//src/daisy_patch_sm.h ****       public:
  55:../../libDaisy//src/daisy_patch_sm.h ****         /** Helper for mapping pins, and accessing them using the `GetPin` function */
  56:../../libDaisy//src/daisy_patch_sm.h ****         enum class PinBank
  57:../../libDaisy//src/daisy_patch_sm.h ****         {
  58:../../libDaisy//src/daisy_patch_sm.h ****             A,
  59:../../libDaisy//src/daisy_patch_sm.h ****             B,
  60:../../libDaisy//src/daisy_patch_sm.h ****             C,
  61:../../libDaisy//src/daisy_patch_sm.h ****             D
  62:../../libDaisy//src/daisy_patch_sm.h ****         };
  63:../../libDaisy//src/daisy_patch_sm.h **** 
  64:../../libDaisy//src/daisy_patch_sm.h ****         DaisyPatchSM() {}
  65:../../libDaisy//src/daisy_patch_sm.h ****         ~DaisyPatchSM() {}
  30              		.loc 1 65 9 view -0
  31              		.cfi_startproc
  32              		@ args = 0, pretend = 0, frame = 0
  33              		@ frame_needed = 0, uses_anonymous_args = 0
  34              		@ link register save eliminated.
  35              	.LBB137:
  36              	.LBI137:
  37              		.file 2 "../../libDaisy//src/hid/gatein.h"
   1:../../libDaisy//src/hid/gatein.h **** #pragma once
   2:../../libDaisy//src/hid/gatein.h **** #ifndef DSY_GATEIN_H
   3:../../libDaisy//src/hid/gatein.h **** #define DSY_GATEIN_H
   4:../../libDaisy//src/hid/gatein.h **** #include "per/gpio.h"
   5:../../libDaisy//src/hid/gatein.h **** 
   6:../../libDaisy//src/hid/gatein.h **** namespace daisy
   7:../../libDaisy//src/hid/gatein.h **** {
   8:../../libDaisy//src/hid/gatein.h **** /**
   9:../../libDaisy//src/hid/gatein.h ****    @brief Generic Class for handling gate inputs through GPIO.
  10:../../libDaisy//src/hid/gatein.h ****    @author Stephen Hensley
  11:../../libDaisy//src/hid/gatein.h ****    @date    March 2020
  12:../../libDaisy//src/hid/gatein.h ****    @ingroup controls
  13:../../libDaisy//src/hid/gatein.h **** */
ARM GAS  C:\Users\daniel\AppData\Local\Temp\ccfMEBIt.s 			page 3


  14:../../libDaisy//src/hid/gatein.h **** class GateIn
  15:../../libDaisy//src/hid/gatein.h **** {
  16:../../libDaisy//src/hid/gatein.h ****   public:
  17:../../libDaisy//src/hid/gatein.h ****     /** GateIn 
  18:../../libDaisy//src/hid/gatein.h ****     Constructor 
  19:../../libDaisy//src/hid/gatein.h ****     */
  20:../../libDaisy//src/hid/gatein.h ****     GateIn() {}
  21:../../libDaisy//src/hid/gatein.h ****     /** GateIn~
  22:../../libDaisy//src/hid/gatein.h ****     Destructor 
  23:../../libDaisy//src/hid/gatein.h ****     */
  24:../../libDaisy//src/hid/gatein.h ****     ~GateIn() {}
  38              		.loc 2 24 5 view .LVU1
  39              		.loc 2 24 5 is_stmt 0 view .LVU2
  40              	.LBE137:
  41              	.LBB138:
  42              	.LBI138:
  43              		.loc 2 24 5 is_stmt 1 view .LVU3
  44              		.loc 2 24 5 is_stmt 0 view .LVU4
  45              	.LBE138:
  46              	.LBB139:
  47              	.LBI139:
  48              		.file 3 "../../libDaisy//src/dev/codec_pcm3060.h"
   1:../../libDaisy//src/dev/codec_pcm3060.h **** #pragma once
   2:../../libDaisy//src/dev/codec_pcm3060.h **** #ifndef DSY_CODEC_PCM3060_H
   3:../../libDaisy//src/dev/codec_pcm3060.h **** #define DSY_CODEC_PCM3060_H
   4:../../libDaisy//src/dev/codec_pcm3060.h **** #include "per/i2c.h"
   5:../../libDaisy//src/dev/codec_pcm3060.h **** namespace daisy
   6:../../libDaisy//src/dev/codec_pcm3060.h **** {
   7:../../libDaisy//src/dev/codec_pcm3060.h **** /**
   8:../../libDaisy//src/dev/codec_pcm3060.h ****  * @brief Driver for the TI PCM3060 Audio Codec.
   9:../../libDaisy//src/dev/codec_pcm3060.h ****  * @addtogroup codec
  10:../../libDaisy//src/dev/codec_pcm3060.h ****  * 
  11:../../libDaisy//src/dev/codec_pcm3060.h ****  * For now this is a limited interface that uses I2C to communicate with the PCM3060
  12:../../libDaisy//src/dev/codec_pcm3060.h ****  * The device can also be accessed with SPI, which is not yet supported.
  13:../../libDaisy//src/dev/codec_pcm3060.h ****  * 
  14:../../libDaisy//src/dev/codec_pcm3060.h ****  * For now all registers are set to their defaults, and the Init function will 
  15:../../libDaisy//src/dev/codec_pcm3060.h ****  * perform a MRST and SRST before setting the format to 24bit LJ, and disabling 
  16:../../libDaisy//src/dev/codec_pcm3060.h ****  * power save for both the ADC and DAC.
  17:../../libDaisy//src/dev/codec_pcm3060.h ****  *
  18:../../libDaisy//src/dev/codec_pcm3060.h ****  */
  19:../../libDaisy//src/dev/codec_pcm3060.h **** class Pcm3060
  20:../../libDaisy//src/dev/codec_pcm3060.h **** {
  21:../../libDaisy//src/dev/codec_pcm3060.h ****   public:
  22:../../libDaisy//src/dev/codec_pcm3060.h ****     enum class Result
  23:../../libDaisy//src/dev/codec_pcm3060.h ****     {
  24:../../libDaisy//src/dev/codec_pcm3060.h ****         OK,
  25:../../libDaisy//src/dev/codec_pcm3060.h ****         ERR,
  26:../../libDaisy//src/dev/codec_pcm3060.h ****     };
  27:../../libDaisy//src/dev/codec_pcm3060.h **** 
  28:../../libDaisy//src/dev/codec_pcm3060.h ****     Pcm3060() {}
  29:../../libDaisy//src/dev/codec_pcm3060.h ****     ~Pcm3060() {}
  49              		.loc 3 29 5 is_stmt 1 view .LVU5
  50              		.loc 3 29 5 is_stmt 0 view .LVU6
  51              	.LBE139:
  52              	.LBB140:
  53              	.LBI140:
  54              		.file 4 "../../libDaisy//src/hid/usb.h"
ARM GAS  C:\Users\daniel\AppData\Local\Temp\ccfMEBIt.s 			page 4


   1:../../libDaisy//src/hid/usb.h **** #pragma once
   2:../../libDaisy//src/hid/usb.h **** #ifndef DSY_HID_USB_H
   3:../../libDaisy//src/hid/usb.h **** #define DSY_HID_USB_H
   4:../../libDaisy//src/hid/usb.h **** #include <stdint.h>
   5:../../libDaisy//src/hid/usb.h **** #include <stdlib.h>
   6:../../libDaisy//src/hid/usb.h **** 
   7:../../libDaisy//src/hid/usb.h **** namespace daisy
   8:../../libDaisy//src/hid/usb.h **** /** @addtogroup human_interface
   9:../../libDaisy//src/hid/usb.h ****     @{
  10:../../libDaisy//src/hid/usb.h **** */
  11:../../libDaisy//src/hid/usb.h **** 
  12:../../libDaisy//src/hid/usb.h **** {
  13:../../libDaisy//src/hid/usb.h **** /** 
  14:../../libDaisy//src/hid/usb.h ****     @brief Interface for initializing and using the USB Peripherals on the daisy
  15:../../libDaisy//src/hid/usb.h ****     @author Stephen Hensley
  16:../../libDaisy//src/hid/usb.h ****     @date December 2019
  17:../../libDaisy//src/hid/usb.h **** */
  18:../../libDaisy//src/hid/usb.h **** class UsbHandle
  19:../../libDaisy//src/hid/usb.h **** {
  20:../../libDaisy//src/hid/usb.h ****   public:
  21:../../libDaisy//src/hid/usb.h ****     /** Return values for USBHandle Functions */
  22:../../libDaisy//src/hid/usb.h ****     enum class Result
  23:../../libDaisy//src/hid/usb.h ****     {
  24:../../libDaisy//src/hid/usb.h ****         OK,
  25:../../libDaisy//src/hid/usb.h ****         ERR,
  26:../../libDaisy//src/hid/usb.h ****     };
  27:../../libDaisy//src/hid/usb.h **** 
  28:../../libDaisy//src/hid/usb.h ****     /** Specified which of the two USB Peripherals to initialize. */
  29:../../libDaisy//src/hid/usb.h ****     enum UsbPeriph
  30:../../libDaisy//src/hid/usb.h ****     {
  31:../../libDaisy//src/hid/usb.h ****         FS_INTERNAL, /**< Internal pin */
  32:../../libDaisy//src/hid/usb.h ****         FS_EXTERNAL, /**< FS External D+ pin is Pin 38 (GPIO32). FS External D- pin is Pin 37 (GPIO
  33:../../libDaisy//src/hid/usb.h ****         FS_BOTH,     /**< Both */
  34:../../libDaisy//src/hid/usb.h ****     };
  35:../../libDaisy//src/hid/usb.h **** 
  36:../../libDaisy//src/hid/usb.h **** 
  37:../../libDaisy//src/hid/usb.h ****     /** Function called upon reception of a buffer */
  38:../../libDaisy//src/hid/usb.h ****     typedef void (*ReceiveCallback)(uint8_t* buff, uint32_t* len);
  39:../../libDaisy//src/hid/usb.h **** 
  40:../../libDaisy//src/hid/usb.h ****     UsbHandle() {}
  41:../../libDaisy//src/hid/usb.h **** 
  42:../../libDaisy//src/hid/usb.h ****     ~UsbHandle() {}
  55              		.loc 4 42 5 is_stmt 1 view .LVU7
  56              		.loc 4 42 5 is_stmt 0 view .LVU8
  57              	.LBE140:
  58              	.LBB141:
  59              	.LBI141:
  60              		.file 5 "../../libDaisy//src/per/adc.h"
   1:../../libDaisy//src/per/adc.h **** #pragma once
   2:../../libDaisy//src/per/adc.h **** #ifndef DSY_ADC_H
   3:../../libDaisy//src/per/adc.h **** #define DSY_ADC_H /**< Macro */
   4:../../libDaisy//src/per/adc.h **** #include <stdint.h>
   5:../../libDaisy//src/per/adc.h **** #include <stdlib.h>
   6:../../libDaisy//src/per/adc.h **** #include "daisy_core.h"
   7:../../libDaisy//src/per/adc.h **** #include "per/gpio.h"
   8:../../libDaisy//src/per/adc.h **** 
   9:../../libDaisy//src/per/adc.h **** #define DSY_ADC_MAX_CHANNELS 16 /**< Maximum number of ADC channels */
ARM GAS  C:\Users\daniel\AppData\Local\Temp\ccfMEBIt.s 			page 5


  10:../../libDaisy//src/per/adc.h **** 
  11:../../libDaisy//src/per/adc.h **** namespace daisy
  12:../../libDaisy//src/per/adc.h **** {
  13:../../libDaisy//src/per/adc.h **** /** @addtogroup per_analog
  14:../../libDaisy//src/per/adc.h ****     @{
  15:../../libDaisy//src/per/adc.h **** */
  16:../../libDaisy//src/per/adc.h **** 
  17:../../libDaisy//src/per/adc.h **** /* While there may not be many configuration options here,
  18:../../libDaisy//src/per/adc.h **** using a struct like this allows us to add more configuration
  19:../../libDaisy//src/per/adc.h **** later without breaking existing functionality.
  20:../../libDaisy//src/per/adc.h **** */
  21:../../libDaisy//src/per/adc.h **** 
  22:../../libDaisy//src/per/adc.h **** /** @brief   Configuration Structure for an ADC Channel 
  23:../../libDaisy//src/per/adc.h ****  *  @details This can be used to configure a a single input, 
  24:../../libDaisy//src/per/adc.h ****  *           or a multiplexed input, allowing up to 8 inputs on 
  25:../../libDaisy//src/per/adc.h ****  *           one channel.
  26:../../libDaisy//src/per/adc.h ****  *  @note    Sharing data lines to multiple muxes _is_ possible, but
  27:../../libDaisy//src/per/adc.h ****  *           each channel sharing data lines must be set to the maximum
  28:../../libDaisy//src/per/adc.h ****  *           number of channels, even if some multiplexers have fewer
  29:../../libDaisy//src/per/adc.h ****  *           inputs connected.
  30:../../libDaisy//src/per/adc.h **** */
  31:../../libDaisy//src/per/adc.h **** struct AdcChannelConfig
  32:../../libDaisy//src/per/adc.h **** {
  33:../../libDaisy//src/per/adc.h ****     /** Which pin to use for multiplexing */
  34:../../libDaisy//src/per/adc.h ****     enum MuxPin
  35:../../libDaisy//src/per/adc.h ****     {
  36:../../libDaisy//src/per/adc.h ****         MUX_SEL_0,    /**< & */
  37:../../libDaisy//src/per/adc.h ****         MUX_SEL_1,    /**< & */
  38:../../libDaisy//src/per/adc.h ****         MUX_SEL_2,    /**< & */
  39:../../libDaisy//src/per/adc.h ****         MUX_SEL_LAST, /**< & */
  40:../../libDaisy//src/per/adc.h ****     };
  41:../../libDaisy//src/per/adc.h **** 
  42:../../libDaisy//src/per/adc.h ****     /** Initializes a single ADC pin as an ADC. 
  43:../../libDaisy//src/per/adc.h ****     \param pin Pin to init.
  44:../../libDaisy//src/per/adc.h ****      */
  45:../../libDaisy//src/per/adc.h ****     void InitSingle(dsy_gpio_pin pin);
  46:../../libDaisy//src/per/adc.h **** 
  47:../../libDaisy//src/per/adc.h ****     /** 
  48:../../libDaisy//src/per/adc.h ****     Initializes a single ADC pin as a Multiplexed ADC.
  49:../../libDaisy//src/per/adc.h ****     Requires a CD405X Multiplexer connected to the pin.
  50:../../libDaisy//src/per/adc.h ****     You only need to supply the mux pins that are required,
  51:../../libDaisy//src/per/adc.h ****     e.g. a 4052 mux would only require mux_0 and mux_1.
  52:../../libDaisy//src/per/adc.h ****     Internal Callbacks handle the pin addressing.
  53:../../libDaisy//src/per/adc.h ****     \param mux_channels must be 1-8
  54:../../libDaisy//src/per/adc.h ****     \param mux_0 First mux pin
  55:../../libDaisy//src/per/adc.h ****     \param mux_1 Second mux pin
  56:../../libDaisy//src/per/adc.h ****     \param mux_2 Third mux pin
  57:../../libDaisy//src/per/adc.h ****     \param adc_pin &
  58:../../libDaisy//src/per/adc.h ****     */
  59:../../libDaisy//src/per/adc.h ****     void InitMux(dsy_gpio_pin adc_pin,
  60:../../libDaisy//src/per/adc.h ****                  size_t       mux_channels,
  61:../../libDaisy//src/per/adc.h ****                  dsy_gpio_pin mux_0,
  62:../../libDaisy//src/per/adc.h ****                  dsy_gpio_pin mux_1 = {DSY_GPIOX, 0},
  63:../../libDaisy//src/per/adc.h ****                  dsy_gpio_pin mux_2 = {DSY_GPIOX, 0});
  64:../../libDaisy//src/per/adc.h **** 
  65:../../libDaisy//src/per/adc.h ****     dsy_gpio pin_;                   /**< & */
  66:../../libDaisy//src/per/adc.h ****     dsy_gpio mux_pin_[MUX_SEL_LAST]; /**< & */
ARM GAS  C:\Users\daniel\AppData\Local\Temp\ccfMEBIt.s 			page 6


  67:../../libDaisy//src/per/adc.h ****     uint8_t  mux_channels_;          /**< & */
  68:../../libDaisy//src/per/adc.h **** };
  69:../../libDaisy//src/per/adc.h **** 
  70:../../libDaisy//src/per/adc.h **** /**
  71:../../libDaisy//src/per/adc.h ****    @brief Handler for analog to digital conversion
  72:../../libDaisy//src/per/adc.h **** */
  73:../../libDaisy//src/per/adc.h **** class AdcHandle
  74:../../libDaisy//src/per/adc.h **** {
  75:../../libDaisy//src/per/adc.h ****   public:
  76:../../libDaisy//src/per/adc.h ****     /** Supported oversampling amounts */
  77:../../libDaisy//src/per/adc.h ****     enum OverSampling
  78:../../libDaisy//src/per/adc.h ****     {
  79:../../libDaisy//src/per/adc.h ****         OVS_NONE, /**< & */
  80:../../libDaisy//src/per/adc.h ****         OVS_4,    /**< & */
  81:../../libDaisy//src/per/adc.h ****         OVS_8,    /**< & */
  82:../../libDaisy//src/per/adc.h ****         OVS_16,   /**< & */
  83:../../libDaisy//src/per/adc.h ****         OVS_32,   /**< & */
  84:../../libDaisy//src/per/adc.h ****         OVS_64,   /**< & */
  85:../../libDaisy//src/per/adc.h ****         OVS_128,  /**< & */
  86:../../libDaisy//src/per/adc.h ****         OVS_256,  /**< & */
  87:../../libDaisy//src/per/adc.h ****         OVS_512,  /**< & */
  88:../../libDaisy//src/per/adc.h ****         OVS_1024, /**< & */
  89:../../libDaisy//src/per/adc.h ****         OVS_LAST, /**< & */
  90:../../libDaisy//src/per/adc.h ****     };
  91:../../libDaisy//src/per/adc.h **** 
  92:../../libDaisy//src/per/adc.h ****     AdcHandle() {}
  93:../../libDaisy//src/per/adc.h ****     ~AdcHandle() {}
  61              		.loc 5 93 5 is_stmt 1 view .LVU9
  62              		.loc 5 93 5 is_stmt 0 view .LVU10
  63              	.LBE141:
  64              	.LBB142:
  65              	.LBI142:
  66              		.file 6 "../../libDaisy//src/hid/audio.h"
   1:../../libDaisy//src/hid/audio.h **** #ifndef DSY_AUDIO_H
   2:../../libDaisy//src/hid/audio.h **** #define DSY_AUDIO_H /**< & */
   3:../../libDaisy//src/hid/audio.h **** 
   4:../../libDaisy//src/hid/audio.h **** #include "per/sai.h"
   5:../../libDaisy//src/hid/audio.h **** 
   6:../../libDaisy//src/hid/audio.h **** namespace daisy
   7:../../libDaisy//src/hid/audio.h **** {
   8:../../libDaisy//src/hid/audio.h **** /** @brief Audio Engine Handle
   9:../../libDaisy//src/hid/audio.h ****  *  @ingroup audio 
  10:../../libDaisy//src/hid/audio.h ****  *  @details This class allows for higher level access to an audio engine.
  11:../../libDaisy//src/hid/audio.h ****  *           If you're using a SOM like the DaisySeed or DaisyPatchSM (or any 
  12:../../libDaisy//src/hid/audio.h ****  *            board that includes one of those objects) then the intialization
  13:../../libDaisy//src/hid/audio.h ****  *            is already taken  care of.
  14:../../libDaisy//src/hid/audio.h ****  *           If you're setting up your own custom hardware, or need to make changes
  15:../../libDaisy//src/hid/audio.h ****  *           you will have to take the following steps:
  16:../../libDaisy//src/hid/audio.h ****  *             1. Create and Initialize an SaiHandle or two depending on your requirements
  17:../../libDaisy//src/hid/audio.h ****  *             2. Initialize the Audio Handle with the desired settings and the Initialized SaiHand
  18:../../libDaisy//src/hid/audio.h ****  *             3. If the connected codec requires special configuration or initialization, do so
  19:../../libDaisy//src/hid/audio.h ****  *             4. Write a callback method using either the AudioCallback or the InterleavingAudioCa
  20:../../libDaisy//src/hid/audio.h ****  *             5. Start the Audio using one of the StartAudio function
  21:../../libDaisy//src/hid/audio.h ****  */
  22:../../libDaisy//src/hid/audio.h **** class AudioHandle
  23:../../libDaisy//src/hid/audio.h **** {
  24:../../libDaisy//src/hid/audio.h ****   public:
ARM GAS  C:\Users\daniel\AppData\Local\Temp\ccfMEBIt.s 			page 7


  25:../../libDaisy//src/hid/audio.h ****     /** Manually configurable details about the Audio Engine */
  26:../../libDaisy//src/hid/audio.h ****     /** TODO: Figure out how to get samplerate in here. */
  27:../../libDaisy//src/hid/audio.h ****     struct Config
  28:../../libDaisy//src/hid/audio.h ****     {
  29:../../libDaisy//src/hid/audio.h ****         /** number of samples to process per callback */
  30:../../libDaisy//src/hid/audio.h ****         size_t blocksize;
  31:../../libDaisy//src/hid/audio.h **** 
  32:../../libDaisy//src/hid/audio.h ****         /**< Sample rate of audio */
  33:../../libDaisy//src/hid/audio.h ****         SaiHandle::Config::SampleRate samplerate;
  34:../../libDaisy//src/hid/audio.h **** 
  35:../../libDaisy//src/hid/audio.h ****         /** factor for adjustment before and after callback for hardware that may have extra headro
  36:../../libDaisy//src/hid/audio.h ****         float postgain;
  37:../../libDaisy//src/hid/audio.h **** 
  38:../../libDaisy//src/hid/audio.h ****         /** factor for additional one-sided compensation to audio path for hardware that may
  39:../../libDaisy//src/hid/audio.h ****          *  have unequal input/output ranges
  40:../../libDaisy//src/hid/audio.h ****          */
  41:../../libDaisy//src/hid/audio.h ****         float output_compensation;
  42:../../libDaisy//src/hid/audio.h **** 
  43:../../libDaisy//src/hid/audio.h ****         /** Sets default values for config struct */
  44:../../libDaisy//src/hid/audio.h ****         Config()
  45:../../libDaisy//src/hid/audio.h ****         : blocksize(48),
  46:../../libDaisy//src/hid/audio.h ****           samplerate(SaiHandle::Config::SampleRate::SAI_48KHZ),
  47:../../libDaisy//src/hid/audio.h ****           postgain(1.f),
  48:../../libDaisy//src/hid/audio.h ****           output_compensation(1.f)
  49:../../libDaisy//src/hid/audio.h ****         {
  50:../../libDaisy//src/hid/audio.h ****         }
  51:../../libDaisy//src/hid/audio.h ****     };
  52:../../libDaisy//src/hid/audio.h **** 
  53:../../libDaisy//src/hid/audio.h ****     enum class Result
  54:../../libDaisy//src/hid/audio.h ****     {
  55:../../libDaisy//src/hid/audio.h ****         OK,
  56:../../libDaisy//src/hid/audio.h ****         ERR,
  57:../../libDaisy//src/hid/audio.h ****     };
  58:../../libDaisy//src/hid/audio.h **** 
  59:../../libDaisy//src/hid/audio.h ****     /** Non-Interleaving input buffer
  60:../../libDaisy//src/hid/audio.h ****      * Buffer arranged by float[chn][sample] 
  61:../../libDaisy//src/hid/audio.h ****      * const so that the user can't modify the input
  62:../../libDaisy//src/hid/audio.h ****      */
  63:../../libDaisy//src/hid/audio.h ****     typedef const float* const* InputBuffer;
  64:../../libDaisy//src/hid/audio.h **** 
  65:../../libDaisy//src/hid/audio.h ****     /** Non-Interleaving output buffer
  66:../../libDaisy//src/hid/audio.h ****      * Arranged by float[chn][sample] 
  67:../../libDaisy//src/hid/audio.h ****      */
  68:../../libDaisy//src/hid/audio.h ****     typedef float** OutputBuffer;
  69:../../libDaisy//src/hid/audio.h **** 
  70:../../libDaisy//src/hid/audio.h ****     /** Type for a Non-Interleaving audio callback 
  71:../../libDaisy//src/hid/audio.h ****      * Non-Interleaving audio callbacks in daisy will be of this type
  72:../../libDaisy//src/hid/audio.h ****      */
  73:../../libDaisy//src/hid/audio.h ****     typedef void (*AudioCallback)(InputBuffer  in,
  74:../../libDaisy//src/hid/audio.h ****                                   OutputBuffer out,
  75:../../libDaisy//src/hid/audio.h ****                                   size_t       size);
  76:../../libDaisy//src/hid/audio.h **** 
  77:../../libDaisy//src/hid/audio.h ****     /** Interleaving Input buffer
  78:../../libDaisy//src/hid/audio.h ****      ** audio is prepared as { L0, R0, L1, R1, . . . LN, RN }]
  79:../../libDaisy//src/hid/audio.h ****      ** this is const, as the user shouldn't modify it
  80:../../libDaisy//src/hid/audio.h ****     */
  81:../../libDaisy//src/hid/audio.h ****     typedef const float* InterleavingInputBuffer;
ARM GAS  C:\Users\daniel\AppData\Local\Temp\ccfMEBIt.s 			page 8


  82:../../libDaisy//src/hid/audio.h **** 
  83:../../libDaisy//src/hid/audio.h ****     /** Interleaving Output buffer 
  84:../../libDaisy//src/hid/audio.h ****      ** audio is prepared as { L0, R0, L1, R1, . . . LN, RN }
  85:../../libDaisy//src/hid/audio.h ****     */
  86:../../libDaisy//src/hid/audio.h ****     typedef float* InterleavingOutputBuffer;
  87:../../libDaisy//src/hid/audio.h **** 
  88:../../libDaisy//src/hid/audio.h ****     /** Interleaving Audio Callback 
  89:../../libDaisy//src/hid/audio.h ****      * Interleaving audio callbacks in daisy must be of this type
  90:../../libDaisy//src/hid/audio.h ****      */
  91:../../libDaisy//src/hid/audio.h ****     typedef void (*InterleavingAudioCallback)(InterleavingInputBuffer  in,
  92:../../libDaisy//src/hid/audio.h ****                                               InterleavingOutputBuffer out,
  93:../../libDaisy//src/hid/audio.h ****                                               size_t                   size);
  94:../../libDaisy//src/hid/audio.h **** 
  95:../../libDaisy//src/hid/audio.h ****     AudioHandle() : pimpl_(nullptr) {}
  96:../../libDaisy//src/hid/audio.h ****     ~AudioHandle() {}
  67              		.loc 6 96 5 is_stmt 1 view .LVU11
  68              		.loc 6 96 5 is_stmt 0 view .LVU12
  69              	.LBE142:
  70              	.LBB143:
  71              	.LBI143:
  72              		.file 7 "../../libDaisy//src/sys/system.h"
   1:../../libDaisy//src/sys/system.h **** #ifndef DSY_SYSTEM_H
   2:../../libDaisy//src/sys/system.h **** #define DSY_SYSTEM_H
   3:../../libDaisy//src/sys/system.h **** 
   4:../../libDaisy//src/sys/system.h **** #ifndef UNIT_TEST // for unit tests, a dummy implementation is provided below
   5:../../libDaisy//src/sys/system.h **** 
   6:../../libDaisy//src/sys/system.h **** #include <cstdint>
   7:../../libDaisy//src/sys/system.h **** #include "per/tim.h"
   8:../../libDaisy//src/sys/system.h **** 
   9:../../libDaisy//src/sys/system.h **** namespace daisy
  10:../../libDaisy//src/sys/system.h **** {
  11:../../libDaisy//src/sys/system.h **** /** A handle for interacting with the Core System. 
  12:../../libDaisy//src/sys/system.h ****  ** This includes the Clock tree, MPU, global DMA initialization,
  13:../../libDaisy//src/sys/system.h ****  ** cache handling, and any other necessary global initiailzation
  14:../../libDaisy//src/sys/system.h ****  **
  15:../../libDaisy//src/sys/system.h ****  ** @author shensley
  16:../../libDaisy//src/sys/system.h ****  ** @ingroup system
  17:../../libDaisy//src/sys/system.h ****  */
  18:../../libDaisy//src/sys/system.h **** class System
  19:../../libDaisy//src/sys/system.h **** {
  20:../../libDaisy//src/sys/system.h ****   public:
  21:../../libDaisy//src/sys/system.h ****     /** Contains settings for initializing the System */
  22:../../libDaisy//src/sys/system.h ****     struct Config
  23:../../libDaisy//src/sys/system.h ****     {
  24:../../libDaisy//src/sys/system.h ****         /** Specifies the system clock frequency that feeds APB/AHB clocks, etc. */
  25:../../libDaisy//src/sys/system.h ****         enum class SysClkFreq
  26:../../libDaisy//src/sys/system.h ****         {
  27:../../libDaisy//src/sys/system.h ****             FREQ_400MHZ,
  28:../../libDaisy//src/sys/system.h ****             FREQ_480MHZ,
  29:../../libDaisy//src/sys/system.h ****         };
  30:../../libDaisy//src/sys/system.h **** 
  31:../../libDaisy//src/sys/system.h ****         /** Method to call on the struct to set to defaults
  32:../../libDaisy//src/sys/system.h ****          ** CPU Freq set to 400MHz
  33:../../libDaisy//src/sys/system.h ****          ** Cache Enabled 
  34:../../libDaisy//src/sys/system.h ****          ** */
  35:../../libDaisy//src/sys/system.h ****         void Defaults()
  36:../../libDaisy//src/sys/system.h ****         {
ARM GAS  C:\Users\daniel\AppData\Local\Temp\ccfMEBIt.s 			page 9


  37:../../libDaisy//src/sys/system.h ****             cpu_freq    = SysClkFreq::FREQ_400MHZ;
  38:../../libDaisy//src/sys/system.h ****             use_dcache  = true;
  39:../../libDaisy//src/sys/system.h ****             use_icache  = true;
  40:../../libDaisy//src/sys/system.h ****             skip_clocks = false;
  41:../../libDaisy//src/sys/system.h ****         }
  42:../../libDaisy//src/sys/system.h **** 
  43:../../libDaisy//src/sys/system.h ****         /** Method to call on the struct to set to boost mode:
  44:../../libDaisy//src/sys/system.h ****          ** CPU Freq set to 480MHz
  45:../../libDaisy//src/sys/system.h ****          ** Cache Enabled 
  46:../../libDaisy//src/sys/system.h ****          ** */
  47:../../libDaisy//src/sys/system.h ****         void Boost()
  48:../../libDaisy//src/sys/system.h ****         {
  49:../../libDaisy//src/sys/system.h ****             cpu_freq    = SysClkFreq::FREQ_480MHZ;
  50:../../libDaisy//src/sys/system.h ****             use_dcache  = true;
  51:../../libDaisy//src/sys/system.h ****             use_icache  = true;
  52:../../libDaisy//src/sys/system.h ****             skip_clocks = false;
  53:../../libDaisy//src/sys/system.h ****         }
  54:../../libDaisy//src/sys/system.h **** 
  55:../../libDaisy//src/sys/system.h ****         SysClkFreq cpu_freq;
  56:../../libDaisy//src/sys/system.h ****         bool       use_dcache;
  57:../../libDaisy//src/sys/system.h ****         bool       use_icache;
  58:../../libDaisy//src/sys/system.h ****         bool       skip_clocks;
  59:../../libDaisy//src/sys/system.h ****     };
  60:../../libDaisy//src/sys/system.h **** 
  61:../../libDaisy//src/sys/system.h ****     /** Describes the different regions of memory available to the Daisy
  62:../../libDaisy//src/sys/system.h ****      * 
  63:../../libDaisy//src/sys/system.h ****      */
  64:../../libDaisy//src/sys/system.h ****     enum MemoryRegion
  65:../../libDaisy//src/sys/system.h ****     {
  66:../../libDaisy//src/sys/system.h ****         INTERNAL_FLASH = 0,
  67:../../libDaisy//src/sys/system.h ****         ITCMRAM,
  68:../../libDaisy//src/sys/system.h ****         DTCMRAM,
  69:../../libDaisy//src/sys/system.h ****         SRAM_D1,
  70:../../libDaisy//src/sys/system.h ****         SRAM_D2,
  71:../../libDaisy//src/sys/system.h ****         SRAM_D3,
  72:../../libDaisy//src/sys/system.h ****         SDRAM,
  73:../../libDaisy//src/sys/system.h ****         QSPI,
  74:../../libDaisy//src/sys/system.h ****         INVALID_ADDRESS,
  75:../../libDaisy//src/sys/system.h ****     };
  76:../../libDaisy//src/sys/system.h **** 
  77:../../libDaisy//src/sys/system.h ****     System() {}
  78:../../libDaisy//src/sys/system.h ****     ~System() {}
  73              		.loc 7 78 5 is_stmt 1 view .LVU13
  74              		.loc 7 78 5 is_stmt 0 view .LVU14
  75              	.LBE143:
  76              		.loc 1 65 26 view .LVU15
  77 0000 7047     		bx	lr
  78              		.cfi_endproc
  79              	.LFE2528:
  81              		.weak	_ZN5daisy8patch_sm12DaisyPatchSMD1Ev
  82              		.thumb_set _ZN5daisy8patch_sm12DaisyPatchSMD1Ev,_ZN5daisy8patch_sm12DaisyPatchSMD2Ev
  83 0002 00BF     		.section	.text._ZN7daisysp8BitcrushD2Ev,"axG",%progbits,_ZN7daisysp8BitcrushD5Ev,comdat
  84              		.align	1
  85              		.p2align 2,,3
  86              		.weak	_ZN7daisysp8BitcrushD2Ev
  87              		.syntax unified
  88              		.thumb
ARM GAS  C:\Users\daniel\AppData\Local\Temp\ccfMEBIt.s 			page 10


  89              		.thumb_func
  90              		.fpu fpv5-d16
  92              	_ZN7daisysp8BitcrushD2Ev:
  93              	.LVL1:
  94              	.LFB4370:
  95              		.file 8 "../../DaisySP//Source/Effects/bitcrush.h"
   1:../../DaisySP//Source/Effects/bitcrush.h **** #pragma once
   2:../../DaisySP//Source/Effects/bitcrush.h **** #ifndef DSY_BITCRUSH_H
   3:../../DaisySP//Source/Effects/bitcrush.h **** #define DSY_BITCRUSH_H
   4:../../DaisySP//Source/Effects/bitcrush.h **** 
   5:../../DaisySP//Source/Effects/bitcrush.h **** #include <stdint.h>
   6:../../DaisySP//Source/Effects/bitcrush.h **** #ifdef __cplusplus
   7:../../DaisySP//Source/Effects/bitcrush.h **** 
   8:../../DaisySP//Source/Effects/bitcrush.h **** namespace daisysp
   9:../../DaisySP//Source/Effects/bitcrush.h **** {
  10:../../DaisySP//Source/Effects/bitcrush.h **** /** bitcrush module
  11:../../DaisySP//Source/Effects/bitcrush.h **** 
  12:../../DaisySP//Source/Effects/bitcrush.h **** Original author(s) : Paul Batchelor, 
  13:../../DaisySP//Source/Effects/bitcrush.h **** 
  14:../../DaisySP//Source/Effects/bitcrush.h **** Ported from soundpipe by Ben Sergentanis, May 2020
  15:../../DaisySP//Source/Effects/bitcrush.h **** */
  16:../../DaisySP//Source/Effects/bitcrush.h **** class Bitcrush
  17:../../DaisySP//Source/Effects/bitcrush.h **** {
  18:../../DaisySP//Source/Effects/bitcrush.h ****   public:
  19:../../DaisySP//Source/Effects/bitcrush.h ****     Bitcrush() {}
  20:../../DaisySP//Source/Effects/bitcrush.h ****     ~Bitcrush() {}
  96              		.loc 8 20 5 is_stmt 1 view -0
  97              		.cfi_startproc
  98              		@ args = 0, pretend = 0, frame = 0
  99              		@ frame_needed = 0, uses_anonymous_args = 0
 100              		@ link register save eliminated.
 101              		.loc 8 20 18 is_stmt 0 view .LVU17
 102 0000 7047     		bx	lr
 103              		.cfi_endproc
 104              	.LFE4370:
 106              		.weak	_ZN7daisysp8BitcrushD1Ev
 107              		.thumb_set _ZN7daisysp8BitcrushD1Ev,_ZN7daisysp8BitcrushD2Ev
 108              		.section	.text._ZN7daisysp10SampleHoldD2Ev,"axG",%progbits,_ZN7daisysp10SampleHoldD5Ev,comdat
 109              		.align	1
 110              		.p2align 2,,3
 111              		.weak	_ZN7daisysp10SampleHoldD2Ev
 112              		.syntax unified
 113              		.thumb
 114              		.thumb_func
 115              		.fpu fpv5-d16
 117              	_ZN7daisysp10SampleHoldD2Ev:
 118              	.LVL2:
 119              	.LFB4770:
 120              		.file 9 "../../DaisySP//Source/Utility/samplehold.h"
   1:../../DaisySP//Source/Utility/samplehold.h **** #pragma once
   2:../../DaisySP//Source/Utility/samplehold.h **** #ifndef DSY_SAMPLEHOLD_H
   3:../../DaisySP//Source/Utility/samplehold.h **** #define DSY_SAMPLEHOLD_H
   4:../../DaisySP//Source/Utility/samplehold.h **** 
   5:../../DaisySP//Source/Utility/samplehold.h **** #include <stdint.h>
   6:../../DaisySP//Source/Utility/samplehold.h **** #ifdef __cplusplus
   7:../../DaisySP//Source/Utility/samplehold.h **** 
   8:../../DaisySP//Source/Utility/samplehold.h **** namespace daisysp
ARM GAS  C:\Users\daniel\AppData\Local\Temp\ccfMEBIt.s 			page 11


   9:../../DaisySP//Source/Utility/samplehold.h **** {
  10:../../DaisySP//Source/Utility/samplehold.h **** /** Dual track and hold / Sample and hold module. \n 
  11:../../DaisySP//Source/Utility/samplehold.h ****     Ported from soundpipe by Ben Sergentanis, June 2020.
  12:../../DaisySP//Source/Utility/samplehold.h ****     @author Paul Batchelor
  13:../../DaisySP//Source/Utility/samplehold.h ****     @date   2015
  14:../../DaisySP//Source/Utility/samplehold.h **** */
  15:../../DaisySP//Source/Utility/samplehold.h **** class SampleHold
  16:../../DaisySP//Source/Utility/samplehold.h **** {
  17:../../DaisySP//Source/Utility/samplehold.h ****   public:
  18:../../DaisySP//Source/Utility/samplehold.h ****     SampleHold() {}
  19:../../DaisySP//Source/Utility/samplehold.h ****     ~SampleHold() {}
 121              		.loc 9 19 5 is_stmt 1 view -0
 122              		.cfi_startproc
 123              		@ args = 0, pretend = 0, frame = 0
 124              		@ frame_needed = 0, uses_anonymous_args = 0
 125              		@ link register save eliminated.
 126              		.loc 9 19 20 is_stmt 0 view .LVU19
 127 0000 7047     		bx	lr
 128              		.cfi_endproc
 129              	.LFE4770:
 131              		.weak	_ZN7daisysp10SampleHoldD1Ev
 132              		.thumb_set _ZN7daisysp10SampleHoldD1Ev,_ZN7daisysp10SampleHoldD2Ev
 133              		.section	.text._Z13AudioCallbackPKPKfPPfj,"ax",%progbits
 134              		.align	1
 135              		.p2align 2,,3
 136              		.global	_Z13AudioCallbackPKPKfPPfj
 137              		.syntax unified
 138              		.thumb
 139              		.thumb_func
 140              		.fpu fpv5-d16
 142              	_Z13AudioCallbackPKPKfPPfj:
 143              	.LVL3:
 144              	.LFB4783:
 145              		.file 10 "testbed.cpp"
   1:testbed.cpp   **** #include "daisy_patch_sm.h"
   2:testbed.cpp   **** #include "daisysp.h"
   3:testbed.cpp   **** 
   4:testbed.cpp   **** using namespace daisy;
   5:testbed.cpp   **** using namespace patch_sm;
   6:testbed.cpp   **** using namespace daisysp;
   7:testbed.cpp   **** 
   8:testbed.cpp   **** DaisyPatchSM hw;
   9:testbed.cpp   **** SampleHold	 sh;
  10:testbed.cpp   **** Bitcrush   bitcrush;
  11:testbed.cpp   **** 
  12:testbed.cpp   **** uint8_t     depth;
  13:testbed.cpp   **** 
  14:testbed.cpp   **** void AudioCallback(AudioHandle::InputBuffer in, AudioHandle::OutputBuffer out, size_t size)
  15:testbed.cpp   **** {
 146              		.loc 10 15 1 is_stmt 1 view -0
 147              		.cfi_startproc
 148              		@ args = 0, pretend = 0, frame = 0
 149              		@ frame_needed = 0, uses_anonymous_args = 0
  16:testbed.cpp   **** 	float trig, sig;
 150              		.loc 10 16 2 view .LVU21
  17:testbed.cpp   **** 	hw.ProcessAllControls();
 151              		.loc 10 17 2 view .LVU22
ARM GAS  C:\Users\daniel\AppData\Local\Temp\ccfMEBIt.s 			page 12


 152              	.LBB144:
 153              	.LBI144:
  66:../../libDaisy//src/daisy_patch_sm.h **** 
  67:../../libDaisy//src/daisy_patch_sm.h ****         /** Initializes the memories, and core peripherals for the Daisy Patch SM */
  68:../../libDaisy//src/daisy_patch_sm.h ****         void Init();
  69:../../libDaisy//src/daisy_patch_sm.h **** 
  70:../../libDaisy//src/daisy_patch_sm.h ****         /** Starts a non-interleaving audio callback */
  71:../../libDaisy//src/daisy_patch_sm.h ****         void StartAudio(AudioHandle::AudioCallback cb);
  72:../../libDaisy//src/daisy_patch_sm.h **** 
  73:../../libDaisy//src/daisy_patch_sm.h ****         /** Starts an interleaving audio callback */
  74:../../libDaisy//src/daisy_patch_sm.h ****         void StartAudio(AudioHandle::InterleavingAudioCallback cb);
  75:../../libDaisy//src/daisy_patch_sm.h **** 
  76:../../libDaisy//src/daisy_patch_sm.h ****         /** Changes the callback that is executing.
  77:../../libDaisy//src/daisy_patch_sm.h ****          *  This may cause clicks if done while audio is processing.
  78:../../libDaisy//src/daisy_patch_sm.h ****          */
  79:../../libDaisy//src/daisy_patch_sm.h ****         void ChangeAudioCallback(AudioHandle::AudioCallback cb);
  80:../../libDaisy//src/daisy_patch_sm.h **** 
  81:../../libDaisy//src/daisy_patch_sm.h ****         /** Changes the callback that is executing.
  82:../../libDaisy//src/daisy_patch_sm.h ****          *  This may cause clicks if done while audio is processing.
  83:../../libDaisy//src/daisy_patch_sm.h ****          */
  84:../../libDaisy//src/daisy_patch_sm.h ****         void ChangeAudioCallback(AudioHandle::InterleavingAudioCallback cb);
  85:../../libDaisy//src/daisy_patch_sm.h **** 
  86:../../libDaisy//src/daisy_patch_sm.h ****         /** Stops the transmission of audio. */
  87:../../libDaisy//src/daisy_patch_sm.h ****         void StopAudio();
  88:../../libDaisy//src/daisy_patch_sm.h **** 
  89:../../libDaisy//src/daisy_patch_sm.h ****         /** Sets the number of samples processed in an audio callback. 
  90:../../libDaisy//src/daisy_patch_sm.h ****          *  This will only take effect on the next invocation of `StartAudio`
  91:../../libDaisy//src/daisy_patch_sm.h ****          */
  92:../../libDaisy//src/daisy_patch_sm.h ****         void SetAudioBlockSize(size_t size);
  93:../../libDaisy//src/daisy_patch_sm.h **** 
  94:../../libDaisy//src/daisy_patch_sm.h ****         /** Sets the samplerate for the audio engine 
  95:../../libDaisy//src/daisy_patch_sm.h ****          *  This will set it to the closest valid samplerate. Options being:
  96:../../libDaisy//src/daisy_patch_sm.h ****          *  8kHz, 16kHz, 32kHz, 48kHz, and 96kHz
  97:../../libDaisy//src/daisy_patch_sm.h ****          */
  98:../../libDaisy//src/daisy_patch_sm.h ****         void SetAudioSampleRate(float sr);
  99:../../libDaisy//src/daisy_patch_sm.h **** 
 100:../../libDaisy//src/daisy_patch_sm.h ****         void SetAudioSampleRate(SaiHandle::Config::SampleRate sample_rate);
 101:../../libDaisy//src/daisy_patch_sm.h **** 
 102:../../libDaisy//src/daisy_patch_sm.h ****         /** Returns the number of samples processed in an audio callback */
 103:../../libDaisy//src/daisy_patch_sm.h ****         size_t AudioBlockSize();
 104:../../libDaisy//src/daisy_patch_sm.h **** 
 105:../../libDaisy//src/daisy_patch_sm.h ****         /** Returns the audio engine's samplerate in Hz */
 106:../../libDaisy//src/daisy_patch_sm.h ****         float AudioSampleRate();
 107:../../libDaisy//src/daisy_patch_sm.h **** 
 108:../../libDaisy//src/daisy_patch_sm.h ****         /** Returns the rate at which the audio callback will be called in Hz */
 109:../../libDaisy//src/daisy_patch_sm.h ****         float AudioCallbackRate();
 110:../../libDaisy//src/daisy_patch_sm.h **** 
 111:../../libDaisy//src/daisy_patch_sm.h ****         /** Starts the Control ADCs 
 112:../../libDaisy//src/daisy_patch_sm.h ****          * 
 113:../../libDaisy//src/daisy_patch_sm.h ****          *  This is started automatically when Init() is called.
 114:../../libDaisy//src/daisy_patch_sm.h ****          */
 115:../../libDaisy//src/daisy_patch_sm.h ****         void StartAdc();
 116:../../libDaisy//src/daisy_patch_sm.h **** 
 117:../../libDaisy//src/daisy_patch_sm.h ****         /** Stops the Control ADCs */
 118:../../libDaisy//src/daisy_patch_sm.h ****         void StopAdc();
 119:../../libDaisy//src/daisy_patch_sm.h **** 
 120:../../libDaisy//src/daisy_patch_sm.h ****         /** Reads and filters all of the analog control inputs */
ARM GAS  C:\Users\daniel\AppData\Local\Temp\ccfMEBIt.s 			page 13


 121:../../libDaisy//src/daisy_patch_sm.h ****         void ProcessAnalogControls();
 122:../../libDaisy//src/daisy_patch_sm.h **** 
 123:../../libDaisy//src/daisy_patch_sm.h ****         /** Reads and debounces any of the digital control inputs 
 124:../../libDaisy//src/daisy_patch_sm.h ****          *  This does nothing on this board at this time.
 125:../../libDaisy//src/daisy_patch_sm.h ****          */
 126:../../libDaisy//src/daisy_patch_sm.h ****         void ProcessDigitalControls();
 127:../../libDaisy//src/daisy_patch_sm.h **** 
 128:../../libDaisy//src/daisy_patch_sm.h ****         /** Does both of the above */
 129:../../libDaisy//src/daisy_patch_sm.h ****         void ProcessAllControls()
 154              		.loc 1 129 14 view .LVU23
 155              	.LBB145:
 130:../../libDaisy//src/daisy_patch_sm.h ****         {
 131:../../libDaisy//src/daisy_patch_sm.h ****             ProcessAnalogControls();
 156              		.loc 1 131 13 view .LVU24
 157              	.LBE145:
 158              	.LBE144:
  15:testbed.cpp   **** 	float trig, sig;
 159              		.loc 10 15 1 is_stmt 0 view .LVU25
 160 0000 2DE9F84F 		push	{r3, r4, r5, r6, r7, r8, r9, r10, fp, lr}
 161              		.cfi_def_cfa_offset 40
 162              		.cfi_offset 3, -40
 163              		.cfi_offset 4, -36
 164              		.cfi_offset 5, -32
 165              		.cfi_offset 6, -28
 166              		.cfi_offset 7, -24
 167              		.cfi_offset 8, -20
 168              		.cfi_offset 9, -16
 169              		.cfi_offset 10, -12
 170              		.cfi_offset 11, -8
 171              		.cfi_offset 14, -4
 172 0004 9146     		mov	r9, r2
 173 0006 0546     		mov	r5, r0
 174              	.LBB148:
 175              	.LBB146:
 176              		.loc 1 131 34 view .LVU26
 177 0008 3A48     		ldr	r0, .L15
 178              	.LVL4:
 179              		.loc 1 131 34 view .LVU27
 180              	.LBE146:
 181              	.LBE148:
  15:testbed.cpp   **** 	float trig, sig;
 182              		.loc 10 15 1 view .LVU28
 183 000a 0E46     		mov	r6, r1
 184 000c 2DED028B 		vpush.64	{d8}
 185              		.cfi_def_cfa_offset 48
 186              		.cfi_offset 80, -48
 187              		.cfi_offset 81, -44
 188              	.LBB149:
 189              	.LBB147:
 190              		.loc 1 131 34 view .LVU29
 191 0010 FFF7FEFF 		bl	_ZN5daisy8patch_sm12DaisyPatchSM21ProcessAnalogControlsEv
 192              	.LVL5:
 132:../../libDaisy//src/daisy_patch_sm.h ****             ProcessDigitalControls();
 193              		.loc 1 132 13 is_stmt 1 view .LVU30
 194              		.loc 1 132 35 is_stmt 0 view .LVU31
 195 0014 3748     		ldr	r0, .L15
 196 0016 FFF7FEFF 		bl	_ZN5daisy8patch_sm12DaisyPatchSM22ProcessDigitalControlsEv
ARM GAS  C:\Users\daniel\AppData\Local\Temp\ccfMEBIt.s 			page 14


 197              	.LVL6:
 198              		.loc 1 132 35 view .LVU32
 199              	.LBE147:
 200              	.LBE149:
  18:testbed.cpp   **** 	for (size_t i = 0; i < size; i++)
 201              		.loc 10 18 2 is_stmt 1 view .LVU33
 202              	.LBB150:
 203              		.loc 10 18 23 view .LVU34
 204 001a B9F1000F 		cmp	r9, #0
 205 001e 65D0     		beq	.L5
 206              	.LBB151:
  19:testbed.cpp   **** 	{
  20:testbed.cpp   **** 		sig = IN_L[1] + IN_R[1];
 207              		.loc 10 20 19 is_stmt 0 view .LVU35
 208 0020 6968     		ldr	r1, [r5, #4]
 209              	.LBE151:
  18:testbed.cpp   **** 	for (size_t i = 0; i < size; i++)
 210              		.loc 10 18 14 view .LVU36
 211 0022 4FF0000A 		mov	r10, #0
 212 0026 344C     		ldr	r4, .L15+4
 213 0028 DFF8DC80 		ldr	r8, .L15+20
 214 002c 334F     		ldr	r7, .L15+8
 215 002e 41E0     		b	.L11
 216              	.LVL7:
 217              	.L14:
 218              	.LBB184:
 219              	.LBB152:
 220              	.LBB153:
 221              	.LBB154:
 222              	.LBB155:
  20:../../DaisySP//Source/Utility/samplehold.h **** 
  21:../../DaisySP//Source/Utility/samplehold.h ****     enum Mode
  22:../../DaisySP//Source/Utility/samplehold.h ****     {
  23:../../DaisySP//Source/Utility/samplehold.h ****         MODE_SAMPLE_HOLD,
  24:../../DaisySP//Source/Utility/samplehold.h ****         MODE_TRACK_HOLD,
  25:../../DaisySP//Source/Utility/samplehold.h ****         MODE_LAST,
  26:../../DaisySP//Source/Utility/samplehold.h ****     };
  27:../../DaisySP//Source/Utility/samplehold.h **** 
  28:../../DaisySP//Source/Utility/samplehold.h ****     /** Process the next sample. Both sample and track and hold are run in parallel
  29:../../DaisySP//Source/Utility/samplehold.h ****     \param trigger Trigger the sample/track and hold
  30:../../DaisySP//Source/Utility/samplehold.h ****     \param input   Signal to be sampled/tracked and held
  31:../../DaisySP//Source/Utility/samplehold.h ****     \param mode    Whether to output the tracked or sampled values.
  32:../../DaisySP//Source/Utility/samplehold.h ****     */
  33:../../DaisySP//Source/Utility/samplehold.h ****     inline float
  34:../../DaisySP//Source/Utility/samplehold.h ****     Process(bool trigger, float input, Mode mode = MODE_SAMPLE_HOLD)
  35:../../DaisySP//Source/Utility/samplehold.h ****     {
  36:../../DaisySP//Source/Utility/samplehold.h ****         Update(trigger, input);
  37:../../DaisySP//Source/Utility/samplehold.h ****         return mode == MODE_SAMPLE_HOLD ? sample_ : track_;
  38:../../DaisySP//Source/Utility/samplehold.h ****     }
  39:../../DaisySP//Source/Utility/samplehold.h **** 
  40:../../DaisySP//Source/Utility/samplehold.h ****   private:
  41:../../DaisySP//Source/Utility/samplehold.h ****     float track_    = 0;
  42:../../DaisySP//Source/Utility/samplehold.h ****     float sample_   = 0;
  43:../../DaisySP//Source/Utility/samplehold.h ****     bool  previous_ = false;
  44:../../DaisySP//Source/Utility/samplehold.h **** 
  45:../../DaisySP//Source/Utility/samplehold.h **** 
  46:../../DaisySP//Source/Utility/samplehold.h ****     inline void Update(bool trigger, float input)
ARM GAS  C:\Users\daniel\AppData\Local\Temp\ccfMEBIt.s 			page 15


  47:../../DaisySP//Source/Utility/samplehold.h ****     {
  48:../../DaisySP//Source/Utility/samplehold.h ****         if(trigger)
  49:../../DaisySP//Source/Utility/samplehold.h ****         {
  50:../../DaisySP//Source/Utility/samplehold.h ****             if(!previous_)
  51:../../DaisySP//Source/Utility/samplehold.h ****             {
  52:../../DaisySP//Source/Utility/samplehold.h ****                 sample_ = input;
 223              		.loc 9 52 17 is_stmt 1 view .LVU37
  50:../../DaisySP//Source/Utility/samplehold.h ****             {
 224              		.loc 9 50 13 is_stmt 0 view .LVU38
 225 0030 237A     		ldrb	r3, [r4, #8]	@ zero_extendqisi2
 226 0032 002B     		cmp	r3, #0
 227 0034 57D0     		beq	.L8
 228              	.LBE155:
 229              	.LBE154:
  37:../../DaisySP//Source/Utility/samplehold.h ****     }
 230              		.loc 9 37 41 view .LVU39
 231 0036 94ED010A 		vldr.32	s0, [r4, #4]
 232              	.LVL8:
 233              	.L9:
 234              	.LBB162:
 235              	.LBB156:
  53:../../DaisySP//Source/Utility/samplehold.h ****             }
  54:../../DaisySP//Source/Utility/samplehold.h ****             track_ = input;
 236              		.loc 9 54 13 is_stmt 1 view .LVU40
  55:../../DaisySP//Source/Utility/samplehold.h ****         }
  56:../../DaisySP//Source/Utility/samplehold.h ****         previous_ = trigger;
 237              		.loc 9 56 19 is_stmt 0 view .LVU41
 238 003a 0123     		movs	r3, #1
 239              	.LBE156:
 240              	.LBE162:
 241              	.LBE153:
 242              	.LBE152:
  21:testbed.cpp   **** 		trig = hw.gate_in_1.Trig();
  22:testbed.cpp   **** 		float   newsample = sh.Process(trig, hw.GetAdcValue(CV_5),sh.MODE_SAMPLE_HOLD);
  23:testbed.cpp   **** 
  24:testbed.cpp   **** 		if(trig)
  25:testbed.cpp   **** 			{
  26:testbed.cpp   **** 				hw.WriteCvOut(CV_OUT_BOTH, newsample);
 243              		.loc 10 26 18 view .LVU42
 244 003c 0021     		movs	r1, #0
 245 003e 2D48     		ldr	r0, .L15
 246              	.LBB173:
 247              	.LBB168:
 248              	.LBB163:
 249              	.LBB157:
 250              		.loc 9 56 19 view .LVU43
 251 0040 2372     		strb	r3, [r4, #8]
  54:../../DaisySP//Source/Utility/samplehold.h ****         }
 252              		.loc 9 54 20 view .LVU44
 253 0042 C4ED007A 		vstr.32	s15, [r4]
 254              		.loc 9 56 9 is_stmt 1 view .LVU45
 255              	.LVL9:
 256              		.loc 9 56 9 is_stmt 0 view .LVU46
 257              	.LBE157:
 258              	.LBE163:
  37:../../DaisySP//Source/Utility/samplehold.h ****     }
 259              		.loc 9 37 9 is_stmt 1 view .LVU47
ARM GAS  C:\Users\daniel\AppData\Local\Temp\ccfMEBIt.s 			page 16


  37:../../DaisySP//Source/Utility/samplehold.h ****     }
 260              		.loc 9 37 9 is_stmt 0 view .LVU48
 261              	.LBE168:
 262              	.LBE173:
  24:testbed.cpp   **** 			{
 263              		.loc 10 24 3 is_stmt 1 view .LVU49
 264              		.loc 10 26 5 view .LVU50
 265              		.loc 10 26 18 is_stmt 0 view .LVU51
 266 0046 FFF7FEFF 		bl	_ZN5daisy8patch_sm12DaisyPatchSM10WriteCvOutEif
 267              	.LVL10:
  27:testbed.cpp   **** 				depth++;
 268              		.loc 10 27 5 is_stmt 1 view .LVU52
  28:testbed.cpp   ****             	depth %= 6;
 269              		.loc 10 28 14 view .LVU53
  27:testbed.cpp   **** 				depth++;
 270              		.loc 10 27 10 is_stmt 0 view .LVU54
 271 004a 98F80030 		ldrb	r3, [r8]	@ zero_extendqisi2
 272              		.loc 10 28 20 view .LVU55
 273 004e 2C4A     		ldr	r2, .L15+12
  27:testbed.cpp   **** 				depth++;
 274              		.loc 10 27 10 view .LVU56
 275 0050 0133     		adds	r3, r3, #1
 276              		.loc 10 28 20 view .LVU57
 277 0052 DBB2     		uxtb	r3, r3
 278 0054 A2FB0312 		umull	r1, r2, r2, r3
 279 0058 9208     		lsrs	r2, r2, #2
 280 005a 02EB4202 		add	r2, r2, r2, lsl #1
 281 005e A3EB4203 		sub	r3, r3, r2, lsl #1
 282 0062 DBB2     		uxtb	r3, r3
 283 0064 88F80030 		strb	r3, [r8]
 284              	.L12:
  29:testbed.cpp   **** 			}
  30:testbed.cpp   **** 
  31:testbed.cpp   **** 		bitcrush.SetBitDepth(depth + 2);
 285              		.loc 10 31 3 is_stmt 1 discriminator 2 view .LVU58
 286              		.loc 10 31 23 is_stmt 0 discriminator 2 view .LVU59
 287 0068 0233     		adds	r3, r3, #2
 288              	.LVL11:
 289              	.LBB174:
 290              	.LBI174:
  21:../../DaisySP//Source/Effects/bitcrush.h ****     /** Initializes the bitcrush module.
  22:../../DaisySP//Source/Effects/bitcrush.h ****         \param sample_rate - The sample rate of the audio engine being run. 
  23:../../DaisySP//Source/Effects/bitcrush.h ****     */
  24:../../DaisySP//Source/Effects/bitcrush.h ****     void Init(float sample_rate);
  25:../../DaisySP//Source/Effects/bitcrush.h **** 
  26:../../DaisySP//Source/Effects/bitcrush.h **** 
  27:../../DaisySP//Source/Effects/bitcrush.h ****     /** bit crushes and downsamples the input
  28:../../DaisySP//Source/Effects/bitcrush.h ****     */
  29:../../DaisySP//Source/Effects/bitcrush.h ****     float Process(float in);
  30:../../DaisySP//Source/Effects/bitcrush.h **** 
  31:../../DaisySP//Source/Effects/bitcrush.h **** 
  32:../../DaisySP//Source/Effects/bitcrush.h ****     /** adjusts bitdepth
  33:../../DaisySP//Source/Effects/bitcrush.h ****         \param bitdepth : Sets bit depth, 0...16
  34:../../DaisySP//Source/Effects/bitcrush.h ****     */
  35:../../DaisySP//Source/Effects/bitcrush.h ****     inline void SetBitDepth(int bitdepth) { bit_depth_ = bitdepth; }
 291              		.loc 8 35 17 is_stmt 1 discriminator 2 view .LVU60
 292              	.LBB175:
ARM GAS  C:\Users\daniel\AppData\Local\Temp\ccfMEBIt.s 			page 17


 293              		.loc 8 35 45 discriminator 2 view .LVU61
 294              	.LBE175:
 295              	.LBE174:
  32:testbed.cpp   ****         bitcrush.SetCrushRate((depth + 2) * 2000);
 296              		.loc 10 32 43 is_stmt 0 discriminator 2 view .LVU62
 297 006a 4FF4FA62 		mov	r2, #2000
  33:testbed.cpp   ****         sig = bitcrush.Process(sig);
 298              		.loc 10 33 31 discriminator 2 view .LVU63
 299 006e 2348     		ldr	r0, .L15+8
 300 0070 B0EE480A 		vmov.f32	s0, s16
  32:testbed.cpp   ****         bitcrush.SetCrushRate((depth + 2) * 2000);
 301              		.loc 10 32 43 discriminator 2 view .LVU64
 302 0074 03FB02F2 		mul	r2, r3, r2
 303              	.LBB177:
 304              	.LBB176:
 305              		.loc 8 35 56 discriminator 2 view .LVU65
 306 0078 BB60     		str	r3, [r7, #8]
 307              	.LVL12:
 308              		.loc 8 35 56 discriminator 2 view .LVU66
 309              	.LBE176:
 310              	.LBE177:
  32:testbed.cpp   ****         bitcrush.SetCrushRate((depth + 2) * 2000);
 311              		.loc 10 32 9 is_stmt 1 discriminator 2 view .LVU67
 312              	.LBB178:
 313              	.LBI178:
  36:../../DaisySP//Source/Effects/bitcrush.h ****     /** adjusts the downsampling frequency
  37:../../DaisySP//Source/Effects/bitcrush.h ****         \param crushrate : Sets rate to downsample to, 0...SampleRate
  38:../../DaisySP//Source/Effects/bitcrush.h ****     */
  39:../../DaisySP//Source/Effects/bitcrush.h ****     inline void SetCrushRate(float crushrate) { crush_rate_ = crushrate; }
 314              		.loc 8 39 17 discriminator 2 view .LVU68
 315              	.LBB179:
 316              		.loc 8 39 49 discriminator 2 view .LVU69
 317              	.LBE179:
 318              	.LBE178:
  32:testbed.cpp   ****         sig = bitcrush.Process(sig);
 319              		.loc 10 32 30 is_stmt 0 discriminator 2 view .LVU70
 320 007a 07EE902A 		vmov	s15, r2	@ int
 321 007e F8EEE77A 		vcvt.f32.s32	s15, s15
 322 0082 C7ED017A 		vstr.32	s15, [r7, #4]
 323              	.LVL13:
 324              		.loc 10 33 9 is_stmt 1 discriminator 2 view .LVU71
 325              		.loc 10 33 31 is_stmt 0 discriminator 2 view .LVU72
 326 0086 FFF7FEFF 		bl	_ZN7daisysp8Bitcrush7ProcessEf
 327              	.LVL14:
  34:testbed.cpp   **** 
  35:testbed.cpp   **** 		OUT_L[i] = sig;
 328              		.loc 10 35 12 discriminator 2 view .LVU73
 329 008a 3268     		ldr	r2, [r6]
  36:testbed.cpp   **** 		OUT_R[i] = IN_R[i] + sig;
 330              		.loc 10 36 14 discriminator 2 view .LVU74
 331 008c 6968     		ldr	r1, [r5, #4]
  35:testbed.cpp   **** 		OUT_R[i] = IN_R[i] + sig;
 332              		.loc 10 35 12 discriminator 2 view .LVU75
 333 008e 02EB8A02 		add	r2, r2, r10, lsl #2
 334              		.loc 10 36 12 discriminator 2 view .LVU76
 335 0092 7368     		ldr	r3, [r6, #4]
 336              	.LVL15:
ARM GAS  C:\Users\daniel\AppData\Local\Temp\ccfMEBIt.s 			page 18


  35:testbed.cpp   **** 		OUT_R[i] = IN_R[i] + sig;
 337              		.loc 10 35 3 is_stmt 1 discriminator 2 view .LVU77
 338              		.loc 10 36 20 is_stmt 0 discriminator 2 view .LVU78
 339 0094 01EB8A00 		add	r0, r1, r10, lsl #2
  35:testbed.cpp   **** 		OUT_R[i] = IN_R[i] + sig;
 340              		.loc 10 35 12 discriminator 2 view .LVU79
 341 0098 82ED000A 		vstr.32	s0, [r2]
 342              		.loc 10 36 3 is_stmt 1 discriminator 2 view .LVU80
 343              		.loc 10 36 12 is_stmt 0 discriminator 2 view .LVU81
 344 009c 03EB8A03 		add	r3, r3, r10, lsl #2
 345              		.loc 10 36 22 discriminator 2 view .LVU82
 346 00a0 D0ED007A 		vldr.32	s15, [r0]
 347              	.LBE184:
  18:testbed.cpp   **** 	{
 348              		.loc 10 18 2 discriminator 2 view .LVU83
 349 00a4 0AF1010A 		add	r10, r10, #1
 350              	.LVL16:
 351              	.LBB185:
 352              		.loc 10 36 22 discriminator 2 view .LVU84
 353 00a8 37EE800A 		vadd.f32	s0, s15, s0
 354              	.LVL17:
 355              		.loc 10 36 22 discriminator 2 view .LVU85
 356              	.LBE185:
  18:testbed.cpp   **** 	{
 357              		.loc 10 18 23 discriminator 2 view .LVU86
 358 00ac D145     		cmp	r9, r10
 359              	.LBB186:
 360              		.loc 10 36 12 discriminator 2 view .LVU87
 361 00ae 83ED000A 		vstr.32	s0, [r3]
 362              	.LVL18:
 363              		.loc 10 36 12 discriminator 2 view .LVU88
 364              	.LBE186:
  18:testbed.cpp   **** 	{
 365              		.loc 10 18 2 is_stmt 1 discriminator 2 view .LVU89
  18:testbed.cpp   **** 	{
 366              		.loc 10 18 23 discriminator 2 view .LVU90
 367 00b2 1BD0     		beq	.L5
 368              	.LVL19:
 369              	.L11:
 370              	.LBB187:
  20:testbed.cpp   **** 		trig = hw.gate_in_1.Trig();
 371              		.loc 10 20 3 view .LVU91
  20:testbed.cpp   **** 		trig = hw.gate_in_1.Trig();
 372              		.loc 10 20 15 is_stmt 0 view .LVU92
 373 00b4 2B68     		ldr	r3, [r5]
  20:testbed.cpp   **** 		trig = hw.gate_in_1.Trig();
 374              		.loc 10 20 7 view .LVU93
 375 00b6 D1ED017A 		vldr.32	s15, [r1, #4]
 376 00ba 93ED018A 		vldr.32	s16, [r3, #4]
  21:testbed.cpp   **** 		float   newsample = sh.Process(trig, hw.GetAdcValue(CV_5),sh.MODE_SAMPLE_HOLD);
 377              		.loc 10 21 27 view .LVU94
 378 00be 1148     		ldr	r0, .L15+16
  20:testbed.cpp   **** 		trig = hw.gate_in_1.Trig();
 379              		.loc 10 20 7 view .LVU95
 380 00c0 38EE278A 		vadd.f32	s16, s16, s15
 381              	.LVL20:
  21:testbed.cpp   **** 		float   newsample = sh.Process(trig, hw.GetAdcValue(CV_5),sh.MODE_SAMPLE_HOLD);
ARM GAS  C:\Users\daniel\AppData\Local\Temp\ccfMEBIt.s 			page 19


 382              		.loc 10 21 3 is_stmt 1 view .LVU96
  21:testbed.cpp   **** 		float   newsample = sh.Process(trig, hw.GetAdcValue(CV_5),sh.MODE_SAMPLE_HOLD);
 383              		.loc 10 21 27 is_stmt 0 view .LVU97
 384 00c4 FFF7FEFF 		bl	_ZN5daisy6GateIn4TrigEv
 385              	.LVL21:
 386 00c8 8346     		mov	fp, r0
  22:testbed.cpp   **** 
 387              		.loc 10 22 33 view .LVU98
 388 00ca 0421     		movs	r1, #4
 389 00cc 0948     		ldr	r0, .L15
 390              	.LVL22:
  22:testbed.cpp   **** 
 391              		.loc 10 22 3 is_stmt 1 view .LVU99
  22:testbed.cpp   **** 
 392              		.loc 10 22 33 is_stmt 0 view .LVU100
 393 00ce FFF7FEFF 		bl	_ZN5daisy8patch_sm12DaisyPatchSM11GetAdcValueEi
 394              	.LVL23:
 395              	.LBB180:
 396              	.LBB169:
 397              	.LBB164:
 398              	.LBB158:
  50:../../DaisySP//Source/Utility/samplehold.h ****             {
 399              		.loc 9 50 13 is_stmt 1 view .LVU101
 400              		.loc 9 56 9 view .LVU102
 401              	.LBE158:
 402              	.LBE164:
 403              	.LBE169:
 404              	.LBE180:
  22:testbed.cpp   **** 
 405              		.loc 10 22 33 is_stmt 0 view .LVU103
 406 00d2 F0EE407A 		vmov.f32	s15, s0
 407              	.LVL24:
 408              	.LBB181:
 409              	.LBI152:
  34:../../DaisySP//Source/Utility/samplehold.h ****     {
 410              		.loc 9 34 5 is_stmt 1 view .LVU104
 411              	.LBB170:
  36:../../DaisySP//Source/Utility/samplehold.h ****         return mode == MODE_SAMPLE_HOLD ? sample_ : track_;
 412              		.loc 9 36 9 view .LVU105
 413              	.LBB165:
 414              	.LBI154:
  46:../../DaisySP//Source/Utility/samplehold.h ****     {
 415              		.loc 9 46 17 view .LVU106
 416              	.LBB159:
  48:../../DaisySP//Source/Utility/samplehold.h ****         {
 417              		.loc 9 48 9 view .LVU107
 418 00d6 BBF1000F 		cmp	fp, #0
 419 00da A9D1     		bne	.L14
 420              	.LBE159:
 421              	.LBE165:
 422              	.LBE170:
 423              	.LBE181:
  31:testbed.cpp   ****         bitcrush.SetCrushRate((depth + 2) * 2000);
 424              		.loc 10 31 24 is_stmt 0 view .LVU108
 425 00dc 98F80030 		ldrb	r3, [r8]	@ zero_extendqisi2
 426              	.LBB182:
 427              	.LBB171:
ARM GAS  C:\Users\daniel\AppData\Local\Temp\ccfMEBIt.s 			page 20


 428              	.LBB166:
 429              	.LBB160:
 430              		.loc 9 56 19 view .LVU109
 431 00e0 84F808B0 		strb	fp, [r4, #8]
 432              	.LVL25:
 433              		.loc 9 56 19 view .LVU110
 434              	.LBE160:
 435              	.LBE166:
  37:../../DaisySP//Source/Utility/samplehold.h ****     }
 436              		.loc 9 37 9 is_stmt 1 view .LVU111
  37:../../DaisySP//Source/Utility/samplehold.h ****     }
 437              		.loc 9 37 9 is_stmt 0 view .LVU112
 438              	.LBE171:
 439              	.LBE182:
  24:testbed.cpp   **** 			{
 440              		.loc 10 24 3 is_stmt 1 view .LVU113
 441 00e4 C0E7     		b	.L12
 442              	.LVL26:
 443              	.L8:
 444              	.LBB183:
 445              	.LBB172:
 446              	.LBB167:
 447              	.LBB161:
  52:../../DaisySP//Source/Utility/samplehold.h ****             }
 448              		.loc 9 52 25 is_stmt 0 view .LVU114
 449 00e6 84ED010A 		vstr.32	s0, [r4, #4]
 450 00ea A6E7     		b	.L9
 451              	.LVL27:
 452              	.L5:
  52:../../DaisySP//Source/Utility/samplehold.h ****             }
 453              		.loc 9 52 25 view .LVU115
 454              	.LBE161:
 455              	.LBE167:
 456              	.LBE172:
 457              	.LBE183:
 458              	.LBE187:
 459              	.LBE150:
  37:testbed.cpp   **** 	}
  38:testbed.cpp   **** }
 460              		.loc 10 38 1 view .LVU116
 461 00ec BDEC028B 		vldm	sp!, {d8}
 462              		.cfi_restore 80
 463              		.cfi_restore 81
 464              		.cfi_def_cfa_offset 40
 465 00f0 BDE8F88F 		pop	{r3, r4, r5, r6, r7, r8, r9, r10, fp, pc}
 466              	.LVL28:
 467              	.L16:
 468              		.loc 10 38 1 view .LVU117
 469              		.align	2
 470              	.L15:
 471 00f4 00000000 		.word	.LANCHOR0
 472 00f8 00000000 		.word	.LANCHOR1
 473 00fc 00000000 		.word	.LANCHOR3
 474 0100 ABAAAAAA 		.word	-1431655765
 475 0104 B0010000 		.word	.LANCHOR0+432
 476 0108 00000000 		.word	.LANCHOR2
 477              		.cfi_endproc
ARM GAS  C:\Users\daniel\AppData\Local\Temp\ccfMEBIt.s 			page 21


 478              	.LFE4783:
 480              		.section	.text.startup.main,"ax",%progbits
 481              		.align	1
 482              		.p2align 2,,3
 483              		.global	main
 484              		.syntax unified
 485              		.thumb
 486              		.thumb_func
 487              		.fpu fpv5-d16
 489              	main:
 490              	.LFB4784:
  39:testbed.cpp   **** 
  40:testbed.cpp   **** int main(void)
  41:testbed.cpp   **** {
 491              		.loc 10 41 1 is_stmt 1 view -0
 492              		.cfi_startproc
 493              		@ args = 0, pretend = 0, frame = 0
 494              		@ frame_needed = 0, uses_anonymous_args = 0
  42:testbed.cpp   **** 	float sample_rate;
 495              		.loc 10 42 2 view .LVU119
  43:testbed.cpp   **** 	sample_rate = hw.AudioSampleRate();
 496              		.loc 10 43 2 view .LVU120
  41:testbed.cpp   **** 	float sample_rate;
 497              		.loc 10 41 1 is_stmt 0 view .LVU121
 498 0000 10B5     		push	{r4, lr}
 499              		.cfi_def_cfa_offset 8
 500              		.cfi_offset 4, -8
 501              		.cfi_offset 14, -4
  44:testbed.cpp   **** 	bitcrush.Init(sample_rate);
 502              		.loc 10 44 15 view .LVU122
 503 0002 0D4C     		ldr	r4, .L20
  43:testbed.cpp   **** 	sample_rate = hw.AudioSampleRate();
 504              		.loc 10 43 34 view .LVU123
 505 0004 0D48     		ldr	r0, .L20+4
 506 0006 FFF7FEFF 		bl	_ZN5daisy8patch_sm12DaisyPatchSM15AudioSampleRateEv
 507              	.LVL29:
 508              		.loc 10 44 2 is_stmt 1 view .LVU124
 509              		.loc 10 44 15 is_stmt 0 view .LVU125
 510 000a 2046     		mov	r0, r4
 511 000c FFF7FEFF 		bl	_ZN7daisysp8Bitcrush4InitEf
 512              	.LVL30:
  45:testbed.cpp   **** 	bitcrush.SetBitDepth(6);
 513              		.loc 10 45 2 is_stmt 1 view .LVU126
 514              	.LBB188:
 515              	.LBI188:
  35:../../DaisySP//Source/Effects/bitcrush.h ****     /** adjusts the downsampling frequency
 516              		.loc 8 35 17 view .LVU127
 517              	.LBB189:
  35:../../DaisySP//Source/Effects/bitcrush.h ****     /** adjusts the downsampling frequency
 518              		.loc 8 35 45 view .LVU128
  35:../../DaisySP//Source/Effects/bitcrush.h ****     /** adjusts the downsampling frequency
 519              		.loc 8 35 56 is_stmt 0 view .LVU129
 520 0010 0622     		movs	r2, #6
 521              	.LBE189:
 522              	.LBE188:
 523              	.LBB191:
 524              	.LBB192:
ARM GAS  C:\Users\daniel\AppData\Local\Temp\ccfMEBIt.s 			page 22


 525              		.loc 8 39 61 view .LVU130
 526 0012 0B4B     		ldr	r3, .L20+8
 527              	.LBE192:
 528              	.LBE191:
  46:testbed.cpp   **** 	bitcrush.SetCrushRate(10000);
  47:testbed.cpp   **** 	hw.Init();
 529              		.loc 10 47 9 view .LVU131
 530 0014 0948     		ldr	r0, .L20+4
 531              	.LBB194:
 532              	.LBB190:
  35:../../DaisySP//Source/Effects/bitcrush.h ****     /** adjusts the downsampling frequency
 533              		.loc 8 35 56 view .LVU132
 534 0016 A260     		str	r2, [r4, #8]
 535              	.LVL31:
  35:../../DaisySP//Source/Effects/bitcrush.h ****     /** adjusts the downsampling frequency
 536              		.loc 8 35 56 view .LVU133
 537              	.LBE190:
 538              	.LBE194:
  46:testbed.cpp   **** 	bitcrush.SetCrushRate(10000);
 539              		.loc 10 46 2 is_stmt 1 view .LVU134
 540              	.LBB195:
 541              	.LBI191:
 542              		.loc 8 39 17 view .LVU135
 543              	.LBB193:
 544              		.loc 8 39 49 view .LVU136
 545              		.loc 8 39 61 is_stmt 0 view .LVU137
 546 0018 6360     		str	r3, [r4, #4]	@ float
 547              	.LVL32:
 548              		.loc 8 39 61 view .LVU138
 549              	.LBE193:
 550              	.LBE195:
 551              		.loc 10 47 2 is_stmt 1 view .LVU139
 552              		.loc 10 47 9 is_stmt 0 view .LVU140
 553 001a FFF7FEFF 		bl	_ZN5daisy8patch_sm12DaisyPatchSM4InitEv
 554              	.LVL33:
  48:testbed.cpp   **** 	hw.SetAudioBlockSize(4); // number of samples handled per callback
 555              		.loc 10 48 2 is_stmt 1 view .LVU141
 556              		.loc 10 48 22 is_stmt 0 view .LVU142
 557 001e 0421     		movs	r1, #4
 558 0020 0648     		ldr	r0, .L20+4
 559 0022 FFF7FEFF 		bl	_ZN5daisy8patch_sm12DaisyPatchSM17SetAudioBlockSizeEj
 560              	.LVL34:
  49:testbed.cpp   **** 	hw.SetAudioSampleRate(SaiHandle::Config::SampleRate::SAI_48KHZ);
 561              		.loc 10 49 2 is_stmt 1 view .LVU143
 562              		.loc 10 49 23 is_stmt 0 view .LVU144
 563 0026 0321     		movs	r1, #3
 564 0028 0448     		ldr	r0, .L20+4
 565 002a FFF7FEFF 		bl	_ZN5daisy8patch_sm12DaisyPatchSM18SetAudioSampleRateENS_9SaiHandle6Config10SampleRateE
 566              	.LVL35:
  50:testbed.cpp   **** 	hw.StartAudio(AudioCallback);
 567              		.loc 10 50 2 is_stmt 1 view .LVU145
 568              		.loc 10 50 15 is_stmt 0 view .LVU146
 569 002e 0549     		ldr	r1, .L20+12
 570 0030 0248     		ldr	r0, .L20+4
 571 0032 FFF7FEFF 		bl	_ZN5daisy8patch_sm12DaisyPatchSM10StartAudioEPFvPKPKfPPfjE
 572              	.LVL36:
 573              	.L18:
ARM GAS  C:\Users\daniel\AppData\Local\Temp\ccfMEBIt.s 			page 23


  51:testbed.cpp   **** 	while(1) {}
 574              		.loc 10 51 2 is_stmt 1 discriminator 1 view .LVU147
 575              		.loc 10 51 2 discriminator 1 view .LVU148
 576              		.loc 10 51 2 discriminator 1 view .LVU149
 577              		.loc 10 51 2 discriminator 1 view .LVU150
 578 0036 FEE7     		b	.L18
 579              	.L21:
 580              		.align	2
 581              	.L20:
 582 0038 00000000 		.word	.LANCHOR3
 583 003c 00000000 		.word	.LANCHOR0
 584 0040 00401C46 		.word	1176256512
 585 0044 00000000 		.word	_Z13AudioCallbackPKPKfPPfj
 586              		.cfi_endproc
 587              	.LFE4784:
 589              		.section	.text.startup._GLOBAL__sub_I_hw,"ax",%progbits
 590              		.align	1
 591              		.p2align 2,,3
 592              		.syntax unified
 593              		.thumb
 594              		.thumb_func
 595              		.fpu fpv5-d16
 597              	_GLOBAL__sub_I_hw:
 598              	.LFB5344:
  52:testbed.cpp   **** }
 599              		.loc 10 52 1 view -0
 600              		.cfi_startproc
 601              		@ args = 0, pretend = 0, frame = 0
 602              		@ frame_needed = 0, uses_anonymous_args = 0
 603              	.LBB229:
 604              	.LBI229:
 605              		.loc 10 52 1 view .LVU152
 606              	.LVL37:
 607              	.LBB230:
 608              	.LBB231:
 609              	.LBI231:
  64:../../libDaisy//src/daisy_patch_sm.h ****         ~DaisyPatchSM() {}
 610              		.loc 1 64 9 view .LVU153
 611              	.LBB232:
 612              	.LBB233:
 613              	.LBI233:
  77:../../libDaisy//src/sys/system.h ****     ~System() {}
 614              		.loc 7 77 5 view .LVU154
  77:../../libDaisy//src/sys/system.h ****     ~System() {}
 615              		.loc 7 77 5 is_stmt 0 view .LVU155
 616              	.LBE233:
 617              	.LBB234:
 618              	.LBI234:
 619              		.file 11 "../../libDaisy//src/per/qspi.h"
   1:../../libDaisy//src/per/qspi.h **** #ifndef DSY_QSPI
   2:../../libDaisy//src/per/qspi.h **** #define DSY_QSPI /**< Macro */
   3:../../libDaisy//src/per/qspi.h **** 
   4:../../libDaisy//src/per/qspi.h **** #ifndef UNIT_TEST // for unit tests, a dummy implementation
   5:../../libDaisy//src/per/qspi.h **** 
   6:../../libDaisy//src/per/qspi.h **** #include <cstdint>
   7:../../libDaisy//src/per/qspi.h **** #include "daisy_core.h" // Added for dsy_gpio_pin typedef
   8:../../libDaisy//src/per/qspi.h **** 
ARM GAS  C:\Users\daniel\AppData\Local\Temp\ccfMEBIt.s 			page 24


   9:../../libDaisy//src/per/qspi.h **** #define DSY_QSPI_TEXT       \
  10:../../libDaisy//src/per/qspi.h ****     __attribute__((section( \
  11:../../libDaisy//src/per/qspi.h ****         ".qspiflash_text"))) /**< used for reading memory in memory_mapped mode. */
  12:../../libDaisy//src/per/qspi.h **** #define DSY_QSPI_DATA       \
  13:../../libDaisy//src/per/qspi.h ****     __attribute__((section( \
  14:../../libDaisy//src/per/qspi.h ****         ".qspiflash_data"))) /**< used for reading memory in memory_mapped mode. */
  15:../../libDaisy//src/per/qspi.h **** #define DSY_QSPI_BSS        \
  16:../../libDaisy//src/per/qspi.h ****     __attribute__((section( \
  17:../../libDaisy//src/per/qspi.h ****         ".qspiflash_bss"))) /**< used for reading memory in memory_mapped mode. */
  18:../../libDaisy//src/per/qspi.h **** 
  19:../../libDaisy//src/per/qspi.h **** namespace daisy
  20:../../libDaisy//src/per/qspi.h **** {
  21:../../libDaisy//src/per/qspi.h **** /** @addtogroup serial
  22:../../libDaisy//src/per/qspi.h **** @{
  23:../../libDaisy//src/per/qspi.h **** */
  24:../../libDaisy//src/per/qspi.h **** 
  25:../../libDaisy//src/per/qspi.h **** /** 
  26:../../libDaisy//src/per/qspi.h ****  Driver for QSPI peripheral to interface with external flash memory. \n 
  27:../../libDaisy//src/per/qspi.h ****     Currently supported QSPI Devices: \n 
  28:../../libDaisy//src/per/qspi.h ****     * IS25LP080D
  29:../../libDaisy//src/per/qspi.h **** */
  30:../../libDaisy//src/per/qspi.h **** class QSPIHandle
  31:../../libDaisy//src/per/qspi.h **** {
  32:../../libDaisy//src/per/qspi.h ****   public:
  33:../../libDaisy//src/per/qspi.h ****     enum Result
  34:../../libDaisy//src/per/qspi.h ****     {
  35:../../libDaisy//src/per/qspi.h ****         OK = 0,
  36:../../libDaisy//src/per/qspi.h ****         ERR
  37:../../libDaisy//src/per/qspi.h ****     };
  38:../../libDaisy//src/per/qspi.h **** 
  39:../../libDaisy//src/per/qspi.h ****     /** Indicates the current status of the module. 
  40:../../libDaisy//src/per/qspi.h ****          *  Warnings are indicated by a leading W.
  41:../../libDaisy//src/per/qspi.h ****          *  Errors are indicated by a leading E and cause an immediate exit.
  42:../../libDaisy//src/per/qspi.h ****          * 
  43:../../libDaisy//src/per/qspi.h ****          *  \param GOOD - No errors have been reported.
  44:../../libDaisy//src/per/qspi.h ****          *  \param E_HAL_ERROR - HAL code did not return HAL_OK.
  45:../../libDaisy//src/per/qspi.h ****          *  \param E_SWITCHING_MODES - An error was encountered while switching QSPI peripheral mod
  46:../../libDaisy//src/per/qspi.h ****          *  \param E_INVALID_MODE - QSPI should not be written to while the program is executing fr
  47:../../libDaisy//src/per/qspi.h ****          */
  48:../../libDaisy//src/per/qspi.h ****     enum Status
  49:../../libDaisy//src/per/qspi.h ****     {
  50:../../libDaisy//src/per/qspi.h ****         GOOD = 0,
  51:../../libDaisy//src/per/qspi.h ****         E_HAL_ERROR,
  52:../../libDaisy//src/per/qspi.h ****         E_SWITCHING_MODES,
  53:../../libDaisy//src/per/qspi.h ****         E_INVALID_MODE,
  54:../../libDaisy//src/per/qspi.h ****     };
  55:../../libDaisy//src/per/qspi.h **** 
  56:../../libDaisy//src/per/qspi.h ****     /** Configuration structure for interfacing with QSPI Driver */
  57:../../libDaisy//src/per/qspi.h ****     struct Config
  58:../../libDaisy//src/per/qspi.h ****     {
  59:../../libDaisy//src/per/qspi.h ****         /** Flash Devices supported. (Both of these are more-or-less the same, just different sizes
  60:../../libDaisy//src/per/qspi.h ****         enum Device
  61:../../libDaisy//src/per/qspi.h ****         {
  62:../../libDaisy//src/per/qspi.h ****             IS25LP080D,  /**< & */
  63:../../libDaisy//src/per/qspi.h ****             IS25LP064A,  /**< & */
  64:../../libDaisy//src/per/qspi.h ****             DEVICE_LAST, /**< & */
  65:../../libDaisy//src/per/qspi.h ****         };
ARM GAS  C:\Users\daniel\AppData\Local\Temp\ccfMEBIt.s 			page 25


  66:../../libDaisy//src/per/qspi.h **** 
  67:../../libDaisy//src/per/qspi.h ****         /** 
  68:../../libDaisy//src/per/qspi.h ****         Modes of operation.
  69:../../libDaisy//src/per/qspi.h ****         Memory Mapped mode: QSPI configured so that the QSPI can be
  70:../../libDaisy//src/per/qspi.h ****         read from starting address 0x90000000. Writing is not
  71:../../libDaisy//src/per/qspi.h ****         possible in this mode. \n 
  72:../../libDaisy//src/per/qspi.h ****         Indirect Polling mode: Device driver enabled. 
  73:../../libDaisy//src/per/qspi.h ****         */
  74:../../libDaisy//src/per/qspi.h ****         enum Mode
  75:../../libDaisy//src/per/qspi.h ****         {
  76:../../libDaisy//src/per/qspi.h ****             MEMORY_MAPPED,    /**< & */
  77:../../libDaisy//src/per/qspi.h ****             INDIRECT_POLLING, /**< & */
  78:../../libDaisy//src/per/qspi.h ****             MODE_LAST,
  79:../../libDaisy//src/per/qspi.h ****         };
  80:../../libDaisy//src/per/qspi.h **** 
  81:../../libDaisy//src/per/qspi.h ****         //SCK,  CE# (active low)
  82:../../libDaisy//src/per/qspi.h ****         struct
  83:../../libDaisy//src/per/qspi.h ****         {
  84:../../libDaisy//src/per/qspi.h ****             dsy_gpio_pin io0; /**< & */
  85:../../libDaisy//src/per/qspi.h ****             dsy_gpio_pin io1; /**< & */
  86:../../libDaisy//src/per/qspi.h ****             dsy_gpio_pin io2; /**< & */
  87:../../libDaisy//src/per/qspi.h ****             dsy_gpio_pin io3; /**< & */
  88:../../libDaisy//src/per/qspi.h ****             dsy_gpio_pin clk; /**< & */
  89:../../libDaisy//src/per/qspi.h ****             dsy_gpio_pin ncs; /**< & */
  90:../../libDaisy//src/per/qspi.h ****         } pin_config;
  91:../../libDaisy//src/per/qspi.h **** 
  92:../../libDaisy//src/per/qspi.h ****         Device device;
  93:../../libDaisy//src/per/qspi.h ****         Mode   mode;
  94:../../libDaisy//src/per/qspi.h ****     };
  95:../../libDaisy//src/per/qspi.h **** 
  96:../../libDaisy//src/per/qspi.h ****     /** 
  97:../../libDaisy//src/per/qspi.h ****         Initializes QSPI peripheral, and Resets, and prepares memory for access.
  98:../../libDaisy//src/per/qspi.h ****         \param config should be populated with the mode, device and pin_config before calling this 
  99:../../libDaisy//src/per/qspi.h ****         \return Result::OK or Result::ERR
 100:../../libDaisy//src/per/qspi.h ****         */
 101:../../libDaisy//src/per/qspi.h ****     Result Init(const Config& config);
 102:../../libDaisy//src/per/qspi.h **** 
 103:../../libDaisy//src/per/qspi.h ****     /** Returns the current config. */
 104:../../libDaisy//src/per/qspi.h ****     const Config& GetConfig() const;
 105:../../libDaisy//src/per/qspi.h **** 
 106:../../libDaisy//src/per/qspi.h ****     // Couldn't this just be called before anything else in init? That
 107:../../libDaisy//src/per/qspi.h ****     // would make manually calling it unnecessary.
 108:../../libDaisy//src/per/qspi.h ****     /** 
 109:../../libDaisy//src/per/qspi.h ****         Deinitializes the peripheral
 110:../../libDaisy//src/per/qspi.h ****         This should be called before reinitializing QSPI in a different mode.
 111:../../libDaisy//src/per/qspi.h ****         \return Result::OK or Result::ERR
 112:../../libDaisy//src/per/qspi.h ****         */
 113:../../libDaisy//src/per/qspi.h ****     Result DeInit();
 114:../../libDaisy//src/per/qspi.h **** 
 115:../../libDaisy//src/per/qspi.h ****     /** 
 116:../../libDaisy//src/per/qspi.h ****         Writes a single page to to the specified address on the QSPI chip.
 117:../../libDaisy//src/per/qspi.h ****         For IS25LP*, page size is 256 bytes.
 118:../../libDaisy//src/per/qspi.h ****         \param address Address to write to
 119:../../libDaisy//src/per/qspi.h ****         \param size Buffer size
 120:../../libDaisy//src/per/qspi.h ****         \param buffer Buffer to write
 121:../../libDaisy//src/per/qspi.h ****         \return Result::OK or Result::ERR
 122:../../libDaisy//src/per/qspi.h ****         */
ARM GAS  C:\Users\daniel\AppData\Local\Temp\ccfMEBIt.s 			page 26


 123:../../libDaisy//src/per/qspi.h ****     Result WritePage(uint32_t address, uint32_t size, uint8_t* buffer);
 124:../../libDaisy//src/per/qspi.h **** 
 125:../../libDaisy//src/per/qspi.h ****     /** 
 126:../../libDaisy//src/per/qspi.h ****         Writes data in buffer to to the QSPI. Starting at address to address+size 
 127:../../libDaisy//src/per/qspi.h ****         \param address Address to write to
 128:../../libDaisy//src/per/qspi.h ****         \param size Buffer size
 129:../../libDaisy//src/per/qspi.h ****         \param buffer Buffer to write
 130:../../libDaisy//src/per/qspi.h ****         \return Result::OK or Result::ERR
 131:../../libDaisy//src/per/qspi.h ****         */
 132:../../libDaisy//src/per/qspi.h ****     Result Write(uint32_t address, uint32_t size, uint8_t* buffer);
 133:../../libDaisy//src/per/qspi.h **** 
 134:../../libDaisy//src/per/qspi.h ****     /** 
 135:../../libDaisy//src/per/qspi.h ****         Erases the area specified on the chip.
 136:../../libDaisy//src/per/qspi.h ****         Erasures will happen by 4K, 32K or 64K increments.
 137:../../libDaisy//src/per/qspi.h ****         Smallest erase possible is 4kB at a time. (on IS25LP*)
 138:../../libDaisy//src/per/qspi.h ****         \param start_addr Address to begin erasing from
 139:../../libDaisy//src/per/qspi.h ****         \param end_addr  Address to stop erasing at
 140:../../libDaisy//src/per/qspi.h ****         \return Result::OK or Result::ERR
 141:../../libDaisy//src/per/qspi.h ****         */
 142:../../libDaisy//src/per/qspi.h ****     Result Erase(uint32_t start_addr, uint32_t end_addr);
 143:../../libDaisy//src/per/qspi.h **** 
 144:../../libDaisy//src/per/qspi.h ****     /**  
 145:../../libDaisy//src/per/qspi.h ****          Erases a single sector of the chip.  
 146:../../libDaisy//src/per/qspi.h ****         TODO: Document the size of this function. 
 147:../../libDaisy//src/per/qspi.h ****         \param address Address of sector to erase
 148:../../libDaisy//src/per/qspi.h ****         \return Result::OK or Result::ERR
 149:../../libDaisy//src/per/qspi.h ****         */
 150:../../libDaisy//src/per/qspi.h ****     Result EraseSector(uint32_t address);
 151:../../libDaisy//src/per/qspi.h **** 
 152:../../libDaisy//src/per/qspi.h ****     /** Returns the current class status. Useful for debugging.
 153:../../libDaisy//src/per/qspi.h ****      *  \returns Status
 154:../../libDaisy//src/per/qspi.h ****      */
 155:../../libDaisy//src/per/qspi.h ****     Status GetStatus();
 156:../../libDaisy//src/per/qspi.h **** 
 157:../../libDaisy//src/per/qspi.h ****     /** Returns a pointer to the actual memory used 
 158:../../libDaisy//src/per/qspi.h ****      *  The memory at this address is read-only
 159:../../libDaisy//src/per/qspi.h ****      *  to write to it use the Write function.
 160:../../libDaisy//src/per/qspi.h ****      * 
 161:../../libDaisy//src/per/qspi.h ****      *  \param offset returns the pointer starting this 
 162:../../libDaisy//src/per/qspi.h ****      *                many bytes into the memory
 163:../../libDaisy//src/per/qspi.h ****     */
 164:../../libDaisy//src/per/qspi.h ****     void* GetData(uint32_t offset = 0);
 165:../../libDaisy//src/per/qspi.h **** 
 166:../../libDaisy//src/per/qspi.h ****     QSPIHandle() : pimpl_(nullptr) {}
 620              		.loc 11 166 5 is_stmt 1 view .LVU156
 621              	.LBE234:
 622              	.LBE232:
 623              	.LBE231:
 624              	.LBE230:
 625              	.LBE229:
 626              		.loc 10 52 1 is_stmt 0 view .LVU157
 627 0000 10B5     		push	{r4, lr}
 628              		.cfi_def_cfa_offset 8
 629              		.cfi_offset 4, -8
 630              		.cfi_offset 14, -4
 631              	.LBB273:
 632              	.LBB270:
ARM GAS  C:\Users\daniel\AppData\Local\Temp\ccfMEBIt.s 			page 27


 633              	.LBB260:
 634              	.LBB257:
 635              	.LBB237:
 636              	.LBB235:
 637              	.LBB236:
 638              		.loc 11 166 34 view .LVU158
 639 0002 0D48     		ldr	r0, .L24
 640 0004 0024     		movs	r4, #0
 641              	.LBE236:
 642              	.LBE235:
 643              	.LBE237:
 644              	.LBE257:
 645              	.LBE260:
   8:testbed.cpp   **** SampleHold	 sh;
 646              		.loc 10 8 14 view .LVU159
 647 0006 0D4A     		ldr	r2, .L24+4
 648 0008 0D49     		ldr	r1, .L24+8
 649              	.LBB261:
 650              	.LBB258:
 651              	.LBB238:
 652              	.LBB239:
 653              	.LBB240:
 654              	.LBB241:
 655              	.LBB242:
 656              		.file 12 "../../libDaisy//src/per/i2c.h"
   1:../../libDaisy//src/per/i2c.h **** #pragma once
   2:../../libDaisy//src/per/i2c.h **** #include "daisy_core.h"
   3:../../libDaisy//src/per/i2c.h **** 
   4:../../libDaisy//src/per/i2c.h **** namespace daisy
   5:../../libDaisy//src/per/i2c.h **** {
   6:../../libDaisy//src/per/i2c.h **** /** A handle for interacting with an I2C peripheral. This is a dumb
   7:../../libDaisy//src/per/i2c.h ****  *  gateway that internally points to one of the four I2C peripherals
   8:../../libDaisy//src/per/i2c.h ****  *  after it was initialised. It can then be copied and passed around.
   9:../../libDaisy//src/per/i2c.h ****  *  Use an I2CHandle like this:
  10:../../libDaisy//src/per/i2c.h ****  *  
  11:../../libDaisy//src/per/i2c.h ****  *      // setup the configuration
  12:../../libDaisy//src/per/i2c.h ****  *      I2CHandle::Config i2c_conf;
  13:../../libDaisy//src/per/i2c.h ****  *      i2c_conf.periph = I2CHandle::Config::Peripheral::I2C_1;
  14:../../libDaisy//src/per/i2c.h ****  *      i2c_conf.speed  = I2CHandle::Config::Speed::I2C_400KHZ;
  15:../../libDaisy//src/per/i2c.h ****  *      i2c_conf.mode   = I2CHandle::Config::Mode::Master;
  16:../../libDaisy//src/per/i2c.h ****  *      i2c_conf.pin_config.scl  = {DSY_GPIOB, 8};
  17:../../libDaisy//src/per/i2c.h ****  *      i2c_conf.pin_config.sda  = {DSY_GPIOB, 9};
  18:../../libDaisy//src/per/i2c.h ****  *      // initialise the peripheral
  19:../../libDaisy//src/per/i2c.h ****  *      I2CHandle i2c;
  20:../../libDaisy//src/per/i2c.h ****  *      i2c.Init(i2c_conf);
  21:../../libDaisy//src/per/i2c.h ****  *      // now i2c points to the corresponding peripheral and can be used.
  22:../../libDaisy//src/per/i2c.h ****  *      i2c.TransmitBlocking( ... );
  23:../../libDaisy//src/per/i2c.h ****  */
  24:../../libDaisy//src/per/i2c.h **** class I2CHandle
  25:../../libDaisy//src/per/i2c.h **** {
  26:../../libDaisy//src/per/i2c.h ****   public:
  27:../../libDaisy//src/per/i2c.h ****     /** Contains settings for initialising an I2C interface. */
  28:../../libDaisy//src/per/i2c.h ****     struct Config
  29:../../libDaisy//src/per/i2c.h ****     {
  30:../../libDaisy//src/per/i2c.h ****         /** Specifies whether the interface will operate in master or slave mode. */
  31:../../libDaisy//src/per/i2c.h ****         enum class Mode
  32:../../libDaisy//src/per/i2c.h ****         {
ARM GAS  C:\Users\daniel\AppData\Local\Temp\ccfMEBIt.s 			page 28


  33:../../libDaisy//src/per/i2c.h ****             I2C_MASTER,
  34:../../libDaisy//src/per/i2c.h ****             I2C_SLAVE,
  35:../../libDaisy//src/per/i2c.h ****         };
  36:../../libDaisy//src/per/i2c.h **** 
  37:../../libDaisy//src/per/i2c.h ****         /** Specifices the internal peripheral to use (these are mapped to different pins on the ha
  38:../../libDaisy//src/per/i2c.h ****         enum class Peripheral
  39:../../libDaisy//src/per/i2c.h ****         {
  40:../../libDaisy//src/per/i2c.h ****             I2C_1 = 0, /**< & */
  41:../../libDaisy//src/per/i2c.h ****             I2C_2,     /**< & */
  42:../../libDaisy//src/per/i2c.h ****             I2C_3,     /**< & */
  43:../../libDaisy//src/per/i2c.h ****             I2C_4,     /**< & */
  44:../../libDaisy//src/per/i2c.h ****         };
  45:../../libDaisy//src/per/i2c.h **** 
  46:../../libDaisy//src/per/i2c.h ****         /** Rate at which the clock/data will be sent/received. The device being used will have max
  47:../../libDaisy//src/per/i2c.h ****          *  1MHZ Mode is currently 886kHz
  48:../../libDaisy//src/per/i2c.h ****          */
  49:../../libDaisy//src/per/i2c.h ****         enum class Speed
  50:../../libDaisy//src/per/i2c.h ****         {
  51:../../libDaisy//src/per/i2c.h ****             I2C_100KHZ, /**< & */
  52:../../libDaisy//src/per/i2c.h ****             I2C_400KHZ, /**< & */
  53:../../libDaisy//src/per/i2c.h ****             I2C_1MHZ,   /**< & */
  54:../../libDaisy//src/per/i2c.h ****         };
  55:../../libDaisy//src/per/i2c.h **** 
  56:../../libDaisy//src/per/i2c.h ****         Peripheral periph; /**< & */
  57:../../libDaisy//src/per/i2c.h ****         struct
  58:../../libDaisy//src/per/i2c.h ****         {
  59:../../libDaisy//src/per/i2c.h ****             dsy_gpio_pin scl; /**< & */
  60:../../libDaisy//src/per/i2c.h ****             dsy_gpio_pin sda; /**< & */
  61:../../libDaisy//src/per/i2c.h ****         } pin_config;         /**< & */
  62:../../libDaisy//src/per/i2c.h **** 
  63:../../libDaisy//src/per/i2c.h ****         Speed speed; /**< & */
  64:../../libDaisy//src/per/i2c.h ****         Mode  mode;  /**< & */
  65:../../libDaisy//src/per/i2c.h ****         // 0x10 is chosen as a default to avoid conflicts with reserved addresses
  66:../../libDaisy//src/per/i2c.h ****         uint8_t address = 0x10; /**< & */
  67:../../libDaisy//src/per/i2c.h ****     };
  68:../../libDaisy//src/per/i2c.h **** 
  69:../../libDaisy//src/per/i2c.h ****     /** Return values for I2C functions. */
  70:../../libDaisy//src/per/i2c.h ****     enum class Result
  71:../../libDaisy//src/per/i2c.h ****     {
  72:../../libDaisy//src/per/i2c.h ****         OK, /**< & */
  73:../../libDaisy//src/per/i2c.h ****         ERR /**< & */
  74:../../libDaisy//src/per/i2c.h ****     };
  75:../../libDaisy//src/per/i2c.h **** 
  76:../../libDaisy//src/per/i2c.h ****     enum class Direction
  77:../../libDaisy//src/per/i2c.h ****     {
  78:../../libDaisy//src/per/i2c.h ****         TRANSMIT, /**< & */
  79:../../libDaisy//src/per/i2c.h ****         RECEIVE,  /**< & */
  80:../../libDaisy//src/per/i2c.h ****     };
  81:../../libDaisy//src/per/i2c.h **** 
  82:../../libDaisy//src/per/i2c.h ****     I2CHandle() : pimpl_(nullptr) {}
 657              		.loc 12 82 33 view .LVU160
 658 000a 0462     		str	r4, [r0, #32]
 659              	.LBE242:
 660              	.LBE241:
 661              	.LBE240:
 662              	.LBE239:
 663              	.LBE238:
ARM GAS  C:\Users\daniel\AppData\Local\Temp\ccfMEBIt.s 			page 29


 664              	.LBB245:
 665              	.LBB246:
 666              	.LBB247:
 667              		.file 13 "../../libDaisy//src/per/dac.h"
   1:../../libDaisy//src/per/dac.h **** #pragma once
   2:../../libDaisy//src/per/dac.h **** #ifndef DSY_DAC_H
   3:../../libDaisy//src/per/dac.h **** #define DSY_DAC_H
   4:../../libDaisy//src/per/dac.h **** 
   5:../../libDaisy//src/per/dac.h **** #include "daisy_core.h"
   6:../../libDaisy//src/per/dac.h **** 
   7:../../libDaisy//src/per/dac.h **** namespace daisy
   8:../../libDaisy//src/per/dac.h **** {
   9:../../libDaisy//src/per/dac.h **** /** @brief DAC handle for Built-in DAC Peripheral 
  10:../../libDaisy//src/per/dac.h ****  *  @ingroup per_analog
  11:../../libDaisy//src/per/dac.h ****  ** 
  12:../../libDaisy//src/per/dac.h ****  ** For now only Normal Mode is supported,
  13:../../libDaisy//src/per/dac.h ****  ** Sample and hold mode provides reduced power consumption, but requires a bit more setup.
  14:../../libDaisy//src/per/dac.h ****  **
  15:../../libDaisy//src/per/dac.h ****  ** For now connecting the DAC through other internal peripherals is also not supported.
  16:../../libDaisy//src/per/dac.h ****  **
  17:../../libDaisy//src/per/dac.h ****  ** Since the DAC channels have dedicated pins we don't need to pass in a pin config like with
  18:../../libDaisy//src/per/dac.h ****  ** other modules. However, it is still important to not try to use the DAC pins for anything else.
  19:../../libDaisy//src/per/dac.h ****  ** DAC Channel 1 is on PA4, and DAC Channel 2 is on PA5
  20:../../libDaisy//src/per/dac.h ****  ***/
  21:../../libDaisy//src/per/dac.h **** class DacHandle
  22:../../libDaisy//src/per/dac.h **** {
  23:../../libDaisy//src/per/dac.h ****   public:
  24:../../libDaisy//src/per/dac.h ****     /** Return Values for the DacHandle class */
  25:../../libDaisy//src/per/dac.h ****     enum class Result
  26:../../libDaisy//src/per/dac.h ****     {
  27:../../libDaisy//src/per/dac.h ****         OK,
  28:../../libDaisy//src/per/dac.h ****         ERR,
  29:../../libDaisy//src/per/dac.h ****     };
  30:../../libDaisy//src/per/dac.h **** 
  31:../../libDaisy//src/per/dac.h ****     /** Selects which channel(s) will be configured for use. */
  32:../../libDaisy//src/per/dac.h ****     enum class Channel
  33:../../libDaisy//src/per/dac.h ****     {
  34:../../libDaisy//src/per/dac.h ****         ONE,
  35:../../libDaisy//src/per/dac.h ****         TWO,
  36:../../libDaisy//src/per/dac.h ****         BOTH,
  37:../../libDaisy//src/per/dac.h ****     };
  38:../../libDaisy//src/per/dac.h **** 
  39:../../libDaisy//src/per/dac.h ****     /** Sets the Mode for the DAC channels.
  40:../../libDaisy//src/per/dac.h ****      **
  41:../../libDaisy//src/per/dac.h ****      ** Polling mode uses the blocking mode to transmit a single value at a time.
  42:../../libDaisy//src/per/dac.h ****      **
  43:../../libDaisy//src/per/dac.h ****      ** DMA mode uses a buffer, and periodically transmits it triggering a 
  44:../../libDaisy//src/per/dac.h ****      ** callback to fill the buffer when it is ready for more samples.
  45:../../libDaisy//src/per/dac.h ****      ***/
  46:../../libDaisy//src/per/dac.h ****     enum class Mode
  47:../../libDaisy//src/per/dac.h ****     {
  48:../../libDaisy//src/per/dac.h ****         POLLING,
  49:../../libDaisy//src/per/dac.h ****         DMA,
  50:../../libDaisy//src/per/dac.h ****     };
  51:../../libDaisy//src/per/dac.h **** 
  52:../../libDaisy//src/per/dac.h ****     /** Sets the number of bits per sample transmitted out of the DAC.
  53:../../libDaisy//src/per/dac.h ****      ** The output range will be: 0V - VDDA
ARM GAS  C:\Users\daniel\AppData\Local\Temp\ccfMEBIt.s 			page 30


  54:../../libDaisy//src/per/dac.h ****      ** The resolution will be roughly: bitdepth / (VDDA - 0V) 
  55:../../libDaisy//src/per/dac.h ****      ***/
  56:../../libDaisy//src/per/dac.h ****     enum class BitDepth
  57:../../libDaisy//src/per/dac.h ****     {
  58:../../libDaisy//src/per/dac.h ****         BITS_8,
  59:../../libDaisy//src/per/dac.h ****         BITS_12
  60:../../libDaisy//src/per/dac.h ****     };
  61:../../libDaisy//src/per/dac.h **** 
  62:../../libDaisy//src/per/dac.h ****     /** Sets whether the DAC output is buffered for higher drive ability. */
  63:../../libDaisy//src/per/dac.h ****     enum class BufferState
  64:../../libDaisy//src/per/dac.h ****     {
  65:../../libDaisy//src/per/dac.h ****         ENABLED,
  66:../../libDaisy//src/per/dac.h ****         DISABLED,
  67:../../libDaisy//src/per/dac.h ****     };
  68:../../libDaisy//src/per/dac.h **** 
  69:../../libDaisy//src/per/dac.h ****     /** Configuration structure for initializing the DAC structure. */
  70:../../libDaisy//src/per/dac.h ****     struct Config
  71:../../libDaisy//src/per/dac.h ****     {
  72:../../libDaisy//src/per/dac.h ****         /** Target Samplerate in Hz used to configure the internal 
  73:../../libDaisy//src/per/dac.h ****          ** timebase for DMA mode. Does nothing in POLLING mode.
  74:../../libDaisy//src/per/dac.h ****          ** If the value is 0 at Init time this will default to 48000Hz 
  75:../../libDaisy//src/per/dac.h ****          ** otherwise the driver will attempt meet the target.*/
  76:../../libDaisy//src/per/dac.h ****         uint32_t target_samplerate;
  77:../../libDaisy//src/per/dac.h **** 
  78:../../libDaisy//src/per/dac.h ****         Channel     chn;
  79:../../libDaisy//src/per/dac.h ****         Mode        mode;
  80:../../libDaisy//src/per/dac.h ****         BitDepth    bitdepth;
  81:../../libDaisy//src/per/dac.h ****         BufferState buff_state;
  82:../../libDaisy//src/per/dac.h ****     };
  83:../../libDaisy//src/per/dac.h **** 
  84:../../libDaisy//src/per/dac.h ****     DacHandle() : pimpl_(nullptr) {}
 668              		.loc 13 84 33 view .LVU161
 669 000c 8462     		str	r4, [r0, #40]
 670              	.LBE247:
 671              	.LBE246:
 672              	.LBE245:
 673              	.LBB248:
 674              	.LBB249:
 675              	.LBB250:
  95:../../libDaisy//src/hid/audio.h ****     ~AudioHandle() {}
 676              		.loc 6 95 35 view .LVU162
 677 000e C0E90344 		strd	r4, r4, [r0, #12]
 678              	.LVL38:
  95:../../libDaisy//src/hid/audio.h ****     ~AudioHandle() {}
 679              		.loc 6 95 35 view .LVU163
 680              	.LBE250:
 681              	.LBE249:
 682              	.LBE248:
 683              	.LBB251:
 684              	.LBI251:
  92:../../libDaisy//src/per/adc.h ****     ~AdcHandle() {}
 685              		.loc 5 92 5 is_stmt 1 view .LVU164
  92:../../libDaisy//src/per/adc.h ****     ~AdcHandle() {}
 686              		.loc 5 92 5 is_stmt 0 view .LVU165
 687              	.LBE251:
 688              	.LBB252:
 689              	.LBI252:
ARM GAS  C:\Users\daniel\AppData\Local\Temp\ccfMEBIt.s 			page 31


  40:../../libDaisy//src/hid/usb.h **** 
 690              		.loc 4 40 5 is_stmt 1 view .LVU166
  40:../../libDaisy//src/hid/usb.h **** 
 691              		.loc 4 40 5 is_stmt 0 view .LVU167
 692              	.LBE252:
 693              	.LBB253:
 694              	.LBI238:
  28:../../libDaisy//src/dev/codec_pcm3060.h ****     ~Pcm3060() {}
 695              		.loc 3 28 5 is_stmt 1 view .LVU168
 696              	.LBB244:
 697              	.LBB243:
 698              	.LBI240:
 699              		.loc 12 82 5 view .LVU169
 700              		.loc 12 82 5 is_stmt 0 view .LVU170
 701              	.LBE243:
 702              	.LBE244:
 703              	.LBE253:
 704              	.LBB254:
 705              	.LBI245:
 706              		.loc 13 84 5 is_stmt 1 view .LVU171
 707              		.loc 13 84 5 is_stmt 0 view .LVU172
 708              	.LBE254:
 709              	.LBE258:
 710              	.LBE261:
 711              	.LBE270:
 712              	.LBE273:
  64:../../libDaisy//src/daisy_patch_sm.h ****         ~DaisyPatchSM() {}
 713              		.loc 1 64 24 is_stmt 1 view .LVU173
 714              	.LBB274:
 715              	.LBB271:
 716              	.LBB262:
 717              	.LBB259:
 718              	.LBB255:
 719              	.LBI255:
  20:../../libDaisy//src/hid/gatein.h ****     /** GateIn~
 720              		.loc 2 20 5 view .LVU174
  20:../../libDaisy//src/hid/gatein.h ****     /** GateIn~
 721              		.loc 2 20 5 is_stmt 0 view .LVU175
 722              	.LBE255:
 723              	.LBB256:
 724              	.LBI256:
  20:../../libDaisy//src/hid/gatein.h ****     /** GateIn~
 725              		.loc 2 20 5 is_stmt 1 view .LVU176
  20:../../libDaisy//src/hid/gatein.h ****     /** GateIn~
 726              		.loc 2 20 5 is_stmt 0 view .LVU177
 727              	.LBE256:
 728              	.LBE259:
 729              	.LBE262:
   8:testbed.cpp   **** SampleHold	 sh;
 730              		.loc 10 8 14 view .LVU178
 731 0012 FFF7FEFF 		bl	__aeabi_atexit
 732              	.LVL39:
 733              	.LBB263:
 734              	.LBI263:
  18:../../DaisySP//Source/Utility/samplehold.h ****     ~SampleHold() {}
 735              		.loc 9 18 5 is_stmt 1 view .LVU179
 736              	.LBB264:
ARM GAS  C:\Users\daniel\AppData\Local\Temp\ccfMEBIt.s 			page 32


 737              	.LBB265:
  18:../../DaisySP//Source/Utility/samplehold.h ****     ~SampleHold() {}
 738              		.loc 9 18 18 is_stmt 0 view .LVU180
 739 0016 0B48     		ldr	r0, .L24+12
 740 0018 0023     		movs	r3, #0
 741              	.LBE265:
 742              	.LBE264:
 743              	.LBE263:
   9:testbed.cpp   **** Bitcrush   bitcrush;
 744              		.loc 10 9 13 view .LVU181
 745 001a 0B49     		ldr	r1, .L24+16
 746 001c 074A     		ldr	r2, .L24+4
 747              	.LBB268:
 748              	.LBB267:
 749              	.LBB266:
  18:../../DaisySP//Source/Utility/samplehold.h ****     ~SampleHold() {}
 750              		.loc 9 18 18 view .LVU182
 751 001e 0472     		strb	r4, [r0, #8]
 752              	.LVL40:
  18:../../DaisySP//Source/Utility/samplehold.h ****     ~SampleHold() {}
 753              		.loc 9 18 18 view .LVU183
 754 0020 0360     		str	r3, [r0]	@ float
 755 0022 4360     		str	r3, [r0, #4]	@ float
 756              	.LBE266:
 757              	.LBE267:
 758              	.LBE268:
   9:testbed.cpp   **** Bitcrush   bitcrush;
 759              		.loc 10 9 13 view .LVU184
 760 0024 FFF7FEFF 		bl	__aeabi_atexit
 761              	.LVL41:
 762              	.LBB269:
 763              	.LBI269:
  19:../../DaisySP//Source/Effects/bitcrush.h ****     ~Bitcrush() {}
 764              		.loc 8 19 5 is_stmt 1 view .LVU185
  19:../../DaisySP//Source/Effects/bitcrush.h ****     ~Bitcrush() {}
 765              		.loc 8 19 5 is_stmt 0 view .LVU186
 766              	.LBE269:
  10:testbed.cpp   **** 
 767              		.loc 10 10 12 view .LVU187
 768 0028 044A     		ldr	r2, .L24+4
 769 002a 0849     		ldr	r1, .L24+20
 770 002c 0848     		ldr	r0, .L24+24
 771              	.LBE271:
 772              	.LBE274:
 773              		.loc 10 52 1 view .LVU188
 774 002e BDE81040 		pop	{r4, lr}
 775              		.cfi_restore 14
 776              		.cfi_restore 4
 777              		.cfi_def_cfa_offset 0
 778              	.LBB275:
 779              	.LBB272:
  10:testbed.cpp   **** 
 780              		.loc 10 10 12 view .LVU189
 781 0032 FFF7FEBF 		b	__aeabi_atexit
 782              	.LVL42:
 783              	.L25:
 784 0036 00BF     		.align	2
ARM GAS  C:\Users\daniel\AppData\Local\Temp\ccfMEBIt.s 			page 33


 785              	.L24:
 786 0038 00000000 		.word	.LANCHOR0
 787 003c 00000000 		.word	__dso_handle
 788 0040 00000000 		.word	_ZN5daisy8patch_sm12DaisyPatchSMD1Ev
 789 0044 00000000 		.word	.LANCHOR1
 790 0048 00000000 		.word	_ZN7daisysp10SampleHoldD1Ev
 791 004c 00000000 		.word	_ZN7daisysp8BitcrushD1Ev
 792 0050 00000000 		.word	.LANCHOR3
 793              	.LBE272:
 794              	.LBE275:
 795              		.cfi_endproc
 796              	.LFE5344:
 798              		.section	.init_array,"aw",%init_array
 799              		.align	2
 800 0000 00000000 		.word	_GLOBAL__sub_I_hw(target1)
 801              		.global	depth
 802              		.global	bitcrush
 803              		.global	sh
 804              		.global	hw
 805              		.section	.bss.bitcrush,"aw",%nobits
 806              		.align	2
 807              		.set	.LANCHOR3,. + 0
 810              	bitcrush:
 811 0000 00000000 		.space	12
 811      00000000 
 811      00000000 
 812              		.section	.bss.depth,"aw",%nobits
 813              		.set	.LANCHOR2,. + 0
 816              	depth:
 817 0000 00       		.space	1
 818              		.section	.bss.hw,"aw",%nobits
 819              		.align	2
 820              		.set	.LANCHOR0,. + 0
 823              	hw:
 824 0000 00000000 		.space	464
 824      00000000 
 824      00000000 
 824      00000000 
 824      00000000 
 825              		.section	.bss.sh,"aw",%nobits
 826              		.align	2
 827              		.set	.LANCHOR1,. + 0
 830              	sh:
 831 0000 00000000 		.space	12
 831      00000000 
 831      00000000 
 832              		.text
 833              	.Letext0:
 834              		.file 14 "c:\\programdata\\chocolatey\\lib\\gcc-arm-embedded\\tools\\gcc-arm-none-eabi-10-2020-q4-
 835              		.file 15 "c:\\programdata\\chocolatey\\lib\\gcc-arm-embedded\\tools\\gcc-arm-none-eabi-10-2020-q4-
 836              		.file 16 "c:\\programdata\\chocolatey\\lib\\gcc-arm-embedded\\tools\\gcc-arm-none-eabi-10-2020-q4-
 837              		.file 17 "c:\\programdata\\chocolatey\\lib\\gcc-arm-embedded\\tools\\gcc-arm-none-eabi-10-2020-q4-
 838              		.file 18 "c:\\programdata\\chocolatey\\lib\\gcc-arm-embedded\\tools\\gcc-arm-none-eabi-10-2020-q4-
 839              		.file 19 "c:\\programdata\\chocolatey\\lib\\gcc-arm-embedded\\tools\\gcc-arm-none-eabi-10-2020-q4-
 840              		.file 20 "c:\\programdata\\chocolatey\\lib\\gcc-arm-embedded\\tools\\gcc-arm-none-eabi-10-2020-q4-
 841              		.file 21 "c:\\programdata\\chocolatey\\lib\\gcc-arm-embedded\\tools\\gcc-arm-none-eabi-10-2020-q4-
 842              		.file 22 "c:\\programdata\\chocolatey\\lib\\gcc-arm-embedded\\tools\\gcc-arm-none-eabi-10-2020-q4-
ARM GAS  C:\Users\daniel\AppData\Local\Temp\ccfMEBIt.s 			page 34


 843              		.file 23 "c:\\programdata\\chocolatey\\lib\\gcc-arm-embedded\\tools\\gcc-arm-none-eabi-10-2020-q4-
 844              		.file 24 "c:\\programdata\\chocolatey\\lib\\gcc-arm-embedded\\tools\\gcc-arm-none-eabi-10-2020-q4-
 845              		.file 25 "c:\\programdata\\chocolatey\\lib\\gcc-arm-embedded\\tools\\gcc-arm-none-eabi-10-2020-q4-
 846              		.file 26 "c:\\programdata\\chocolatey\\lib\\gcc-arm-embedded\\tools\\gcc-arm-none-eabi-10-2020-q4-
 847              		.file 27 "c:\\programdata\\chocolatey\\lib\\gcc-arm-embedded\\tools\\gcc-arm-none-eabi-10-2020-q4-
 848              		.file 28 "c:\\programdata\\chocolatey\\lib\\gcc-arm-embedded\\tools\\gcc-arm-none-eabi-10-2020-q4-
 849              		.file 29 "c:\\programdata\\chocolatey\\lib\\gcc-arm-embedded\\tools\\gcc-arm-none-eabi-10-2020-q4-
 850              		.file 30 "c:\\programdata\\chocolatey\\lib\\gcc-arm-embedded\\tools\\gcc-arm-none-eabi-10-2020-q4-
 851              		.file 31 "c:\\programdata\\chocolatey\\lib\\gcc-arm-embedded\\tools\\gcc-arm-none-eabi-10-2020-q4-
 852              		.file 32 "c:\\programdata\\chocolatey\\lib\\gcc-arm-embedded\\tools\\gcc-arm-none-eabi-10-2020-q4-
 853              		.file 33 "c:\\programdata\\chocolatey\\lib\\gcc-arm-embedded\\tools\\gcc-arm-none-eabi-10-2020-q4-
 854              		.file 34 "c:\\programdata\\chocolatey\\lib\\gcc-arm-embedded\\tools\\gcc-arm-none-eabi-10-2020-q4-
 855              		.file 35 "c:\\programdata\\chocolatey\\lib\\gcc-arm-embedded\\tools\\gcc-arm-none-eabi-10-2020-q4-
 856              		.file 36 "c:\\programdata\\chocolatey\\lib\\gcc-arm-embedded\\tools\\gcc-arm-none-eabi-10-2020-q4-
 857              		.file 37 "c:\\programdata\\chocolatey\\lib\\gcc-arm-embedded\\tools\\gcc-arm-none-eabi-10-2020-q4-
 858              		.file 38 "c:\\programdata\\chocolatey\\lib\\gcc-arm-embedded\\tools\\gcc-arm-none-eabi-10-2020-q4-
 859              		.file 39 "c:\\programdata\\chocolatey\\lib\\gcc-arm-embedded\\tools\\gcc-arm-none-eabi-10-2020-q4-
 860              		.file 40 "c:\\programdata\\chocolatey\\lib\\gcc-arm-embedded\\tools\\gcc-arm-none-eabi-10-2020-q4-
 861              		.file 41 "c:\\programdata\\chocolatey\\lib\\gcc-arm-embedded\\tools\\gcc-arm-none-eabi-10-2020-q4-
 862              		.file 42 "c:\\programdata\\chocolatey\\lib\\gcc-arm-embedded\\tools\\gcc-arm-none-eabi-10-2020-q4-
 863              		.file 43 "../../libDaisy//src/daisy_core.h"
 864              		.file 44 "../../libDaisy//src/per/tim.h"
 865              		.file 45 "../../libDaisy//src/per/sai.h"
 866              		.file 46 "../../libDaisy//src/hid/ctrl.h"
 867              		.file 47 "../../libDaisy//src/util/wav_format.h"
 868              		.file 48 "../../libDaisy//src/dev/max11300.h"
 869              		.file 49 "../../libDaisy//src/per/gpio.h"
 870              		.file 50 "../../libDaisy//src/dev/sdram.h"
 871              		.file 51 "c:\\programdata\\chocolatey\\lib\\gcc-arm-embedded\\tools\\gcc-arm-none-eabi-10-2020-q4-
 872              		.file 52 "c:\\programdata\\chocolatey\\lib\\gcc-arm-embedded\\tools\\gcc-arm-none-eabi-10-2020-q4-
 873              		.file 53 "c:\\programdata\\chocolatey\\lib\\gcc-arm-embedded\\tools\\gcc-arm-none-eabi-10-2020-q4-
 874              		.file 54 "../../DaisySP//Source/Control/adenv.h"
 875              		.file 55 "../../DaisySP//Source/Utility/dsp.h"
 876              		.file 56 "c:\\programdata\\chocolatey\\lib\\gcc-arm-embedded\\tools\\gcc-arm-none-eabi-10-2020-q4-
 877              		.file 57 "c:\\programdata\\chocolatey\\lib\\gcc-arm-embedded\\tools\\gcc-arm-none-eabi-10-2020-q4-
 878              		.file 58 "<built-in>"
 879              		.file 59 "../../libDaisy//src/dev/sr_595.h"
ARM GAS  C:\Users\daniel\AppData\Local\Temp\ccfMEBIt.s 			page 35

