ARM GAS  /var/folders/hl/qgbwny5j0fd895c2c41bk3tw0000gp/T//ccnMoSgs.s 			page 1


   1              		.cpu cortex-m7
   2              		.eabi_attribute 28, 1
   3              		.eabi_attribute 20, 1
   4              		.eabi_attribute 21, 1
   5              		.eabi_attribute 23, 3
   6              		.eabi_attribute 24, 1
   7              		.eabi_attribute 25, 1
   8              		.eabi_attribute 26, 1
   9              		.eabi_attribute 30, 2
  10              		.eabi_attribute 34, 1
  11              		.eabi_attribute 18, 4
  12              		.file	"stupidtest.cpp"
  13              		.text
  14              	.Ltext0:
  15              		.cfi_sections	.debug_frame
  16              		.section	.text._ZN7daisysp3SvfD2Ev,"axG",%progbits,_ZN7daisysp3SvfD5Ev,comdat
  17              		.align	1
  18              		.p2align 2,,3
  19              		.weak	_ZN7daisysp3SvfD2Ev
  20              		.arch armv7e-m
  21              		.syntax unified
  22              		.thumb
  23              		.thumb_func
  24              		.fpu fpv5-d16
  26              	_ZN7daisysp3SvfD2Ev:
  27              	.LVL0:
  28              	.LFB2847:
  29              		.file 1 "../../DaisySP//Source/Filters/svf.h"
   1:../../DaisySP//Source/Filters/svf.h **** #pragma once
   2:../../DaisySP//Source/Filters/svf.h **** #ifndef DSY_SVF_H
   3:../../DaisySP//Source/Filters/svf.h **** #define DSY_SVF_H
   4:../../DaisySP//Source/Filters/svf.h **** 
   5:../../DaisySP//Source/Filters/svf.h **** namespace daisysp
   6:../../DaisySP//Source/Filters/svf.h **** {
   7:../../DaisySP//Source/Filters/svf.h **** /**      Double Sampled, Stable State Variable Filter
   8:../../DaisySP//Source/Filters/svf.h **** 
   9:../../DaisySP//Source/Filters/svf.h **** Credit to Andrew Simper from musicdsp.org
  10:../../DaisySP//Source/Filters/svf.h **** 
  11:../../DaisySP//Source/Filters/svf.h **** This is his "State Variable Filter (Double Sampled, Stable)"
  12:../../DaisySP//Source/Filters/svf.h **** 
  13:../../DaisySP//Source/Filters/svf.h **** Additional thanks to Laurent de Soras for stability limit, and 
  14:../../DaisySP//Source/Filters/svf.h **** Stefan Diedrichsen for the correct notch output
  15:../../DaisySP//Source/Filters/svf.h **** 
  16:../../DaisySP//Source/Filters/svf.h **** Ported by: Stephen Hensley
  17:../../DaisySP//Source/Filters/svf.h **** */
  18:../../DaisySP//Source/Filters/svf.h **** class Svf
  19:../../DaisySP//Source/Filters/svf.h **** {
  20:../../DaisySP//Source/Filters/svf.h ****   public:
  21:../../DaisySP//Source/Filters/svf.h ****     Svf() {}
  22:../../DaisySP//Source/Filters/svf.h ****     ~Svf() {}
  30              		.loc 1 22 5 view -0
  31              		.cfi_startproc
  32              		@ args = 0, pretend = 0, frame = 0
  33              		@ frame_needed = 0, uses_anonymous_args = 0
  34              		@ link register save eliminated.
  35              		.loc 1 22 13 is_stmt 0 view .LVU1
  36 0000 7047     		bx	lr
ARM GAS  /var/folders/hl/qgbwny5j0fd895c2c41bk3tw0000gp/T//ccnMoSgs.s 			page 2


  37              		.cfi_endproc
  38              	.LFE2847:
  40              		.weak	_ZN7daisysp3SvfD1Ev
  41              		.thumb_set _ZN7daisysp3SvfD1Ev,_ZN7daisysp3SvfD2Ev
  42 0002 00BF     		.section	.text._ZN7daisysp8ReverbScD2Ev,"axG",%progbits,_ZN7daisysp8ReverbScD5Ev,comdat
  43              		.align	1
  44              		.p2align 2,,3
  45              		.weak	_ZN7daisysp8ReverbScD2Ev
  46              		.syntax unified
  47              		.thumb
  48              		.thumb_func
  49              		.fpu fpv5-d16
  51              	_ZN7daisysp8ReverbScD2Ev:
  52              	.LVL1:
  53              	.LFB3034:
  54              		.file 2 "../../DaisySP//Source/Effects/reverbsc.h"
   1:../../DaisySP//Source/Effects/reverbsc.h **** #pragma once
   2:../../DaisySP//Source/Effects/reverbsc.h **** #ifndef DSYSP_REVERBSC_H
   3:../../DaisySP//Source/Effects/reverbsc.h **** #define DSYSP_REVERBSC_H
   4:../../DaisySP//Source/Effects/reverbsc.h **** 
   5:../../DaisySP//Source/Effects/reverbsc.h **** #define DSY_REVERBSC_MAX_SIZE 98936
   6:../../DaisySP//Source/Effects/reverbsc.h **** 
   7:../../DaisySP//Source/Effects/reverbsc.h **** namespace daisysp
   8:../../DaisySP//Source/Effects/reverbsc.h **** {
   9:../../DaisySP//Source/Effects/reverbsc.h **** /**Delay line for internal reverb use
  10:../../DaisySP//Source/Effects/reverbsc.h **** */
  11:../../DaisySP//Source/Effects/reverbsc.h **** typedef struct
  12:../../DaisySP//Source/Effects/reverbsc.h **** {
  13:../../DaisySP//Source/Effects/reverbsc.h ****     int    write_pos;         /**< write position */
  14:../../DaisySP//Source/Effects/reverbsc.h ****     int    buffer_size;       /**< buffer size */
  15:../../DaisySP//Source/Effects/reverbsc.h ****     int    read_pos;          /**< read position */
  16:../../DaisySP//Source/Effects/reverbsc.h ****     int    read_pos_frac;     /**< fractional component of read pos */
  17:../../DaisySP//Source/Effects/reverbsc.h ****     int    read_pos_frac_inc; /**< increment for fractional */
  18:../../DaisySP//Source/Effects/reverbsc.h ****     int    dummy;             /**<  dummy var */
  19:../../DaisySP//Source/Effects/reverbsc.h ****     int    seed_val;          /**< randseed */
  20:../../DaisySP//Source/Effects/reverbsc.h ****     int    rand_line_cnt;     /**< number of random lines */
  21:../../DaisySP//Source/Effects/reverbsc.h ****     float  filter_state;      /**< state of filter */
  22:../../DaisySP//Source/Effects/reverbsc.h ****     float *buf;               /**< buffer ptr */
  23:../../DaisySP//Source/Effects/reverbsc.h **** } ReverbScDl;
  24:../../DaisySP//Source/Effects/reverbsc.h **** 
  25:../../DaisySP//Source/Effects/reverbsc.h **** /** Stereo Reverb
  26:../../DaisySP//Source/Effects/reverbsc.h **** 
  27:../../DaisySP//Source/Effects/reverbsc.h **** Reverb SC:               Ported from csound/soundpipe
  28:../../DaisySP//Source/Effects/reverbsc.h **** 
  29:../../DaisySP//Source/Effects/reverbsc.h **** Original author(s):        Sean Costello, Istvan Varga
  30:../../DaisySP//Source/Effects/reverbsc.h **** 
  31:../../DaisySP//Source/Effects/reverbsc.h **** Year:                    1999, 2005
  32:../../DaisySP//Source/Effects/reverbsc.h **** 
  33:../../DaisySP//Source/Effects/reverbsc.h **** Ported to soundpipe by:  Paul Batchelor
  34:../../DaisySP//Source/Effects/reverbsc.h **** 
  35:../../DaisySP//Source/Effects/reverbsc.h **** Ported by:                Stephen Hensley
  36:../../DaisySP//Source/Effects/reverbsc.h **** */
  37:../../DaisySP//Source/Effects/reverbsc.h **** class ReverbSc
  38:../../DaisySP//Source/Effects/reverbsc.h **** {
  39:../../DaisySP//Source/Effects/reverbsc.h ****   public:
  40:../../DaisySP//Source/Effects/reverbsc.h ****     ReverbSc() {}
  41:../../DaisySP//Source/Effects/reverbsc.h ****     ~ReverbSc() {}
ARM GAS  /var/folders/hl/qgbwny5j0fd895c2c41bk3tw0000gp/T//ccnMoSgs.s 			page 3


  55              		.loc 2 41 5 is_stmt 1 view -0
  56              		.cfi_startproc
  57              		@ args = 0, pretend = 0, frame = 0
  58              		@ frame_needed = 0, uses_anonymous_args = 0
  59              		@ link register save eliminated.
  60              		.loc 2 41 18 is_stmt 0 view .LVU3
  61 0000 7047     		bx	lr
  62              		.cfi_endproc
  63              	.LFE3034:
  65              		.weak	_ZN7daisysp8ReverbScD1Ev
  66              		.thumb_set _ZN7daisysp8ReverbScD1Ev,_ZN7daisysp8ReverbScD2Ev
  67 0002 00BF     		.section	.text._ZN5daisy6SwitchD2Ev,"axG",%progbits,_ZN5daisy6SwitchD5Ev,comdat
  68              		.align	1
  69              		.p2align 2,,3
  70              		.weak	_ZN5daisy6SwitchD2Ev
  71              		.syntax unified
  72              		.thumb
  73              		.thumb_func
  74              		.fpu fpv5-d16
  76              	_ZN5daisy6SwitchD2Ev:
  77              	.LVL2:
  78              	.LFB3858:
  79              		.file 3 "../../libDaisy//src/hid/switch.h"
   1:../../libDaisy//src/hid/switch.h **** #pragma once
   2:../../libDaisy//src/hid/switch.h **** #ifndef DSY_SWITCH_H
   3:../../libDaisy//src/hid/switch.h **** #define DSY_SWITCH_H
   4:../../libDaisy//src/hid/switch.h **** #include "daisy_core.h"
   5:../../libDaisy//src/hid/switch.h **** #include "per/gpio.h"
   6:../../libDaisy//src/hid/switch.h **** #include "sys/system.h"
   7:../../libDaisy//src/hid/switch.h **** 
   8:../../libDaisy//src/hid/switch.h **** namespace daisy
   9:../../libDaisy//src/hid/switch.h **** {
  10:../../libDaisy//src/hid/switch.h **** /** 
  11:../../libDaisy//src/hid/switch.h ****     Generic Class for handling momentary/latching switches \n 
  12:../../libDaisy//src/hid/switch.h ****     Inspired/influenced by Mutable Instruments (pichenettes) Switch classes
  13:../../libDaisy//src/hid/switch.h ****     @author Stephen Hensley
  14:../../libDaisy//src/hid/switch.h ****     @date December 2019
  15:../../libDaisy//src/hid/switch.h ****     @ingroup controls
  16:../../libDaisy//src/hid/switch.h **** */
  17:../../libDaisy//src/hid/switch.h **** class Switch
  18:../../libDaisy//src/hid/switch.h **** {
  19:../../libDaisy//src/hid/switch.h ****   public:
  20:../../libDaisy//src/hid/switch.h ****     /** Specifies the expected behavior of the switch */
  21:../../libDaisy//src/hid/switch.h ****     enum Type
  22:../../libDaisy//src/hid/switch.h ****     {
  23:../../libDaisy//src/hid/switch.h ****         TYPE_TOGGLE,    /**< & */
  24:../../libDaisy//src/hid/switch.h ****         TYPE_MOMENTARY, /**< & */
  25:../../libDaisy//src/hid/switch.h ****     };
  26:../../libDaisy//src/hid/switch.h ****     /** Specifies whether the pressed is HIGH or LOW. */
  27:../../libDaisy//src/hid/switch.h ****     enum Polarity
  28:../../libDaisy//src/hid/switch.h ****     {
  29:../../libDaisy//src/hid/switch.h ****         POLARITY_NORMAL,   /**< & */
  30:../../libDaisy//src/hid/switch.h ****         POLARITY_INVERTED, /**< & */
  31:../../libDaisy//src/hid/switch.h ****     };
  32:../../libDaisy//src/hid/switch.h **** 
  33:../../libDaisy//src/hid/switch.h ****     /** Specifies whether to use built-in Pull Up/Down resistors to hold button at a given state wh
  34:../../libDaisy//src/hid/switch.h ****     enum Pull
ARM GAS  /var/folders/hl/qgbwny5j0fd895c2c41bk3tw0000gp/T//ccnMoSgs.s 			page 4


  35:../../libDaisy//src/hid/switch.h ****     {
  36:../../libDaisy//src/hid/switch.h ****         PULL_UP,   /**< & */
  37:../../libDaisy//src/hid/switch.h ****         PULL_DOWN, /**< & */
  38:../../libDaisy//src/hid/switch.h ****         PULL_NONE, /**< & */
  39:../../libDaisy//src/hid/switch.h ****     };
  40:../../libDaisy//src/hid/switch.h **** 
  41:../../libDaisy//src/hid/switch.h ****     Switch() {}
  42:../../libDaisy//src/hid/switch.h ****     ~Switch() {}
  80              		.loc 3 42 5 is_stmt 1 view -0
  81              		.cfi_startproc
  82              		@ args = 0, pretend = 0, frame = 0
  83              		@ frame_needed = 0, uses_anonymous_args = 0
  84              		@ link register save eliminated.
  85              		.loc 3 42 16 is_stmt 0 view .LVU5
  86 0000 7047     		bx	lr
  87              		.cfi_endproc
  88              	.LFE3858:
  90              		.weak	_ZN5daisy6SwitchD1Ev
  91              		.thumb_set _ZN5daisy6SwitchD1Ev,_ZN5daisy6SwitchD2Ev
  92 0002 00BF     		.section	.text._ZN5daisy8patch_sm12DaisyPatchSMD2Ev,"axG",%progbits,_ZN5daisy8patch_sm12DaisyPatch
  93              		.align	1
  94              		.p2align 2,,3
  95              		.weak	_ZN5daisy8patch_sm12DaisyPatchSMD2Ev
  96              		.syntax unified
  97              		.thumb
  98              		.thumb_func
  99              		.fpu fpv5-d16
 101              	_ZN5daisy8patch_sm12DaisyPatchSMD2Ev:
 102              	.LVL3:
 103              	.LFB4775:
 104              		.file 4 "../../libDaisy//src/daisy_patch_sm.h"
   1:../../libDaisy//src/daisy_patch_sm.h **** #pragma once
   2:../../libDaisy//src/daisy_patch_sm.h **** 
   3:../../libDaisy//src/daisy_patch_sm.h **** #include "daisy.h"
   4:../../libDaisy//src/daisy_patch_sm.h **** 
   5:../../libDaisy//src/daisy_patch_sm.h **** namespace daisy
   6:../../libDaisy//src/daisy_patch_sm.h **** {
   7:../../libDaisy//src/daisy_patch_sm.h **** namespace patch_sm
   8:../../libDaisy//src/daisy_patch_sm.h **** {
   9:../../libDaisy//src/daisy_patch_sm.h ****     /** Accessors for the Analog Controls. 
  10:../../libDaisy//src/daisy_patch_sm.h ****      *  These cover the 8x Bipolar CV inputs
  11:../../libDaisy//src/daisy_patch_sm.h ****      *  as well as the 4x 0-3V3 ADC inputs on
  12:../../libDaisy//src/daisy_patch_sm.h ****      *  the hardware 
  13:../../libDaisy//src/daisy_patch_sm.h ****      * 
  14:../../libDaisy//src/daisy_patch_sm.h ****      *  When reading a value with DaisyPatchSM::GetAdcValue()
  15:../../libDaisy//src/daisy_patch_sm.h ****      * 
  16:../../libDaisy//src/daisy_patch_sm.h ****      *  patch.GetAdcValue(patch_sm::CV_1);
  17:../../libDaisy//src/daisy_patch_sm.h ****      */
  18:../../libDaisy//src/daisy_patch_sm.h ****     enum
  19:../../libDaisy//src/daisy_patch_sm.h ****     {
  20:../../libDaisy//src/daisy_patch_sm.h ****         CV_1 = 0,
  21:../../libDaisy//src/daisy_patch_sm.h ****         CV_2,
  22:../../libDaisy//src/daisy_patch_sm.h ****         CV_3,
  23:../../libDaisy//src/daisy_patch_sm.h ****         CV_4,
  24:../../libDaisy//src/daisy_patch_sm.h ****         CV_5,
  25:../../libDaisy//src/daisy_patch_sm.h ****         CV_6,
  26:../../libDaisy//src/daisy_patch_sm.h ****         CV_7,
ARM GAS  /var/folders/hl/qgbwny5j0fd895c2c41bk3tw0000gp/T//ccnMoSgs.s 			page 5


  27:../../libDaisy//src/daisy_patch_sm.h ****         CV_8,
  28:../../libDaisy//src/daisy_patch_sm.h ****         ADC_9,
  29:../../libDaisy//src/daisy_patch_sm.h ****         ADC_10,
  30:../../libDaisy//src/daisy_patch_sm.h ****         ADC_11,
  31:../../libDaisy//src/daisy_patch_sm.h ****         ADC_12,
  32:../../libDaisy//src/daisy_patch_sm.h ****         ADC_LAST,
  33:../../libDaisy//src/daisy_patch_sm.h ****     };
  34:../../libDaisy//src/daisy_patch_sm.h **** 
  35:../../libDaisy//src/daisy_patch_sm.h ****     /** Enum for addressing the CV Outputs via the WriteCvOut function. */
  36:../../libDaisy//src/daisy_patch_sm.h ****     enum
  37:../../libDaisy//src/daisy_patch_sm.h ****     {
  38:../../libDaisy//src/daisy_patch_sm.h ****         CV_OUT_BOTH = 0,
  39:../../libDaisy//src/daisy_patch_sm.h ****         CV_OUT_1,
  40:../../libDaisy//src/daisy_patch_sm.h ****         CV_OUT_2,
  41:../../libDaisy//src/daisy_patch_sm.h ****     };
  42:../../libDaisy//src/daisy_patch_sm.h **** 
  43:../../libDaisy//src/daisy_patch_sm.h **** 
  44:../../libDaisy//src/daisy_patch_sm.h ****     /** @brief Board support file for DaisyPatchSM hardware
  45:../../libDaisy//src/daisy_patch_sm.h ****      *  @author shensley
  46:../../libDaisy//src/daisy_patch_sm.h ****      *  @ingroup boards
  47:../../libDaisy//src/daisy_patch_sm.h ****      * 
  48:../../libDaisy//src/daisy_patch_sm.h ****      *  Daisy Patch SM is a complete Eurorack module DSP engine.
  49:../../libDaisy//src/daisy_patch_sm.h ****      *  Based on the Daisy Seed, with circuits added for 
  50:../../libDaisy//src/daisy_patch_sm.h ****      *  interfacing directly with eurorack modular synthesizers.
  51:../../libDaisy//src/daisy_patch_sm.h ****      */
  52:../../libDaisy//src/daisy_patch_sm.h ****     class DaisyPatchSM
  53:../../libDaisy//src/daisy_patch_sm.h ****     {
  54:../../libDaisy//src/daisy_patch_sm.h ****       public:
  55:../../libDaisy//src/daisy_patch_sm.h ****         /** Helper for mapping pins, and accessing them using the `GetPin` function */
  56:../../libDaisy//src/daisy_patch_sm.h ****         enum class PinBank
  57:../../libDaisy//src/daisy_patch_sm.h ****         {
  58:../../libDaisy//src/daisy_patch_sm.h ****             A,
  59:../../libDaisy//src/daisy_patch_sm.h ****             B,
  60:../../libDaisy//src/daisy_patch_sm.h ****             C,
  61:../../libDaisy//src/daisy_patch_sm.h ****             D
  62:../../libDaisy//src/daisy_patch_sm.h ****         };
  63:../../libDaisy//src/daisy_patch_sm.h **** 
  64:../../libDaisy//src/daisy_patch_sm.h ****         DaisyPatchSM() {}
  65:../../libDaisy//src/daisy_patch_sm.h ****         ~DaisyPatchSM() {}
 105              		.loc 4 65 9 is_stmt 1 view -0
 106              		.cfi_startproc
 107              		@ args = 0, pretend = 0, frame = 0
 108              		@ frame_needed = 0, uses_anonymous_args = 0
 109              		@ link register save eliminated.
 110              	.LBB566:
 111              	.LBI566:
 112              		.file 5 "../../libDaisy//src/hid/gatein.h"
   1:../../libDaisy//src/hid/gatein.h **** #pragma once
   2:../../libDaisy//src/hid/gatein.h **** #ifndef DSY_GATEIN_H
   3:../../libDaisy//src/hid/gatein.h **** #define DSY_GATEIN_H
   4:../../libDaisy//src/hid/gatein.h **** #include "per/gpio.h"
   5:../../libDaisy//src/hid/gatein.h **** 
   6:../../libDaisy//src/hid/gatein.h **** namespace daisy
   7:../../libDaisy//src/hid/gatein.h **** {
   8:../../libDaisy//src/hid/gatein.h **** /**
   9:../../libDaisy//src/hid/gatein.h ****    @brief Generic Class for handling gate inputs through GPIO.
  10:../../libDaisy//src/hid/gatein.h ****    @author Stephen Hensley
ARM GAS  /var/folders/hl/qgbwny5j0fd895c2c41bk3tw0000gp/T//ccnMoSgs.s 			page 6


  11:../../libDaisy//src/hid/gatein.h ****    @date    March 2020
  12:../../libDaisy//src/hid/gatein.h ****    @ingroup controls
  13:../../libDaisy//src/hid/gatein.h **** */
  14:../../libDaisy//src/hid/gatein.h **** class GateIn
  15:../../libDaisy//src/hid/gatein.h **** {
  16:../../libDaisy//src/hid/gatein.h ****   public:
  17:../../libDaisy//src/hid/gatein.h ****     /** GateIn 
  18:../../libDaisy//src/hid/gatein.h ****     Constructor 
  19:../../libDaisy//src/hid/gatein.h ****     */
  20:../../libDaisy//src/hid/gatein.h ****     GateIn() {}
  21:../../libDaisy//src/hid/gatein.h ****     /** GateIn~
  22:../../libDaisy//src/hid/gatein.h ****     Destructor 
  23:../../libDaisy//src/hid/gatein.h ****     */
  24:../../libDaisy//src/hid/gatein.h ****     ~GateIn() {}
 113              		.loc 5 24 5 view .LVU7
 114              		.loc 5 24 5 is_stmt 0 view .LVU8
 115              	.LBE566:
 116              	.LBB567:
 117              	.LBI567:
 118              		.loc 5 24 5 is_stmt 1 view .LVU9
 119              		.loc 5 24 5 is_stmt 0 view .LVU10
 120              	.LBE567:
 121              	.LBB568:
 122              	.LBI568:
 123              		.file 6 "../../libDaisy//src/dev/codec_pcm3060.h"
   1:../../libDaisy//src/dev/codec_pcm3060.h **** #pragma once
   2:../../libDaisy//src/dev/codec_pcm3060.h **** #ifndef DSY_CODEC_PCM3060_H
   3:../../libDaisy//src/dev/codec_pcm3060.h **** #define DSY_CODEC_PCM3060_H
   4:../../libDaisy//src/dev/codec_pcm3060.h **** #include "per/i2c.h"
   5:../../libDaisy//src/dev/codec_pcm3060.h **** namespace daisy
   6:../../libDaisy//src/dev/codec_pcm3060.h **** {
   7:../../libDaisy//src/dev/codec_pcm3060.h **** /**
   8:../../libDaisy//src/dev/codec_pcm3060.h ****  * @brief Driver for the TI PCM3060 Audio Codec.
   9:../../libDaisy//src/dev/codec_pcm3060.h ****  * @addtogroup codec
  10:../../libDaisy//src/dev/codec_pcm3060.h ****  * 
  11:../../libDaisy//src/dev/codec_pcm3060.h ****  * For now this is a limited interface that uses I2C to communicate with the PCM3060
  12:../../libDaisy//src/dev/codec_pcm3060.h ****  * The device can also be accessed with SPI, which is not yet supported.
  13:../../libDaisy//src/dev/codec_pcm3060.h ****  * 
  14:../../libDaisy//src/dev/codec_pcm3060.h ****  * For now all registers are set to their defaults, and the Init function will 
  15:../../libDaisy//src/dev/codec_pcm3060.h ****  * perform a MRST and SRST before setting the format to 24bit LJ, and disabling 
  16:../../libDaisy//src/dev/codec_pcm3060.h ****  * power save for both the ADC and DAC.
  17:../../libDaisy//src/dev/codec_pcm3060.h ****  *
  18:../../libDaisy//src/dev/codec_pcm3060.h ****  */
  19:../../libDaisy//src/dev/codec_pcm3060.h **** class Pcm3060
  20:../../libDaisy//src/dev/codec_pcm3060.h **** {
  21:../../libDaisy//src/dev/codec_pcm3060.h ****   public:
  22:../../libDaisy//src/dev/codec_pcm3060.h ****     enum class Result
  23:../../libDaisy//src/dev/codec_pcm3060.h ****     {
  24:../../libDaisy//src/dev/codec_pcm3060.h ****         OK,
  25:../../libDaisy//src/dev/codec_pcm3060.h ****         ERR,
  26:../../libDaisy//src/dev/codec_pcm3060.h ****     };
  27:../../libDaisy//src/dev/codec_pcm3060.h **** 
  28:../../libDaisy//src/dev/codec_pcm3060.h ****     Pcm3060() {}
  29:../../libDaisy//src/dev/codec_pcm3060.h ****     ~Pcm3060() {}
 124              		.loc 6 29 5 is_stmt 1 view .LVU11
 125              		.loc 6 29 5 is_stmt 0 view .LVU12
 126              	.LBE568:
ARM GAS  /var/folders/hl/qgbwny5j0fd895c2c41bk3tw0000gp/T//ccnMoSgs.s 			page 7


 127              	.LBB569:
 128              	.LBI569:
 129              		.file 7 "../../libDaisy//src/hid/usb.h"
   1:../../libDaisy//src/hid/usb.h **** #pragma once
   2:../../libDaisy//src/hid/usb.h **** #ifndef DSY_HID_USB_H
   3:../../libDaisy//src/hid/usb.h **** #define DSY_HID_USB_H
   4:../../libDaisy//src/hid/usb.h **** #include <stdint.h>
   5:../../libDaisy//src/hid/usb.h **** #include <stdlib.h>
   6:../../libDaisy//src/hid/usb.h **** 
   7:../../libDaisy//src/hid/usb.h **** namespace daisy
   8:../../libDaisy//src/hid/usb.h **** /** @addtogroup human_interface
   9:../../libDaisy//src/hid/usb.h ****     @{
  10:../../libDaisy//src/hid/usb.h **** */
  11:../../libDaisy//src/hid/usb.h **** 
  12:../../libDaisy//src/hid/usb.h **** {
  13:../../libDaisy//src/hid/usb.h **** /** 
  14:../../libDaisy//src/hid/usb.h ****     @brief Interface for initializing and using the USB Peripherals on the daisy
  15:../../libDaisy//src/hid/usb.h ****     @author Stephen Hensley
  16:../../libDaisy//src/hid/usb.h ****     @date December 2019
  17:../../libDaisy//src/hid/usb.h **** */
  18:../../libDaisy//src/hid/usb.h **** class UsbHandle
  19:../../libDaisy//src/hid/usb.h **** {
  20:../../libDaisy//src/hid/usb.h ****   public:
  21:../../libDaisy//src/hid/usb.h ****     /** Return values for USBHandle Functions */
  22:../../libDaisy//src/hid/usb.h ****     enum class Result
  23:../../libDaisy//src/hid/usb.h ****     {
  24:../../libDaisy//src/hid/usb.h ****         OK,
  25:../../libDaisy//src/hid/usb.h ****         ERR,
  26:../../libDaisy//src/hid/usb.h ****     };
  27:../../libDaisy//src/hid/usb.h **** 
  28:../../libDaisy//src/hid/usb.h ****     /** Specified which of the two USB Peripherals to initialize. */
  29:../../libDaisy//src/hid/usb.h ****     enum UsbPeriph
  30:../../libDaisy//src/hid/usb.h ****     {
  31:../../libDaisy//src/hid/usb.h ****         FS_INTERNAL, /**< Internal pin */
  32:../../libDaisy//src/hid/usb.h ****         FS_EXTERNAL, /**< FS External D+ pin is Pin 38 (GPIO32). FS External D- pin is Pin 37 (GPIO
  33:../../libDaisy//src/hid/usb.h ****         FS_BOTH,     /**< Both */
  34:../../libDaisy//src/hid/usb.h ****     };
  35:../../libDaisy//src/hid/usb.h **** 
  36:../../libDaisy//src/hid/usb.h **** 
  37:../../libDaisy//src/hid/usb.h ****     /** Function called upon reception of a buffer */
  38:../../libDaisy//src/hid/usb.h ****     typedef void (*ReceiveCallback)(uint8_t* buff, uint32_t* len);
  39:../../libDaisy//src/hid/usb.h **** 
  40:../../libDaisy//src/hid/usb.h ****     UsbHandle() {}
  41:../../libDaisy//src/hid/usb.h **** 
  42:../../libDaisy//src/hid/usb.h ****     ~UsbHandle() {}
 130              		.loc 7 42 5 is_stmt 1 view .LVU13
 131              		.loc 7 42 5 is_stmt 0 view .LVU14
 132              	.LBE569:
 133              	.LBB570:
 134              	.LBI570:
 135              		.file 8 "../../libDaisy//src/per/adc.h"
   1:../../libDaisy//src/per/adc.h **** #pragma once
   2:../../libDaisy//src/per/adc.h **** #ifndef DSY_ADC_H
   3:../../libDaisy//src/per/adc.h **** #define DSY_ADC_H /**< Macro */
   4:../../libDaisy//src/per/adc.h **** #include <stdint.h>
   5:../../libDaisy//src/per/adc.h **** #include <stdlib.h>
   6:../../libDaisy//src/per/adc.h **** #include "daisy_core.h"
ARM GAS  /var/folders/hl/qgbwny5j0fd895c2c41bk3tw0000gp/T//ccnMoSgs.s 			page 8


   7:../../libDaisy//src/per/adc.h **** #include "per/gpio.h"
   8:../../libDaisy//src/per/adc.h **** 
   9:../../libDaisy//src/per/adc.h **** #define DSY_ADC_MAX_CHANNELS 16 /**< Maximum number of ADC channels */
  10:../../libDaisy//src/per/adc.h **** 
  11:../../libDaisy//src/per/adc.h **** namespace daisy
  12:../../libDaisy//src/per/adc.h **** {
  13:../../libDaisy//src/per/adc.h **** /** @addtogroup per_analog
  14:../../libDaisy//src/per/adc.h ****     @{
  15:../../libDaisy//src/per/adc.h **** */
  16:../../libDaisy//src/per/adc.h **** 
  17:../../libDaisy//src/per/adc.h **** /* While there may not be many configuration options here,
  18:../../libDaisy//src/per/adc.h **** using a struct like this allows us to add more configuration
  19:../../libDaisy//src/per/adc.h **** later without breaking existing functionality.
  20:../../libDaisy//src/per/adc.h **** */
  21:../../libDaisy//src/per/adc.h **** 
  22:../../libDaisy//src/per/adc.h **** /** @brief   Configuration Structure for an ADC Channel 
  23:../../libDaisy//src/per/adc.h ****  *  @details This can be used to configure a a single input, 
  24:../../libDaisy//src/per/adc.h ****  *           or a multiplexed input, allowing up to 8 inputs on 
  25:../../libDaisy//src/per/adc.h ****  *           one channel.
  26:../../libDaisy//src/per/adc.h ****  *  @note    Sharing data lines to multiple muxes _is_ possible, but
  27:../../libDaisy//src/per/adc.h ****  *           each channel sharing data lines must be set to the maximum
  28:../../libDaisy//src/per/adc.h ****  *           number of channels, even if some multiplexers have fewer
  29:../../libDaisy//src/per/adc.h ****  *           inputs connected.
  30:../../libDaisy//src/per/adc.h **** */
  31:../../libDaisy//src/per/adc.h **** struct AdcChannelConfig
  32:../../libDaisy//src/per/adc.h **** {
  33:../../libDaisy//src/per/adc.h ****     /** Which pin to use for multiplexing */
  34:../../libDaisy//src/per/adc.h ****     enum MuxPin
  35:../../libDaisy//src/per/adc.h ****     {
  36:../../libDaisy//src/per/adc.h ****         MUX_SEL_0,    /**< & */
  37:../../libDaisy//src/per/adc.h ****         MUX_SEL_1,    /**< & */
  38:../../libDaisy//src/per/adc.h ****         MUX_SEL_2,    /**< & */
  39:../../libDaisy//src/per/adc.h ****         MUX_SEL_LAST, /**< & */
  40:../../libDaisy//src/per/adc.h ****     };
  41:../../libDaisy//src/per/adc.h **** 
  42:../../libDaisy//src/per/adc.h ****     /** Initializes a single ADC pin as an ADC. 
  43:../../libDaisy//src/per/adc.h ****     \param pin Pin to init.
  44:../../libDaisy//src/per/adc.h ****      */
  45:../../libDaisy//src/per/adc.h ****     void InitSingle(dsy_gpio_pin pin);
  46:../../libDaisy//src/per/adc.h **** 
  47:../../libDaisy//src/per/adc.h ****     /** 
  48:../../libDaisy//src/per/adc.h ****     Initializes a single ADC pin as a Multiplexed ADC.
  49:../../libDaisy//src/per/adc.h ****     Requires a CD405X Multiplexer connected to the pin.
  50:../../libDaisy//src/per/adc.h ****     You only need to supply the mux pins that are required,
  51:../../libDaisy//src/per/adc.h ****     e.g. a 4052 mux would only require mux_0 and mux_1.
  52:../../libDaisy//src/per/adc.h ****     Internal Callbacks handle the pin addressing.
  53:../../libDaisy//src/per/adc.h ****     \param mux_channels must be 1-8
  54:../../libDaisy//src/per/adc.h ****     \param mux_0 First mux pin
  55:../../libDaisy//src/per/adc.h ****     \param mux_1 Second mux pin
  56:../../libDaisy//src/per/adc.h ****     \param mux_2 Third mux pin
  57:../../libDaisy//src/per/adc.h ****     \param adc_pin &
  58:../../libDaisy//src/per/adc.h ****     */
  59:../../libDaisy//src/per/adc.h ****     void InitMux(dsy_gpio_pin adc_pin,
  60:../../libDaisy//src/per/adc.h ****                  size_t       mux_channels,
  61:../../libDaisy//src/per/adc.h ****                  dsy_gpio_pin mux_0,
  62:../../libDaisy//src/per/adc.h ****                  dsy_gpio_pin mux_1 = {DSY_GPIOX, 0},
  63:../../libDaisy//src/per/adc.h ****                  dsy_gpio_pin mux_2 = {DSY_GPIOX, 0});
ARM GAS  /var/folders/hl/qgbwny5j0fd895c2c41bk3tw0000gp/T//ccnMoSgs.s 			page 9


  64:../../libDaisy//src/per/adc.h **** 
  65:../../libDaisy//src/per/adc.h ****     dsy_gpio pin_;                   /**< & */
  66:../../libDaisy//src/per/adc.h ****     dsy_gpio mux_pin_[MUX_SEL_LAST]; /**< & */
  67:../../libDaisy//src/per/adc.h ****     uint8_t  mux_channels_;          /**< & */
  68:../../libDaisy//src/per/adc.h **** };
  69:../../libDaisy//src/per/adc.h **** 
  70:../../libDaisy//src/per/adc.h **** /**
  71:../../libDaisy//src/per/adc.h ****    @brief Handler for analog to digital conversion
  72:../../libDaisy//src/per/adc.h **** */
  73:../../libDaisy//src/per/adc.h **** class AdcHandle
  74:../../libDaisy//src/per/adc.h **** {
  75:../../libDaisy//src/per/adc.h ****   public:
  76:../../libDaisy//src/per/adc.h ****     /** Supported oversampling amounts */
  77:../../libDaisy//src/per/adc.h ****     enum OverSampling
  78:../../libDaisy//src/per/adc.h ****     {
  79:../../libDaisy//src/per/adc.h ****         OVS_NONE, /**< & */
  80:../../libDaisy//src/per/adc.h ****         OVS_4,    /**< & */
  81:../../libDaisy//src/per/adc.h ****         OVS_8,    /**< & */
  82:../../libDaisy//src/per/adc.h ****         OVS_16,   /**< & */
  83:../../libDaisy//src/per/adc.h ****         OVS_32,   /**< & */
  84:../../libDaisy//src/per/adc.h ****         OVS_64,   /**< & */
  85:../../libDaisy//src/per/adc.h ****         OVS_128,  /**< & */
  86:../../libDaisy//src/per/adc.h ****         OVS_256,  /**< & */
  87:../../libDaisy//src/per/adc.h ****         OVS_512,  /**< & */
  88:../../libDaisy//src/per/adc.h ****         OVS_1024, /**< & */
  89:../../libDaisy//src/per/adc.h ****         OVS_LAST, /**< & */
  90:../../libDaisy//src/per/adc.h ****     };
  91:../../libDaisy//src/per/adc.h **** 
  92:../../libDaisy//src/per/adc.h ****     AdcHandle() {}
  93:../../libDaisy//src/per/adc.h ****     ~AdcHandle() {}
 136              		.loc 8 93 5 is_stmt 1 view .LVU15
 137              		.loc 8 93 5 is_stmt 0 view .LVU16
 138              	.LBE570:
 139              	.LBB571:
 140              	.LBI571:
 141              		.file 9 "../../libDaisy//src/hid/audio.h"
   1:../../libDaisy//src/hid/audio.h **** #ifndef DSY_AUDIO_H
   2:../../libDaisy//src/hid/audio.h **** #define DSY_AUDIO_H /**< & */
   3:../../libDaisy//src/hid/audio.h **** 
   4:../../libDaisy//src/hid/audio.h **** #include "per/sai.h"
   5:../../libDaisy//src/hid/audio.h **** 
   6:../../libDaisy//src/hid/audio.h **** namespace daisy
   7:../../libDaisy//src/hid/audio.h **** {
   8:../../libDaisy//src/hid/audio.h **** /** @brief Audio Engine Handle
   9:../../libDaisy//src/hid/audio.h ****  *  @ingroup audio 
  10:../../libDaisy//src/hid/audio.h ****  *  @details This class allows for higher level access to an audio engine.
  11:../../libDaisy//src/hid/audio.h ****  *           If you're using a SOM like the DaisySeed or DaisyPatchSM (or any 
  12:../../libDaisy//src/hid/audio.h ****  *            board that includes one of those objects) then the intialization
  13:../../libDaisy//src/hid/audio.h ****  *            is already taken  care of.
  14:../../libDaisy//src/hid/audio.h ****  *           If you're setting up your own custom hardware, or need to make changes
  15:../../libDaisy//src/hid/audio.h ****  *           you will have to take the following steps:
  16:../../libDaisy//src/hid/audio.h ****  *             1. Create and Initialize an SaiHandle or two depending on your requirements
  17:../../libDaisy//src/hid/audio.h ****  *             2. Initialize the Audio Handle with the desired settings and the Initialized SaiHand
  18:../../libDaisy//src/hid/audio.h ****  *             3. If the connected codec requires special configuration or initialization, do so
  19:../../libDaisy//src/hid/audio.h ****  *             4. Write a callback method using either the AudioCallback or the InterleavingAudioCa
  20:../../libDaisy//src/hid/audio.h ****  *             5. Start the Audio using one of the StartAudio function
  21:../../libDaisy//src/hid/audio.h ****  */
ARM GAS  /var/folders/hl/qgbwny5j0fd895c2c41bk3tw0000gp/T//ccnMoSgs.s 			page 10


  22:../../libDaisy//src/hid/audio.h **** class AudioHandle
  23:../../libDaisy//src/hid/audio.h **** {
  24:../../libDaisy//src/hid/audio.h ****   public:
  25:../../libDaisy//src/hid/audio.h ****     /** Manually configurable details about the Audio Engine */
  26:../../libDaisy//src/hid/audio.h ****     /** TODO: Figure out how to get samplerate in here. */
  27:../../libDaisy//src/hid/audio.h ****     struct Config
  28:../../libDaisy//src/hid/audio.h ****     {
  29:../../libDaisy//src/hid/audio.h ****         /** number of samples to process per callback */
  30:../../libDaisy//src/hid/audio.h ****         size_t blocksize;
  31:../../libDaisy//src/hid/audio.h **** 
  32:../../libDaisy//src/hid/audio.h ****         /**< Sample rate of audio */
  33:../../libDaisy//src/hid/audio.h ****         SaiHandle::Config::SampleRate samplerate;
  34:../../libDaisy//src/hid/audio.h **** 
  35:../../libDaisy//src/hid/audio.h ****         /** factor for adjustment before and after callback for hardware that may have extra headro
  36:../../libDaisy//src/hid/audio.h ****         float postgain;
  37:../../libDaisy//src/hid/audio.h **** 
  38:../../libDaisy//src/hid/audio.h ****         /** factor for additional one-sided compensation to audio path for hardware that may
  39:../../libDaisy//src/hid/audio.h ****          *  have unequal input/output ranges
  40:../../libDaisy//src/hid/audio.h ****          */
  41:../../libDaisy//src/hid/audio.h ****         float output_compensation;
  42:../../libDaisy//src/hid/audio.h **** 
  43:../../libDaisy//src/hid/audio.h ****         /** Sets default values for config struct */
  44:../../libDaisy//src/hid/audio.h ****         Config()
  45:../../libDaisy//src/hid/audio.h ****         : blocksize(48),
  46:../../libDaisy//src/hid/audio.h ****           samplerate(SaiHandle::Config::SampleRate::SAI_48KHZ),
  47:../../libDaisy//src/hid/audio.h ****           postgain(1.f),
  48:../../libDaisy//src/hid/audio.h ****           output_compensation(1.f)
  49:../../libDaisy//src/hid/audio.h ****         {
  50:../../libDaisy//src/hid/audio.h ****         }
  51:../../libDaisy//src/hid/audio.h ****     };
  52:../../libDaisy//src/hid/audio.h **** 
  53:../../libDaisy//src/hid/audio.h ****     enum class Result
  54:../../libDaisy//src/hid/audio.h ****     {
  55:../../libDaisy//src/hid/audio.h ****         OK,
  56:../../libDaisy//src/hid/audio.h ****         ERR,
  57:../../libDaisy//src/hid/audio.h ****     };
  58:../../libDaisy//src/hid/audio.h **** 
  59:../../libDaisy//src/hid/audio.h ****     /** Non-Interleaving input buffer
  60:../../libDaisy//src/hid/audio.h ****      * Buffer arranged by float[chn][sample] 
  61:../../libDaisy//src/hid/audio.h ****      * const so that the user can't modify the input
  62:../../libDaisy//src/hid/audio.h ****      */
  63:../../libDaisy//src/hid/audio.h ****     typedef const float* const* InputBuffer;
  64:../../libDaisy//src/hid/audio.h **** 
  65:../../libDaisy//src/hid/audio.h ****     /** Non-Interleaving output buffer
  66:../../libDaisy//src/hid/audio.h ****      * Arranged by float[chn][sample] 
  67:../../libDaisy//src/hid/audio.h ****      */
  68:../../libDaisy//src/hid/audio.h ****     typedef float** OutputBuffer;
  69:../../libDaisy//src/hid/audio.h **** 
  70:../../libDaisy//src/hid/audio.h ****     /** Type for a Non-Interleaving audio callback 
  71:../../libDaisy//src/hid/audio.h ****      * Non-Interleaving audio callbacks in daisy will be of this type
  72:../../libDaisy//src/hid/audio.h ****      */
  73:../../libDaisy//src/hid/audio.h ****     typedef void (*AudioCallback)(InputBuffer  in,
  74:../../libDaisy//src/hid/audio.h ****                                   OutputBuffer out,
  75:../../libDaisy//src/hid/audio.h ****                                   size_t       size);
  76:../../libDaisy//src/hid/audio.h **** 
  77:../../libDaisy//src/hid/audio.h ****     /** Interleaving Input buffer
  78:../../libDaisy//src/hid/audio.h ****      ** audio is prepared as { L0, R0, L1, R1, . . . LN, RN }]
ARM GAS  /var/folders/hl/qgbwny5j0fd895c2c41bk3tw0000gp/T//ccnMoSgs.s 			page 11


  79:../../libDaisy//src/hid/audio.h ****      ** this is const, as the user shouldn't modify it
  80:../../libDaisy//src/hid/audio.h ****     */
  81:../../libDaisy//src/hid/audio.h ****     typedef const float* InterleavingInputBuffer;
  82:../../libDaisy//src/hid/audio.h **** 
  83:../../libDaisy//src/hid/audio.h ****     /** Interleaving Output buffer 
  84:../../libDaisy//src/hid/audio.h ****      ** audio is prepared as { L0, R0, L1, R1, . . . LN, RN }
  85:../../libDaisy//src/hid/audio.h ****     */
  86:../../libDaisy//src/hid/audio.h ****     typedef float* InterleavingOutputBuffer;
  87:../../libDaisy//src/hid/audio.h **** 
  88:../../libDaisy//src/hid/audio.h ****     /** Interleaving Audio Callback 
  89:../../libDaisy//src/hid/audio.h ****      * Interleaving audio callbacks in daisy must be of this type
  90:../../libDaisy//src/hid/audio.h ****      */
  91:../../libDaisy//src/hid/audio.h ****     typedef void (*InterleavingAudioCallback)(InterleavingInputBuffer  in,
  92:../../libDaisy//src/hid/audio.h ****                                               InterleavingOutputBuffer out,
  93:../../libDaisy//src/hid/audio.h ****                                               size_t                   size);
  94:../../libDaisy//src/hid/audio.h **** 
  95:../../libDaisy//src/hid/audio.h ****     AudioHandle() : pimpl_(nullptr) {}
  96:../../libDaisy//src/hid/audio.h ****     ~AudioHandle() {}
 142              		.loc 9 96 5 is_stmt 1 view .LVU17
 143              		.loc 9 96 5 is_stmt 0 view .LVU18
 144              	.LBE571:
 145              	.LBB572:
 146              	.LBI572:
 147              		.file 10 "../../libDaisy//src/sys/system.h"
   1:../../libDaisy//src/sys/system.h **** #ifndef DSY_SYSTEM_H
   2:../../libDaisy//src/sys/system.h **** #define DSY_SYSTEM_H
   3:../../libDaisy//src/sys/system.h **** 
   4:../../libDaisy//src/sys/system.h **** #ifndef UNIT_TEST // for unit tests, a dummy implementation is provided below
   5:../../libDaisy//src/sys/system.h **** 
   6:../../libDaisy//src/sys/system.h **** #include <cstdint>
   7:../../libDaisy//src/sys/system.h **** #include "per/tim.h"
   8:../../libDaisy//src/sys/system.h **** 
   9:../../libDaisy//src/sys/system.h **** namespace daisy
  10:../../libDaisy//src/sys/system.h **** {
  11:../../libDaisy//src/sys/system.h **** /** A handle for interacting with the Core System. 
  12:../../libDaisy//src/sys/system.h ****  ** This includes the Clock tree, MPU, global DMA initialization,
  13:../../libDaisy//src/sys/system.h ****  ** cache handling, and any other necessary global initiailzation
  14:../../libDaisy//src/sys/system.h ****  **
  15:../../libDaisy//src/sys/system.h ****  ** @author shensley
  16:../../libDaisy//src/sys/system.h ****  ** @ingroup system
  17:../../libDaisy//src/sys/system.h ****  */
  18:../../libDaisy//src/sys/system.h **** class System
  19:../../libDaisy//src/sys/system.h **** {
  20:../../libDaisy//src/sys/system.h ****   public:
  21:../../libDaisy//src/sys/system.h ****     /** Contains settings for initializing the System */
  22:../../libDaisy//src/sys/system.h ****     struct Config
  23:../../libDaisy//src/sys/system.h ****     {
  24:../../libDaisy//src/sys/system.h ****         /** Specifies the system clock frequency that feeds APB/AHB clocks, etc. */
  25:../../libDaisy//src/sys/system.h ****         enum class SysClkFreq
  26:../../libDaisy//src/sys/system.h ****         {
  27:../../libDaisy//src/sys/system.h ****             FREQ_400MHZ,
  28:../../libDaisy//src/sys/system.h ****             FREQ_480MHZ,
  29:../../libDaisy//src/sys/system.h ****         };
  30:../../libDaisy//src/sys/system.h **** 
  31:../../libDaisy//src/sys/system.h ****         /** Method to call on the struct to set to defaults
  32:../../libDaisy//src/sys/system.h ****          ** CPU Freq set to 400MHz
  33:../../libDaisy//src/sys/system.h ****          ** Cache Enabled 
ARM GAS  /var/folders/hl/qgbwny5j0fd895c2c41bk3tw0000gp/T//ccnMoSgs.s 			page 12


  34:../../libDaisy//src/sys/system.h ****          ** */
  35:../../libDaisy//src/sys/system.h ****         void Defaults()
  36:../../libDaisy//src/sys/system.h ****         {
  37:../../libDaisy//src/sys/system.h ****             cpu_freq    = SysClkFreq::FREQ_400MHZ;
  38:../../libDaisy//src/sys/system.h ****             use_dcache  = true;
  39:../../libDaisy//src/sys/system.h ****             use_icache  = true;
  40:../../libDaisy//src/sys/system.h ****             skip_clocks = false;
  41:../../libDaisy//src/sys/system.h ****         }
  42:../../libDaisy//src/sys/system.h **** 
  43:../../libDaisy//src/sys/system.h ****         /** Method to call on the struct to set to boost mode:
  44:../../libDaisy//src/sys/system.h ****          ** CPU Freq set to 480MHz
  45:../../libDaisy//src/sys/system.h ****          ** Cache Enabled 
  46:../../libDaisy//src/sys/system.h ****          ** */
  47:../../libDaisy//src/sys/system.h ****         void Boost()
  48:../../libDaisy//src/sys/system.h ****         {
  49:../../libDaisy//src/sys/system.h ****             cpu_freq    = SysClkFreq::FREQ_480MHZ;
  50:../../libDaisy//src/sys/system.h ****             use_dcache  = true;
  51:../../libDaisy//src/sys/system.h ****             use_icache  = true;
  52:../../libDaisy//src/sys/system.h ****             skip_clocks = false;
  53:../../libDaisy//src/sys/system.h ****         }
  54:../../libDaisy//src/sys/system.h **** 
  55:../../libDaisy//src/sys/system.h ****         SysClkFreq cpu_freq;
  56:../../libDaisy//src/sys/system.h ****         bool       use_dcache;
  57:../../libDaisy//src/sys/system.h ****         bool       use_icache;
  58:../../libDaisy//src/sys/system.h ****         bool       skip_clocks;
  59:../../libDaisy//src/sys/system.h ****     };
  60:../../libDaisy//src/sys/system.h **** 
  61:../../libDaisy//src/sys/system.h ****     /** Describes the different regions of memory available to the Daisy
  62:../../libDaisy//src/sys/system.h ****      * 
  63:../../libDaisy//src/sys/system.h ****      */
  64:../../libDaisy//src/sys/system.h ****     enum MemoryRegion
  65:../../libDaisy//src/sys/system.h ****     {
  66:../../libDaisy//src/sys/system.h ****         INTERNAL_FLASH = 0,
  67:../../libDaisy//src/sys/system.h ****         ITCMRAM,
  68:../../libDaisy//src/sys/system.h ****         DTCMRAM,
  69:../../libDaisy//src/sys/system.h ****         SRAM_D1,
  70:../../libDaisy//src/sys/system.h ****         SRAM_D2,
  71:../../libDaisy//src/sys/system.h ****         SRAM_D3,
  72:../../libDaisy//src/sys/system.h ****         SDRAM,
  73:../../libDaisy//src/sys/system.h ****         QSPI,
  74:../../libDaisy//src/sys/system.h ****         INVALID_ADDRESS,
  75:../../libDaisy//src/sys/system.h ****     };
  76:../../libDaisy//src/sys/system.h **** 
  77:../../libDaisy//src/sys/system.h ****     System() {}
  78:../../libDaisy//src/sys/system.h ****     ~System() {}
 148              		.loc 10 78 5 is_stmt 1 view .LVU19
 149              		.loc 10 78 5 is_stmt 0 view .LVU20
 150              	.LBE572:
 151              		.loc 4 65 26 view .LVU21
 152 0000 7047     		bx	lr
 153              		.cfi_endproc
 154              	.LFE4775:
 156              		.weak	_ZN5daisy8patch_sm12DaisyPatchSMD1Ev
 157              		.thumb_set _ZN5daisy8patch_sm12DaisyPatchSMD1Ev,_ZN5daisy8patch_sm12DaisyPatchSMD2Ev
 158 0002 00BF     		.section	.text._ZNSt5arrayI12SampleBufferILj240000EELj8EED2Ev,"axG",%progbits,_ZNSt5arrayI12Sample
 159              		.align	1
 160              		.p2align 2,,3
ARM GAS  /var/folders/hl/qgbwny5j0fd895c2c41bk3tw0000gp/T//ccnMoSgs.s 			page 13


 161              		.weak	_ZNSt5arrayI12SampleBufferILj240000EELj8EED2Ev
 162              		.syntax unified
 163              		.thumb
 164              		.thumb_func
 165              		.fpu fpv5-d16
 167              	_ZNSt5arrayI12SampleBufferILj240000EELj8EED2Ev:
 168              	.LVL4:
 169              	.LFB5428:
 170              		.file 11 "/opt/homebrew/Cellar/arm-none-eabi-gcc/10.3-2021.07/gcc/arm-none-eabi/include/c++/10.3.1
   1:/opt/homebrew/Cellar/arm-none-eabi-gcc/10.3-2021.07/gcc/arm-none-eabi/include/c++/10.3.1/array **** // <array> -*- C++ -*-
   2:/opt/homebrew/Cellar/arm-none-eabi-gcc/10.3-2021.07/gcc/arm-none-eabi/include/c++/10.3.1/array **** 
   3:/opt/homebrew/Cellar/arm-none-eabi-gcc/10.3-2021.07/gcc/arm-none-eabi/include/c++/10.3.1/array **** // Copyright (C) 2007-2020 Free Software Foundation, Inc.
   4:/opt/homebrew/Cellar/arm-none-eabi-gcc/10.3-2021.07/gcc/arm-none-eabi/include/c++/10.3.1/array **** //
   5:/opt/homebrew/Cellar/arm-none-eabi-gcc/10.3-2021.07/gcc/arm-none-eabi/include/c++/10.3.1/array **** // This file is part of the GNU ISO C++ Library.  This library is free
   6:/opt/homebrew/Cellar/arm-none-eabi-gcc/10.3-2021.07/gcc/arm-none-eabi/include/c++/10.3.1/array **** // software; you can redistribute it and/or modify it under the
   7:/opt/homebrew/Cellar/arm-none-eabi-gcc/10.3-2021.07/gcc/arm-none-eabi/include/c++/10.3.1/array **** // terms of the GNU General Public License as published by the
   8:/opt/homebrew/Cellar/arm-none-eabi-gcc/10.3-2021.07/gcc/arm-none-eabi/include/c++/10.3.1/array **** // Free Software Foundation; either version 3, or (at your option)
   9:/opt/homebrew/Cellar/arm-none-eabi-gcc/10.3-2021.07/gcc/arm-none-eabi/include/c++/10.3.1/array **** // any later version.
  10:/opt/homebrew/Cellar/arm-none-eabi-gcc/10.3-2021.07/gcc/arm-none-eabi/include/c++/10.3.1/array **** 
  11:/opt/homebrew/Cellar/arm-none-eabi-gcc/10.3-2021.07/gcc/arm-none-eabi/include/c++/10.3.1/array **** // This library is distributed in the hope that it will be useful,
  12:/opt/homebrew/Cellar/arm-none-eabi-gcc/10.3-2021.07/gcc/arm-none-eabi/include/c++/10.3.1/array **** // but WITHOUT ANY WARRANTY; without even the implied warranty of
  13:/opt/homebrew/Cellar/arm-none-eabi-gcc/10.3-2021.07/gcc/arm-none-eabi/include/c++/10.3.1/array **** // MERCHANTABILITY or FITNESS FOR A PARTICULAR PURPOSE.  See the
  14:/opt/homebrew/Cellar/arm-none-eabi-gcc/10.3-2021.07/gcc/arm-none-eabi/include/c++/10.3.1/array **** // GNU General Public License for more details.
  15:/opt/homebrew/Cellar/arm-none-eabi-gcc/10.3-2021.07/gcc/arm-none-eabi/include/c++/10.3.1/array **** 
  16:/opt/homebrew/Cellar/arm-none-eabi-gcc/10.3-2021.07/gcc/arm-none-eabi/include/c++/10.3.1/array **** // Under Section 7 of GPL version 3, you are granted additional
  17:/opt/homebrew/Cellar/arm-none-eabi-gcc/10.3-2021.07/gcc/arm-none-eabi/include/c++/10.3.1/array **** // permissions described in the GCC Runtime Library Exception, version
  18:/opt/homebrew/Cellar/arm-none-eabi-gcc/10.3-2021.07/gcc/arm-none-eabi/include/c++/10.3.1/array **** // 3.1, as published by the Free Software Foundation.
  19:/opt/homebrew/Cellar/arm-none-eabi-gcc/10.3-2021.07/gcc/arm-none-eabi/include/c++/10.3.1/array **** 
  20:/opt/homebrew/Cellar/arm-none-eabi-gcc/10.3-2021.07/gcc/arm-none-eabi/include/c++/10.3.1/array **** // You should have received a copy of the GNU General Public License and
  21:/opt/homebrew/Cellar/arm-none-eabi-gcc/10.3-2021.07/gcc/arm-none-eabi/include/c++/10.3.1/array **** // a copy of the GCC Runtime Library Exception along with this program;
  22:/opt/homebrew/Cellar/arm-none-eabi-gcc/10.3-2021.07/gcc/arm-none-eabi/include/c++/10.3.1/array **** // see the files COPYING3 and COPYING.RUNTIME respectively.  If not, see
  23:/opt/homebrew/Cellar/arm-none-eabi-gcc/10.3-2021.07/gcc/arm-none-eabi/include/c++/10.3.1/array **** // <http://www.gnu.org/licenses/>.
  24:/opt/homebrew/Cellar/arm-none-eabi-gcc/10.3-2021.07/gcc/arm-none-eabi/include/c++/10.3.1/array **** 
  25:/opt/homebrew/Cellar/arm-none-eabi-gcc/10.3-2021.07/gcc/arm-none-eabi/include/c++/10.3.1/array **** /** @file include/array
  26:/opt/homebrew/Cellar/arm-none-eabi-gcc/10.3-2021.07/gcc/arm-none-eabi/include/c++/10.3.1/array ****  *  This is a Standard C++ Library header.
  27:/opt/homebrew/Cellar/arm-none-eabi-gcc/10.3-2021.07/gcc/arm-none-eabi/include/c++/10.3.1/array ****  */
  28:/opt/homebrew/Cellar/arm-none-eabi-gcc/10.3-2021.07/gcc/arm-none-eabi/include/c++/10.3.1/array **** 
  29:/opt/homebrew/Cellar/arm-none-eabi-gcc/10.3-2021.07/gcc/arm-none-eabi/include/c++/10.3.1/array **** #ifndef _GLIBCXX_ARRAY
  30:/opt/homebrew/Cellar/arm-none-eabi-gcc/10.3-2021.07/gcc/arm-none-eabi/include/c++/10.3.1/array **** #define _GLIBCXX_ARRAY 1
  31:/opt/homebrew/Cellar/arm-none-eabi-gcc/10.3-2021.07/gcc/arm-none-eabi/include/c++/10.3.1/array **** 
  32:/opt/homebrew/Cellar/arm-none-eabi-gcc/10.3-2021.07/gcc/arm-none-eabi/include/c++/10.3.1/array **** #pragma GCC system_header
  33:/opt/homebrew/Cellar/arm-none-eabi-gcc/10.3-2021.07/gcc/arm-none-eabi/include/c++/10.3.1/array **** 
  34:/opt/homebrew/Cellar/arm-none-eabi-gcc/10.3-2021.07/gcc/arm-none-eabi/include/c++/10.3.1/array **** #if __cplusplus < 201103L
  35:/opt/homebrew/Cellar/arm-none-eabi-gcc/10.3-2021.07/gcc/arm-none-eabi/include/c++/10.3.1/array **** # include <bits/c++0x_warning.h>
  36:/opt/homebrew/Cellar/arm-none-eabi-gcc/10.3-2021.07/gcc/arm-none-eabi/include/c++/10.3.1/array **** #else
  37:/opt/homebrew/Cellar/arm-none-eabi-gcc/10.3-2021.07/gcc/arm-none-eabi/include/c++/10.3.1/array **** 
  38:/opt/homebrew/Cellar/arm-none-eabi-gcc/10.3-2021.07/gcc/arm-none-eabi/include/c++/10.3.1/array **** #include <utility>
  39:/opt/homebrew/Cellar/arm-none-eabi-gcc/10.3-2021.07/gcc/arm-none-eabi/include/c++/10.3.1/array **** #include <bits/functexcept.h>
  40:/opt/homebrew/Cellar/arm-none-eabi-gcc/10.3-2021.07/gcc/arm-none-eabi/include/c++/10.3.1/array **** #include <bits/stl_algobase.h>
  41:/opt/homebrew/Cellar/arm-none-eabi-gcc/10.3-2021.07/gcc/arm-none-eabi/include/c++/10.3.1/array **** #include <bits/range_access.h>
  42:/opt/homebrew/Cellar/arm-none-eabi-gcc/10.3-2021.07/gcc/arm-none-eabi/include/c++/10.3.1/array **** 
  43:/opt/homebrew/Cellar/arm-none-eabi-gcc/10.3-2021.07/gcc/arm-none-eabi/include/c++/10.3.1/array **** namespace std _GLIBCXX_VISIBILITY(default)
  44:/opt/homebrew/Cellar/arm-none-eabi-gcc/10.3-2021.07/gcc/arm-none-eabi/include/c++/10.3.1/array **** {
  45:/opt/homebrew/Cellar/arm-none-eabi-gcc/10.3-2021.07/gcc/arm-none-eabi/include/c++/10.3.1/array **** _GLIBCXX_BEGIN_NAMESPACE_CONTAINER
  46:/opt/homebrew/Cellar/arm-none-eabi-gcc/10.3-2021.07/gcc/arm-none-eabi/include/c++/10.3.1/array **** 
  47:/opt/homebrew/Cellar/arm-none-eabi-gcc/10.3-2021.07/gcc/arm-none-eabi/include/c++/10.3.1/array ****   template<typename _Tp, std::size_t _Nm>
  48:/opt/homebrew/Cellar/arm-none-eabi-gcc/10.3-2021.07/gcc/arm-none-eabi/include/c++/10.3.1/array ****     struct __array_traits
ARM GAS  /var/folders/hl/qgbwny5j0fd895c2c41bk3tw0000gp/T//ccnMoSgs.s 			page 14


  49:/opt/homebrew/Cellar/arm-none-eabi-gcc/10.3-2021.07/gcc/arm-none-eabi/include/c++/10.3.1/array ****     {
  50:/opt/homebrew/Cellar/arm-none-eabi-gcc/10.3-2021.07/gcc/arm-none-eabi/include/c++/10.3.1/array ****       typedef _Tp _Type[_Nm];
  51:/opt/homebrew/Cellar/arm-none-eabi-gcc/10.3-2021.07/gcc/arm-none-eabi/include/c++/10.3.1/array ****       typedef __is_swappable<_Tp> _Is_swappable;
  52:/opt/homebrew/Cellar/arm-none-eabi-gcc/10.3-2021.07/gcc/arm-none-eabi/include/c++/10.3.1/array ****       typedef __is_nothrow_swappable<_Tp> _Is_nothrow_swappable;
  53:/opt/homebrew/Cellar/arm-none-eabi-gcc/10.3-2021.07/gcc/arm-none-eabi/include/c++/10.3.1/array **** 
  54:/opt/homebrew/Cellar/arm-none-eabi-gcc/10.3-2021.07/gcc/arm-none-eabi/include/c++/10.3.1/array ****       static constexpr _Tp&
  55:/opt/homebrew/Cellar/arm-none-eabi-gcc/10.3-2021.07/gcc/arm-none-eabi/include/c++/10.3.1/array ****       _S_ref(const _Type& __t, std::size_t __n) noexcept
  56:/opt/homebrew/Cellar/arm-none-eabi-gcc/10.3-2021.07/gcc/arm-none-eabi/include/c++/10.3.1/array ****       { return const_cast<_Tp&>(__t[__n]); }
  57:/opt/homebrew/Cellar/arm-none-eabi-gcc/10.3-2021.07/gcc/arm-none-eabi/include/c++/10.3.1/array **** 
  58:/opt/homebrew/Cellar/arm-none-eabi-gcc/10.3-2021.07/gcc/arm-none-eabi/include/c++/10.3.1/array ****       static constexpr _Tp*
  59:/opt/homebrew/Cellar/arm-none-eabi-gcc/10.3-2021.07/gcc/arm-none-eabi/include/c++/10.3.1/array ****       _S_ptr(const _Type& __t) noexcept
  60:/opt/homebrew/Cellar/arm-none-eabi-gcc/10.3-2021.07/gcc/arm-none-eabi/include/c++/10.3.1/array ****       { return const_cast<_Tp*>(__t); }
  61:/opt/homebrew/Cellar/arm-none-eabi-gcc/10.3-2021.07/gcc/arm-none-eabi/include/c++/10.3.1/array ****     };
  62:/opt/homebrew/Cellar/arm-none-eabi-gcc/10.3-2021.07/gcc/arm-none-eabi/include/c++/10.3.1/array **** 
  63:/opt/homebrew/Cellar/arm-none-eabi-gcc/10.3-2021.07/gcc/arm-none-eabi/include/c++/10.3.1/array ****  template<typename _Tp>
  64:/opt/homebrew/Cellar/arm-none-eabi-gcc/10.3-2021.07/gcc/arm-none-eabi/include/c++/10.3.1/array ****    struct __array_traits<_Tp, 0>
  65:/opt/homebrew/Cellar/arm-none-eabi-gcc/10.3-2021.07/gcc/arm-none-eabi/include/c++/10.3.1/array ****    {
  66:/opt/homebrew/Cellar/arm-none-eabi-gcc/10.3-2021.07/gcc/arm-none-eabi/include/c++/10.3.1/array ****      struct _Type { };
  67:/opt/homebrew/Cellar/arm-none-eabi-gcc/10.3-2021.07/gcc/arm-none-eabi/include/c++/10.3.1/array ****      typedef true_type _Is_swappable;
  68:/opt/homebrew/Cellar/arm-none-eabi-gcc/10.3-2021.07/gcc/arm-none-eabi/include/c++/10.3.1/array ****      typedef true_type _Is_nothrow_swappable;
  69:/opt/homebrew/Cellar/arm-none-eabi-gcc/10.3-2021.07/gcc/arm-none-eabi/include/c++/10.3.1/array **** 
  70:/opt/homebrew/Cellar/arm-none-eabi-gcc/10.3-2021.07/gcc/arm-none-eabi/include/c++/10.3.1/array ****      static constexpr _Tp&
  71:/opt/homebrew/Cellar/arm-none-eabi-gcc/10.3-2021.07/gcc/arm-none-eabi/include/c++/10.3.1/array ****      _S_ref(const _Type&, std::size_t) noexcept
  72:/opt/homebrew/Cellar/arm-none-eabi-gcc/10.3-2021.07/gcc/arm-none-eabi/include/c++/10.3.1/array ****      { return *static_cast<_Tp*>(nullptr); }
  73:/opt/homebrew/Cellar/arm-none-eabi-gcc/10.3-2021.07/gcc/arm-none-eabi/include/c++/10.3.1/array **** 
  74:/opt/homebrew/Cellar/arm-none-eabi-gcc/10.3-2021.07/gcc/arm-none-eabi/include/c++/10.3.1/array ****      static constexpr _Tp*
  75:/opt/homebrew/Cellar/arm-none-eabi-gcc/10.3-2021.07/gcc/arm-none-eabi/include/c++/10.3.1/array ****      _S_ptr(const _Type&) noexcept
  76:/opt/homebrew/Cellar/arm-none-eabi-gcc/10.3-2021.07/gcc/arm-none-eabi/include/c++/10.3.1/array ****      { return nullptr; }
  77:/opt/homebrew/Cellar/arm-none-eabi-gcc/10.3-2021.07/gcc/arm-none-eabi/include/c++/10.3.1/array ****    };
  78:/opt/homebrew/Cellar/arm-none-eabi-gcc/10.3-2021.07/gcc/arm-none-eabi/include/c++/10.3.1/array **** 
  79:/opt/homebrew/Cellar/arm-none-eabi-gcc/10.3-2021.07/gcc/arm-none-eabi/include/c++/10.3.1/array ****   /**
  80:/opt/homebrew/Cellar/arm-none-eabi-gcc/10.3-2021.07/gcc/arm-none-eabi/include/c++/10.3.1/array ****    *  @brief A standard container for storing a fixed size sequence of elements.
  81:/opt/homebrew/Cellar/arm-none-eabi-gcc/10.3-2021.07/gcc/arm-none-eabi/include/c++/10.3.1/array ****    *
  82:/opt/homebrew/Cellar/arm-none-eabi-gcc/10.3-2021.07/gcc/arm-none-eabi/include/c++/10.3.1/array ****    *  @ingroup sequences
  83:/opt/homebrew/Cellar/arm-none-eabi-gcc/10.3-2021.07/gcc/arm-none-eabi/include/c++/10.3.1/array ****    *
  84:/opt/homebrew/Cellar/arm-none-eabi-gcc/10.3-2021.07/gcc/arm-none-eabi/include/c++/10.3.1/array ****    *  Meets the requirements of a <a href="tables.html#65">container</a>, a
  85:/opt/homebrew/Cellar/arm-none-eabi-gcc/10.3-2021.07/gcc/arm-none-eabi/include/c++/10.3.1/array ****    *  <a href="tables.html#66">reversible container</a>, and a
  86:/opt/homebrew/Cellar/arm-none-eabi-gcc/10.3-2021.07/gcc/arm-none-eabi/include/c++/10.3.1/array ****    *  <a href="tables.html#67">sequence</a>.
  87:/opt/homebrew/Cellar/arm-none-eabi-gcc/10.3-2021.07/gcc/arm-none-eabi/include/c++/10.3.1/array ****    *
  88:/opt/homebrew/Cellar/arm-none-eabi-gcc/10.3-2021.07/gcc/arm-none-eabi/include/c++/10.3.1/array ****    *  Sets support random access iterators.
  89:/opt/homebrew/Cellar/arm-none-eabi-gcc/10.3-2021.07/gcc/arm-none-eabi/include/c++/10.3.1/array ****    *
  90:/opt/homebrew/Cellar/arm-none-eabi-gcc/10.3-2021.07/gcc/arm-none-eabi/include/c++/10.3.1/array ****    *  @tparam  Tp  Type of element. Required to be a complete type.
  91:/opt/homebrew/Cellar/arm-none-eabi-gcc/10.3-2021.07/gcc/arm-none-eabi/include/c++/10.3.1/array ****    *  @tparam  Nm  Number of elements.
  92:/opt/homebrew/Cellar/arm-none-eabi-gcc/10.3-2021.07/gcc/arm-none-eabi/include/c++/10.3.1/array ****   */
  93:/opt/homebrew/Cellar/arm-none-eabi-gcc/10.3-2021.07/gcc/arm-none-eabi/include/c++/10.3.1/array ****   template<typename _Tp, std::size_t _Nm>
  94:/opt/homebrew/Cellar/arm-none-eabi-gcc/10.3-2021.07/gcc/arm-none-eabi/include/c++/10.3.1/array ****     struct array
 171              		.loc 11 94 12 is_stmt 1 view -0
 172              		.cfi_startproc
 173              		@ args = 0, pretend = 0, frame = 0
 174              		@ frame_needed = 0, uses_anonymous_args = 0
 175              		@ link register save eliminated.
 176              		.loc 11 94 12 is_stmt 0 view .LVU23
 177 0000 7047     		bx	lr
 178              		.cfi_endproc
 179              	.LFE5428:
 181              		.weak	_ZNSt5arrayI12SampleBufferILj240000EELj8EED1Ev
 182              		.thumb_set _ZNSt5arrayI12SampleBufferILj240000EELj8EED1Ev,_ZNSt5arrayI12SampleBufferILj240000EELj8
ARM GAS  /var/folders/hl/qgbwny5j0fd895c2c41bk3tw0000gp/T//ccnMoSgs.s 			page 15


 183 0002 00BF     		.section	.text._Z10getSamplesv,"ax",%progbits
 184              		.align	1
 185              		.p2align 2,,3
 186              		.global	_Z10getSamplesv
 187              		.syntax unified
 188              		.thumb
 189              		.thumb_func
 190              		.fpu fpv5-d16
 192              	_Z10getSamplesv:
 193              	.LFB4843:
 194              		.file 12 "stupidtest.cpp"
   1:stupidtest.cpp **** #include "daisysp.h"
   2:stupidtest.cpp **** #include "daisy_patch_sm.h"
   3:stupidtest.cpp **** #include <array>
   4:stupidtest.cpp **** #include <stddef.h>
   5:stupidtest.cpp **** #include <unistd.h>
   6:stupidtest.cpp **** 
   7:stupidtest.cpp **** using namespace daisy;
   8:stupidtest.cpp **** using namespace patch_sm;
   9:stupidtest.cpp **** using namespace daisysp;
  10:stupidtest.cpp **** 
  11:stupidtest.cpp **** DaisyPatchSM    hw;
  12:stupidtest.cpp **** Switch          toggle;
  13:stupidtest.cpp **** Switch          button;
  14:stupidtest.cpp **** ReverbSc        rv;
  15:stupidtest.cpp **** Svf             svf;
  16:stupidtest.cpp **** 
  17:stupidtest.cpp **** /** Sample buffer with record and playback.
  18:stupidtest.cpp **** 
  19:stupidtest.cpp **** By: Alex Virgona
  20:stupidtest.cpp **** */
  21:stupidtest.cpp **** template <size_t kBufferSize>
  22:stupidtest.cpp **** class SampleBuffer
  23:stupidtest.cpp **** {
  24:stupidtest.cpp ****   public:
  25:stupidtest.cpp ****     SampleBuffer() {}
  26:stupidtest.cpp ****     ~SampleBuffer() {}
  27:stupidtest.cpp **** 
  28:stupidtest.cpp ****     void Init()
  29:stupidtest.cpp ****     {
  30:stupidtest.cpp ****         Clear();
  31:stupidtest.cpp ****         recording_ = false;
  32:stupidtest.cpp ****         write_ptr_ = 0;
  33:stupidtest.cpp ****         playing_   = false;
  34:stupidtest.cpp ****         read_ptr_  = 0;
  35:stupidtest.cpp ****     }
  36:stupidtest.cpp **** 
  37:stupidtest.cpp ****     void Clear()
  38:stupidtest.cpp ****     {
  39:stupidtest.cpp ****         for(size_t i = 0; i < kBufferSize; i++)
  40:stupidtest.cpp ****         {
  41:stupidtest.cpp ****             buffer_[i] = 0.f;
  42:stupidtest.cpp ****         }
  43:stupidtest.cpp ****     }
  44:stupidtest.cpp **** 
  45:stupidtest.cpp ****     void Record(bool start = true)
  46:stupidtest.cpp ****     {
ARM GAS  /var/folders/hl/qgbwny5j0fd895c2c41bk3tw0000gp/T//ccnMoSgs.s 			page 16


  47:stupidtest.cpp ****         if(start)
  48:stupidtest.cpp ****         {
  49:stupidtest.cpp ****             Clear();
  50:stupidtest.cpp ****         }
  51:stupidtest.cpp ****         recording_ = start;
  52:stupidtest.cpp ****         write_ptr_ = 0;
  53:stupidtest.cpp ****     }
  54:stupidtest.cpp **** 
  55:stupidtest.cpp ****     void Play(bool start = true)
  56:stupidtest.cpp ****     {
  57:stupidtest.cpp ****         playing_  = start;
  58:stupidtest.cpp ****         read_ptr_ = 0;
  59:stupidtest.cpp ****     }
  60:stupidtest.cpp **** 
  61:stupidtest.cpp ****     // testing reverse play 
  62:stupidtest.cpp ****     void PlayBackward(bool start = true)
  63:stupidtest.cpp ****     {
  64:stupidtest.cpp ****         playing_  = start;
  65:stupidtest.cpp ****         read_ptr_back_ = kBufferSize;
  66:stupidtest.cpp ****     }
  67:stupidtest.cpp **** 
  68:stupidtest.cpp **** 
  69:stupidtest.cpp ****     float Process(const float sample)
  70:stupidtest.cpp ****     {
  71:stupidtest.cpp ****         Write(sample);
  72:stupidtest.cpp ****         return Read();
  73:stupidtest.cpp ****     }
  74:stupidtest.cpp **** 
  75:stupidtest.cpp ****     // testing reverse play
  76:stupidtest.cpp ****     float ProcessBack(const float sample)
  77:stupidtest.cpp ****     {
  78:stupidtest.cpp ****         Write(sample);
  79:stupidtest.cpp ****         return ReadBack();
  80:stupidtest.cpp ****     }
  81:stupidtest.cpp **** 
  82:stupidtest.cpp ****     void Write(const float sample)
  83:stupidtest.cpp ****     {
  84:stupidtest.cpp ****         if(recording_)
  85:stupidtest.cpp ****         {
  86:stupidtest.cpp ****             buffer_[write_ptr_] = sample;
  87:stupidtest.cpp ****             write_ptr_++;
  88:stupidtest.cpp ****             if(write_ptr_ >= kBufferSize)
  89:stupidtest.cpp ****             {
  90:stupidtest.cpp ****                 recording_ = false;
  91:stupidtest.cpp ****                 write_ptr_ = 0;
  92:stupidtest.cpp ****             }
  93:stupidtest.cpp ****         }
  94:stupidtest.cpp ****     }
  95:stupidtest.cpp **** 
  96:stupidtest.cpp ****     float Read()
  97:stupidtest.cpp ****     {
  98:stupidtest.cpp ****         if(playing_)
  99:stupidtest.cpp ****         {
 100:stupidtest.cpp ****             float inc = hw.GetAdcValue(CV_3); 
 101:stupidtest.cpp ****             float wait = fmap(inc,0.0f,0.99f);
 102:stupidtest.cpp **** 
 103:stupidtest.cpp ****             float out = buffer_[read_ptr_];
ARM GAS  /var/folders/hl/qgbwny5j0fd895c2c41bk3tw0000gp/T//ccnMoSgs.s 			page 17


 104:stupidtest.cpp ****             
 105:stupidtest.cpp ****             for(size_t i = 0.f; i <= wait; i++) {
 106:stupidtest.cpp ****             
 107:stupidtest.cpp ****             read_ptr_++;
 108:stupidtest.cpp ****             
 109:stupidtest.cpp ****             }
 110:stupidtest.cpp **** 
 111:stupidtest.cpp **** 
 112:stupidtest.cpp ****             if(read_ptr_ >= kBufferSize)
 113:stupidtest.cpp ****             {
 114:stupidtest.cpp ****                 playing_  = false;
 115:stupidtest.cpp ****                 read_ptr_ = 0;
 116:stupidtest.cpp ****             }
 117:stupidtest.cpp ****             return out;
 118:stupidtest.cpp ****         }
 119:stupidtest.cpp ****         else
 120:stupidtest.cpp ****         {
 121:stupidtest.cpp ****             return 0.f;
 122:stupidtest.cpp ****         }
 123:stupidtest.cpp ****     }
 124:stupidtest.cpp **** 
 125:stupidtest.cpp ****     // testing reverse play 
 126:stupidtest.cpp ****     float ReadBack()
 127:stupidtest.cpp ****     {
 128:stupidtest.cpp ****         if(playing_)
 129:stupidtest.cpp ****         {
 130:stupidtest.cpp ****             float outback = buffer_[read_ptr_back_];
 131:stupidtest.cpp ****             read_ptr_back_--;
 132:stupidtest.cpp ****             if(read_ptr_back_ <= 0)
 133:stupidtest.cpp ****             {
 134:stupidtest.cpp ****                 playing_  = false;
 135:stupidtest.cpp ****                 read_ptr_back_ = kBufferSize;
 136:stupidtest.cpp ****             }
 137:stupidtest.cpp ****             return outback;
 138:stupidtest.cpp ****         }
 139:stupidtest.cpp ****         else
 140:stupidtest.cpp ****         {
 141:stupidtest.cpp ****             return 0.f;
 142:stupidtest.cpp ****         }
 143:stupidtest.cpp ****     }
 144:stupidtest.cpp **** 
 145:stupidtest.cpp ****     bool IsPlaying() const { return playing_; }
 146:stupidtest.cpp ****     bool IsRecording() const { return recording_; }
 147:stupidtest.cpp **** 
 148:stupidtest.cpp ****   private:
 149:stupidtest.cpp ****     size_t write_ptr_;
 150:stupidtest.cpp ****     size_t read_ptr_;
 151:stupidtest.cpp ****     size_t read_ptr_back_;
 152:stupidtest.cpp ****     bool   playing_;
 153:stupidtest.cpp ****     bool   recording_;
 154:stupidtest.cpp ****     float  buffer_[kBufferSize];
 155:stupidtest.cpp **** };
 156:stupidtest.cpp **** 
 157:stupidtest.cpp **** //sample setup 
 158:stupidtest.cpp **** #define NUM_BUFFERS 8
 159:stupidtest.cpp **** // 5 second sample buffers at 48kHz
 160:stupidtest.cpp **** #define BUFFER_SIZE (48000 * 5)
ARM GAS  /var/folders/hl/qgbwny5j0fd895c2c41bk3tw0000gp/T//ccnMoSgs.s 			page 18


 161:stupidtest.cpp **** std::array<SampleBuffer<BUFFER_SIZE>, NUM_BUFFERS> DSY_SDRAM_BSS buffers;
 162:stupidtest.cpp **** int s = 0;
 163:stupidtest.cpp **** 
 164:stupidtest.cpp **** void getSamples(){
 195              		.loc 12 164 18 is_stmt 1 view -0
 196              		.cfi_startproc
 197              		@ args = 0, pretend = 0, frame = 0
 198              		@ frame_needed = 0, uses_anonymous_args = 0
 165:stupidtest.cpp **** 	hw.ProcessAllControls();
 199              		.loc 12 165 2 view .LVU25
 200              	.LVL5:
 201              	.LBB573:
 202              	.LBI573:
  66:../../libDaisy//src/daisy_patch_sm.h **** 
  67:../../libDaisy//src/daisy_patch_sm.h ****         /** Initializes the memories, and core peripherals for the Daisy Patch SM */
  68:../../libDaisy//src/daisy_patch_sm.h ****         void Init();
  69:../../libDaisy//src/daisy_patch_sm.h **** 
  70:../../libDaisy//src/daisy_patch_sm.h ****         /** Starts a non-interleaving audio callback */
  71:../../libDaisy//src/daisy_patch_sm.h ****         void StartAudio(AudioHandle::AudioCallback cb);
  72:../../libDaisy//src/daisy_patch_sm.h **** 
  73:../../libDaisy//src/daisy_patch_sm.h ****         /** Starts an interleaving audio callback */
  74:../../libDaisy//src/daisy_patch_sm.h ****         void StartAudio(AudioHandle::InterleavingAudioCallback cb);
  75:../../libDaisy//src/daisy_patch_sm.h **** 
  76:../../libDaisy//src/daisy_patch_sm.h ****         /** Changes the callback that is executing.
  77:../../libDaisy//src/daisy_patch_sm.h ****          *  This may cause clicks if done while audio is processing.
  78:../../libDaisy//src/daisy_patch_sm.h ****          */
  79:../../libDaisy//src/daisy_patch_sm.h ****         void ChangeAudioCallback(AudioHandle::AudioCallback cb);
  80:../../libDaisy//src/daisy_patch_sm.h **** 
  81:../../libDaisy//src/daisy_patch_sm.h ****         /** Changes the callback that is executing.
  82:../../libDaisy//src/daisy_patch_sm.h ****          *  This may cause clicks if done while audio is processing.
  83:../../libDaisy//src/daisy_patch_sm.h ****          */
  84:../../libDaisy//src/daisy_patch_sm.h ****         void ChangeAudioCallback(AudioHandle::InterleavingAudioCallback cb);
  85:../../libDaisy//src/daisy_patch_sm.h **** 
  86:../../libDaisy//src/daisy_patch_sm.h ****         /** Stops the transmission of audio. */
  87:../../libDaisy//src/daisy_patch_sm.h ****         void StopAudio();
  88:../../libDaisy//src/daisy_patch_sm.h **** 
  89:../../libDaisy//src/daisy_patch_sm.h ****         /** Sets the number of samples processed in an audio callback. 
  90:../../libDaisy//src/daisy_patch_sm.h ****          *  This will only take effect on the next invocation of `StartAudio`
  91:../../libDaisy//src/daisy_patch_sm.h ****          */
  92:../../libDaisy//src/daisy_patch_sm.h ****         void SetAudioBlockSize(size_t size);
  93:../../libDaisy//src/daisy_patch_sm.h **** 
  94:../../libDaisy//src/daisy_patch_sm.h ****         /** Sets the samplerate for the audio engine 
  95:../../libDaisy//src/daisy_patch_sm.h ****          *  This will set it to the closest valid samplerate. Options being:
  96:../../libDaisy//src/daisy_patch_sm.h ****          *  8kHz, 16kHz, 32kHz, 48kHz, and 96kHz
  97:../../libDaisy//src/daisy_patch_sm.h ****          */
  98:../../libDaisy//src/daisy_patch_sm.h ****         void SetAudioSampleRate(float sr);
  99:../../libDaisy//src/daisy_patch_sm.h **** 
 100:../../libDaisy//src/daisy_patch_sm.h ****         void SetAudioSampleRate(SaiHandle::Config::SampleRate sample_rate);
 101:../../libDaisy//src/daisy_patch_sm.h **** 
 102:../../libDaisy//src/daisy_patch_sm.h ****         /** Returns the number of samples processed in an audio callback */
 103:../../libDaisy//src/daisy_patch_sm.h ****         size_t AudioBlockSize();
 104:../../libDaisy//src/daisy_patch_sm.h **** 
 105:../../libDaisy//src/daisy_patch_sm.h ****         /** Returns the audio engine's samplerate in Hz */
 106:../../libDaisy//src/daisy_patch_sm.h ****         float AudioSampleRate();
 107:../../libDaisy//src/daisy_patch_sm.h **** 
 108:../../libDaisy//src/daisy_patch_sm.h ****         /** Returns the rate at which the audio callback will be called in Hz */
 109:../../libDaisy//src/daisy_patch_sm.h ****         float AudioCallbackRate();
ARM GAS  /var/folders/hl/qgbwny5j0fd895c2c41bk3tw0000gp/T//ccnMoSgs.s 			page 19


 110:../../libDaisy//src/daisy_patch_sm.h **** 
 111:../../libDaisy//src/daisy_patch_sm.h ****         /** Starts the Control ADCs 
 112:../../libDaisy//src/daisy_patch_sm.h ****          * 
 113:../../libDaisy//src/daisy_patch_sm.h ****          *  This is started automatically when Init() is called.
 114:../../libDaisy//src/daisy_patch_sm.h ****          */
 115:../../libDaisy//src/daisy_patch_sm.h ****         void StartAdc();
 116:../../libDaisy//src/daisy_patch_sm.h **** 
 117:../../libDaisy//src/daisy_patch_sm.h ****         /** Stops the Control ADCs */
 118:../../libDaisy//src/daisy_patch_sm.h ****         void StopAdc();
 119:../../libDaisy//src/daisy_patch_sm.h **** 
 120:../../libDaisy//src/daisy_patch_sm.h ****         /** Reads and filters all of the analog control inputs */
 121:../../libDaisy//src/daisy_patch_sm.h ****         void ProcessAnalogControls();
 122:../../libDaisy//src/daisy_patch_sm.h **** 
 123:../../libDaisy//src/daisy_patch_sm.h ****         /** Reads and debounces any of the digital control inputs 
 124:../../libDaisy//src/daisy_patch_sm.h ****          *  This does nothing on this board at this time.
 125:../../libDaisy//src/daisy_patch_sm.h ****          */
 126:../../libDaisy//src/daisy_patch_sm.h ****         void ProcessDigitalControls();
 127:../../libDaisy//src/daisy_patch_sm.h **** 
 128:../../libDaisy//src/daisy_patch_sm.h ****         /** Does both of the above */
 129:../../libDaisy//src/daisy_patch_sm.h ****         void ProcessAllControls()
 203              		.loc 4 129 14 view .LVU26
 204              	.LBB574:
 130:../../libDaisy//src/daisy_patch_sm.h ****         {
 131:../../libDaisy//src/daisy_patch_sm.h ****             ProcessAnalogControls();
 205              		.loc 4 131 13 view .LVU27
 206              	.LBE574:
 207              	.LBE573:
 164:stupidtest.cpp **** 	hw.ProcessAllControls();
 208              		.loc 12 164 18 is_stmt 0 view .LVU28
 209 0000 38B5     		push	{r3, r4, r5, lr}
 210              		.cfi_def_cfa_offset 16
 211              		.cfi_offset 3, -16
 212              		.cfi_offset 4, -12
 213              		.cfi_offset 5, -8
 214              		.cfi_offset 14, -4
 215              	.LBB577:
 216              	.LBB575:
 217              		.loc 4 131 34 view .LVU29
 218 0002 B148     		ldr	r0, .L88
 219              	.LBE575:
 220              	.LBE577:
 166:stupidtest.cpp **** 	button.Debounce();
 167:stupidtest.cpp ****     toggle.Debounce(); 
 168:stupidtest.cpp ****     
 169:stupidtest.cpp ****     // randomizer
 170:stupidtest.cpp **** 	int randSamp = rand() % NUM_BUFFERS;
 221              		.loc 12 170 26 view .LVU30
 222 0004 0824     		movs	r4, #8
 223              	.LBB578:
 224              	.LBB576:
 225              		.loc 4 131 34 view .LVU31
 226 0006 FFF7FEFF 		bl	_ZN5daisy8patch_sm12DaisyPatchSM21ProcessAnalogControlsEv
 227              	.LVL6:
 132:../../libDaisy//src/daisy_patch_sm.h ****             ProcessDigitalControls();
 228              		.loc 4 132 13 is_stmt 1 view .LVU32
 229              		.loc 4 132 35 is_stmt 0 view .LVU33
 230 000a AF48     		ldr	r0, .L88
ARM GAS  /var/folders/hl/qgbwny5j0fd895c2c41bk3tw0000gp/T//ccnMoSgs.s 			page 20


 231 000c FFF7FEFF 		bl	_ZN5daisy8patch_sm12DaisyPatchSM22ProcessDigitalControlsEv
 232              	.LVL7:
 233              		.loc 4 132 35 view .LVU34
 234              	.LBE576:
 235              	.LBE578:
 166:stupidtest.cpp **** 	button.Debounce();
 236              		.loc 12 166 2 is_stmt 1 view .LVU35
 166:stupidtest.cpp **** 	button.Debounce();
 237              		.loc 12 166 17 is_stmt 0 view .LVU36
 238 0010 AE48     		ldr	r0, .L88+4
 239 0012 FFF7FEFF 		bl	_ZN5daisy6Switch8DebounceEv
 240              	.LVL8:
 167:stupidtest.cpp ****     
 241              		.loc 12 167 5 is_stmt 1 view .LVU37
 167:stupidtest.cpp ****     
 242              		.loc 12 167 20 is_stmt 0 view .LVU38
 243 0016 AE48     		ldr	r0, .L88+8
 244 0018 FFF7FEFF 		bl	_ZN5daisy6Switch8DebounceEv
 245              	.LVL9:
 246              		.loc 12 170 2 is_stmt 1 view .LVU39
 247              		.loc 12 170 21 is_stmt 0 view .LVU40
 248 001c FFF7FEFF 		bl	rand
 249              	.LVL10:
 250              		.loc 12 170 26 view .LVU41
 251 0020 4342     		rsbs	r3, r0, #0
 252 0022 00F00705 		and	r5, r0, #7
 253 0026 03F00703 		and	r3, r3, #7
 254 002a 58BF     		it	pl
 255 002c 5D42     		rsbpl	r5, r3, #0
 256              	.LVL11:
 171:stupidtest.cpp **** 
 172:stupidtest.cpp ****     // playState will choose between gate states or otherwise
 173:stupidtest.cpp ****     //bool playState = toggle.Pressed();
 174:stupidtest.cpp **** 
 175:stupidtest.cpp ****     for(size_t i = 0; i < buffers.size(); i++)
 257              		.loc 12 175 5 is_stmt 1 view .LVU42
 258              	.LBB579:
 259              		.loc 12 175 25 view .LVU43
 260              	.L9:
 176:stupidtest.cpp ****     {
 177:stupidtest.cpp ****         if(hw.gate_in_2.Trig()) {
 261              		.loc 12 177 9 view .LVU44
 262              		.loc 12 177 29 is_stmt 0 view .LVU45
 263 002e A948     		ldr	r0, .L88+12
 264 0030 FFF7FEFF 		bl	_ZN5daisy6GateIn4TrigEv
 265              	.LVL12:
 178:stupidtest.cpp ****             buffers[randSamp].Play();
 266              		.loc 12 178 13 is_stmt 1 view .LVU46
 267              	.LBB580:
 268              	.LBI580:
  95:/opt/homebrew/Cellar/arm-none-eabi-gcc/10.3-2021.07/gcc/arm-none-eabi/include/c++/10.3.1/array ****     {
  96:/opt/homebrew/Cellar/arm-none-eabi-gcc/10.3-2021.07/gcc/arm-none-eabi/include/c++/10.3.1/array ****       typedef _Tp 	    			      value_type;
  97:/opt/homebrew/Cellar/arm-none-eabi-gcc/10.3-2021.07/gcc/arm-none-eabi/include/c++/10.3.1/array ****       typedef value_type*			      pointer;
  98:/opt/homebrew/Cellar/arm-none-eabi-gcc/10.3-2021.07/gcc/arm-none-eabi/include/c++/10.3.1/array ****       typedef const value_type*                       const_pointer;
  99:/opt/homebrew/Cellar/arm-none-eabi-gcc/10.3-2021.07/gcc/arm-none-eabi/include/c++/10.3.1/array ****       typedef value_type&                   	      reference;
 100:/opt/homebrew/Cellar/arm-none-eabi-gcc/10.3-2021.07/gcc/arm-none-eabi/include/c++/10.3.1/array ****       typedef const value_type&             	      const_reference;
 101:/opt/homebrew/Cellar/arm-none-eabi-gcc/10.3-2021.07/gcc/arm-none-eabi/include/c++/10.3.1/array ****       typedef value_type*          		      iterator;
ARM GAS  /var/folders/hl/qgbwny5j0fd895c2c41bk3tw0000gp/T//ccnMoSgs.s 			page 21


 102:/opt/homebrew/Cellar/arm-none-eabi-gcc/10.3-2021.07/gcc/arm-none-eabi/include/c++/10.3.1/array ****       typedef const value_type*			      const_iterator;
 103:/opt/homebrew/Cellar/arm-none-eabi-gcc/10.3-2021.07/gcc/arm-none-eabi/include/c++/10.3.1/array ****       typedef std::size_t                    	      size_type;
 104:/opt/homebrew/Cellar/arm-none-eabi-gcc/10.3-2021.07/gcc/arm-none-eabi/include/c++/10.3.1/array ****       typedef std::ptrdiff_t                   	      difference_type;
 105:/opt/homebrew/Cellar/arm-none-eabi-gcc/10.3-2021.07/gcc/arm-none-eabi/include/c++/10.3.1/array ****       typedef std::reverse_iterator<iterator>	      reverse_iterator;
 106:/opt/homebrew/Cellar/arm-none-eabi-gcc/10.3-2021.07/gcc/arm-none-eabi/include/c++/10.3.1/array ****       typedef std::reverse_iterator<const_iterator>   const_reverse_iterator;
 107:/opt/homebrew/Cellar/arm-none-eabi-gcc/10.3-2021.07/gcc/arm-none-eabi/include/c++/10.3.1/array **** 
 108:/opt/homebrew/Cellar/arm-none-eabi-gcc/10.3-2021.07/gcc/arm-none-eabi/include/c++/10.3.1/array ****       // Support for zero-sized arrays mandatory.
 109:/opt/homebrew/Cellar/arm-none-eabi-gcc/10.3-2021.07/gcc/arm-none-eabi/include/c++/10.3.1/array ****       typedef _GLIBCXX_STD_C::__array_traits<_Tp, _Nm> _AT_Type;
 110:/opt/homebrew/Cellar/arm-none-eabi-gcc/10.3-2021.07/gcc/arm-none-eabi/include/c++/10.3.1/array ****       typename _AT_Type::_Type                         _M_elems;
 111:/opt/homebrew/Cellar/arm-none-eabi-gcc/10.3-2021.07/gcc/arm-none-eabi/include/c++/10.3.1/array **** 
 112:/opt/homebrew/Cellar/arm-none-eabi-gcc/10.3-2021.07/gcc/arm-none-eabi/include/c++/10.3.1/array ****       // No explicit construct/copy/destroy for aggregate type.
 113:/opt/homebrew/Cellar/arm-none-eabi-gcc/10.3-2021.07/gcc/arm-none-eabi/include/c++/10.3.1/array **** 
 114:/opt/homebrew/Cellar/arm-none-eabi-gcc/10.3-2021.07/gcc/arm-none-eabi/include/c++/10.3.1/array ****       // DR 776.
 115:/opt/homebrew/Cellar/arm-none-eabi-gcc/10.3-2021.07/gcc/arm-none-eabi/include/c++/10.3.1/array ****       _GLIBCXX20_CONSTEXPR void
 116:/opt/homebrew/Cellar/arm-none-eabi-gcc/10.3-2021.07/gcc/arm-none-eabi/include/c++/10.3.1/array ****       fill(const value_type& __u)
 117:/opt/homebrew/Cellar/arm-none-eabi-gcc/10.3-2021.07/gcc/arm-none-eabi/include/c++/10.3.1/array ****       { std::fill_n(begin(), size(), __u); }
 118:/opt/homebrew/Cellar/arm-none-eabi-gcc/10.3-2021.07/gcc/arm-none-eabi/include/c++/10.3.1/array **** 
 119:/opt/homebrew/Cellar/arm-none-eabi-gcc/10.3-2021.07/gcc/arm-none-eabi/include/c++/10.3.1/array ****       _GLIBCXX20_CONSTEXPR void
 120:/opt/homebrew/Cellar/arm-none-eabi-gcc/10.3-2021.07/gcc/arm-none-eabi/include/c++/10.3.1/array ****       swap(array& __other)
 121:/opt/homebrew/Cellar/arm-none-eabi-gcc/10.3-2021.07/gcc/arm-none-eabi/include/c++/10.3.1/array ****       noexcept(_AT_Type::_Is_nothrow_swappable::value)
 122:/opt/homebrew/Cellar/arm-none-eabi-gcc/10.3-2021.07/gcc/arm-none-eabi/include/c++/10.3.1/array ****       { std::swap_ranges(begin(), end(), __other.begin()); }
 123:/opt/homebrew/Cellar/arm-none-eabi-gcc/10.3-2021.07/gcc/arm-none-eabi/include/c++/10.3.1/array **** 
 124:/opt/homebrew/Cellar/arm-none-eabi-gcc/10.3-2021.07/gcc/arm-none-eabi/include/c++/10.3.1/array ****       // Iterators.
 125:/opt/homebrew/Cellar/arm-none-eabi-gcc/10.3-2021.07/gcc/arm-none-eabi/include/c++/10.3.1/array ****       _GLIBCXX17_CONSTEXPR iterator
 126:/opt/homebrew/Cellar/arm-none-eabi-gcc/10.3-2021.07/gcc/arm-none-eabi/include/c++/10.3.1/array ****       begin() noexcept
 127:/opt/homebrew/Cellar/arm-none-eabi-gcc/10.3-2021.07/gcc/arm-none-eabi/include/c++/10.3.1/array ****       { return iterator(data()); }
 128:/opt/homebrew/Cellar/arm-none-eabi-gcc/10.3-2021.07/gcc/arm-none-eabi/include/c++/10.3.1/array **** 
 129:/opt/homebrew/Cellar/arm-none-eabi-gcc/10.3-2021.07/gcc/arm-none-eabi/include/c++/10.3.1/array ****       _GLIBCXX17_CONSTEXPR const_iterator
 130:/opt/homebrew/Cellar/arm-none-eabi-gcc/10.3-2021.07/gcc/arm-none-eabi/include/c++/10.3.1/array ****       begin() const noexcept
 131:/opt/homebrew/Cellar/arm-none-eabi-gcc/10.3-2021.07/gcc/arm-none-eabi/include/c++/10.3.1/array ****       { return const_iterator(data()); }
 132:/opt/homebrew/Cellar/arm-none-eabi-gcc/10.3-2021.07/gcc/arm-none-eabi/include/c++/10.3.1/array **** 
 133:/opt/homebrew/Cellar/arm-none-eabi-gcc/10.3-2021.07/gcc/arm-none-eabi/include/c++/10.3.1/array ****       _GLIBCXX17_CONSTEXPR iterator
 134:/opt/homebrew/Cellar/arm-none-eabi-gcc/10.3-2021.07/gcc/arm-none-eabi/include/c++/10.3.1/array ****       end() noexcept
 135:/opt/homebrew/Cellar/arm-none-eabi-gcc/10.3-2021.07/gcc/arm-none-eabi/include/c++/10.3.1/array ****       { return iterator(data() + _Nm); }
 136:/opt/homebrew/Cellar/arm-none-eabi-gcc/10.3-2021.07/gcc/arm-none-eabi/include/c++/10.3.1/array **** 
 137:/opt/homebrew/Cellar/arm-none-eabi-gcc/10.3-2021.07/gcc/arm-none-eabi/include/c++/10.3.1/array ****       _GLIBCXX17_CONSTEXPR const_iterator
 138:/opt/homebrew/Cellar/arm-none-eabi-gcc/10.3-2021.07/gcc/arm-none-eabi/include/c++/10.3.1/array ****       end() const noexcept
 139:/opt/homebrew/Cellar/arm-none-eabi-gcc/10.3-2021.07/gcc/arm-none-eabi/include/c++/10.3.1/array ****       { return const_iterator(data() + _Nm); }
 140:/opt/homebrew/Cellar/arm-none-eabi-gcc/10.3-2021.07/gcc/arm-none-eabi/include/c++/10.3.1/array **** 
 141:/opt/homebrew/Cellar/arm-none-eabi-gcc/10.3-2021.07/gcc/arm-none-eabi/include/c++/10.3.1/array ****       _GLIBCXX17_CONSTEXPR reverse_iterator
 142:/opt/homebrew/Cellar/arm-none-eabi-gcc/10.3-2021.07/gcc/arm-none-eabi/include/c++/10.3.1/array ****       rbegin() noexcept
 143:/opt/homebrew/Cellar/arm-none-eabi-gcc/10.3-2021.07/gcc/arm-none-eabi/include/c++/10.3.1/array ****       { return reverse_iterator(end()); }
 144:/opt/homebrew/Cellar/arm-none-eabi-gcc/10.3-2021.07/gcc/arm-none-eabi/include/c++/10.3.1/array **** 
 145:/opt/homebrew/Cellar/arm-none-eabi-gcc/10.3-2021.07/gcc/arm-none-eabi/include/c++/10.3.1/array ****       _GLIBCXX17_CONSTEXPR const_reverse_iterator
 146:/opt/homebrew/Cellar/arm-none-eabi-gcc/10.3-2021.07/gcc/arm-none-eabi/include/c++/10.3.1/array ****       rbegin() const noexcept
 147:/opt/homebrew/Cellar/arm-none-eabi-gcc/10.3-2021.07/gcc/arm-none-eabi/include/c++/10.3.1/array ****       { return const_reverse_iterator(end()); }
 148:/opt/homebrew/Cellar/arm-none-eabi-gcc/10.3-2021.07/gcc/arm-none-eabi/include/c++/10.3.1/array **** 
 149:/opt/homebrew/Cellar/arm-none-eabi-gcc/10.3-2021.07/gcc/arm-none-eabi/include/c++/10.3.1/array ****       _GLIBCXX17_CONSTEXPR reverse_iterator
 150:/opt/homebrew/Cellar/arm-none-eabi-gcc/10.3-2021.07/gcc/arm-none-eabi/include/c++/10.3.1/array ****       rend() noexcept
 151:/opt/homebrew/Cellar/arm-none-eabi-gcc/10.3-2021.07/gcc/arm-none-eabi/include/c++/10.3.1/array ****       { return reverse_iterator(begin()); }
 152:/opt/homebrew/Cellar/arm-none-eabi-gcc/10.3-2021.07/gcc/arm-none-eabi/include/c++/10.3.1/array **** 
 153:/opt/homebrew/Cellar/arm-none-eabi-gcc/10.3-2021.07/gcc/arm-none-eabi/include/c++/10.3.1/array ****       _GLIBCXX17_CONSTEXPR const_reverse_iterator
 154:/opt/homebrew/Cellar/arm-none-eabi-gcc/10.3-2021.07/gcc/arm-none-eabi/include/c++/10.3.1/array ****       rend() const noexcept
 155:/opt/homebrew/Cellar/arm-none-eabi-gcc/10.3-2021.07/gcc/arm-none-eabi/include/c++/10.3.1/array ****       { return const_reverse_iterator(begin()); }
 156:/opt/homebrew/Cellar/arm-none-eabi-gcc/10.3-2021.07/gcc/arm-none-eabi/include/c++/10.3.1/array **** 
 157:/opt/homebrew/Cellar/arm-none-eabi-gcc/10.3-2021.07/gcc/arm-none-eabi/include/c++/10.3.1/array ****       _GLIBCXX17_CONSTEXPR const_iterator
 158:/opt/homebrew/Cellar/arm-none-eabi-gcc/10.3-2021.07/gcc/arm-none-eabi/include/c++/10.3.1/array ****       cbegin() const noexcept
ARM GAS  /var/folders/hl/qgbwny5j0fd895c2c41bk3tw0000gp/T//ccnMoSgs.s 			page 22


 159:/opt/homebrew/Cellar/arm-none-eabi-gcc/10.3-2021.07/gcc/arm-none-eabi/include/c++/10.3.1/array ****       { return const_iterator(data()); }
 160:/opt/homebrew/Cellar/arm-none-eabi-gcc/10.3-2021.07/gcc/arm-none-eabi/include/c++/10.3.1/array **** 
 161:/opt/homebrew/Cellar/arm-none-eabi-gcc/10.3-2021.07/gcc/arm-none-eabi/include/c++/10.3.1/array ****       _GLIBCXX17_CONSTEXPR const_iterator
 162:/opt/homebrew/Cellar/arm-none-eabi-gcc/10.3-2021.07/gcc/arm-none-eabi/include/c++/10.3.1/array ****       cend() const noexcept
 163:/opt/homebrew/Cellar/arm-none-eabi-gcc/10.3-2021.07/gcc/arm-none-eabi/include/c++/10.3.1/array ****       { return const_iterator(data() + _Nm); }
 164:/opt/homebrew/Cellar/arm-none-eabi-gcc/10.3-2021.07/gcc/arm-none-eabi/include/c++/10.3.1/array **** 
 165:/opt/homebrew/Cellar/arm-none-eabi-gcc/10.3-2021.07/gcc/arm-none-eabi/include/c++/10.3.1/array ****       _GLIBCXX17_CONSTEXPR const_reverse_iterator
 166:/opt/homebrew/Cellar/arm-none-eabi-gcc/10.3-2021.07/gcc/arm-none-eabi/include/c++/10.3.1/array ****       crbegin() const noexcept
 167:/opt/homebrew/Cellar/arm-none-eabi-gcc/10.3-2021.07/gcc/arm-none-eabi/include/c++/10.3.1/array ****       { return const_reverse_iterator(end()); }
 168:/opt/homebrew/Cellar/arm-none-eabi-gcc/10.3-2021.07/gcc/arm-none-eabi/include/c++/10.3.1/array **** 
 169:/opt/homebrew/Cellar/arm-none-eabi-gcc/10.3-2021.07/gcc/arm-none-eabi/include/c++/10.3.1/array ****       _GLIBCXX17_CONSTEXPR const_reverse_iterator
 170:/opt/homebrew/Cellar/arm-none-eabi-gcc/10.3-2021.07/gcc/arm-none-eabi/include/c++/10.3.1/array ****       crend() const noexcept
 171:/opt/homebrew/Cellar/arm-none-eabi-gcc/10.3-2021.07/gcc/arm-none-eabi/include/c++/10.3.1/array ****       { return const_reverse_iterator(begin()); }
 172:/opt/homebrew/Cellar/arm-none-eabi-gcc/10.3-2021.07/gcc/arm-none-eabi/include/c++/10.3.1/array **** 
 173:/opt/homebrew/Cellar/arm-none-eabi-gcc/10.3-2021.07/gcc/arm-none-eabi/include/c++/10.3.1/array ****       // Capacity.
 174:/opt/homebrew/Cellar/arm-none-eabi-gcc/10.3-2021.07/gcc/arm-none-eabi/include/c++/10.3.1/array ****       constexpr size_type
 175:/opt/homebrew/Cellar/arm-none-eabi-gcc/10.3-2021.07/gcc/arm-none-eabi/include/c++/10.3.1/array ****       size() const noexcept { return _Nm; }
 176:/opt/homebrew/Cellar/arm-none-eabi-gcc/10.3-2021.07/gcc/arm-none-eabi/include/c++/10.3.1/array **** 
 177:/opt/homebrew/Cellar/arm-none-eabi-gcc/10.3-2021.07/gcc/arm-none-eabi/include/c++/10.3.1/array ****       constexpr size_type
 178:/opt/homebrew/Cellar/arm-none-eabi-gcc/10.3-2021.07/gcc/arm-none-eabi/include/c++/10.3.1/array ****       max_size() const noexcept { return _Nm; }
 179:/opt/homebrew/Cellar/arm-none-eabi-gcc/10.3-2021.07/gcc/arm-none-eabi/include/c++/10.3.1/array **** 
 180:/opt/homebrew/Cellar/arm-none-eabi-gcc/10.3-2021.07/gcc/arm-none-eabi/include/c++/10.3.1/array ****       _GLIBCXX_NODISCARD constexpr bool
 181:/opt/homebrew/Cellar/arm-none-eabi-gcc/10.3-2021.07/gcc/arm-none-eabi/include/c++/10.3.1/array ****       empty() const noexcept { return size() == 0; }
 182:/opt/homebrew/Cellar/arm-none-eabi-gcc/10.3-2021.07/gcc/arm-none-eabi/include/c++/10.3.1/array **** 
 183:/opt/homebrew/Cellar/arm-none-eabi-gcc/10.3-2021.07/gcc/arm-none-eabi/include/c++/10.3.1/array ****       // Element access.
 184:/opt/homebrew/Cellar/arm-none-eabi-gcc/10.3-2021.07/gcc/arm-none-eabi/include/c++/10.3.1/array ****       _GLIBCXX17_CONSTEXPR reference
 185:/opt/homebrew/Cellar/arm-none-eabi-gcc/10.3-2021.07/gcc/arm-none-eabi/include/c++/10.3.1/array ****       operator[](size_type __n) noexcept
 269              		.loc 11 185 7 view .LVU47
 270              	.LBB581:
 271              	.LBI581:
  55:/opt/homebrew/Cellar/arm-none-eabi-gcc/10.3-2021.07/gcc/arm-none-eabi/include/c++/10.3.1/array ****       { return const_cast<_Tp&>(__t[__n]); }
 272              		.loc 11 55 7 view .LVU48
  55:/opt/homebrew/Cellar/arm-none-eabi-gcc/10.3-2021.07/gcc/arm-none-eabi/include/c++/10.3.1/array ****       { return const_cast<_Tp&>(__t[__n]); }
 273              		.loc 11 55 7 is_stmt 0 view .LVU49
 274              	.LBE581:
 275              	.LBE580:
 276              	.LBB582:
 277              	.LBI582:
  55:stupidtest.cpp ****     {
 278              		.loc 12 55 10 is_stmt 1 view .LVU50
  55:stupidtest.cpp ****     {
 279              		.loc 12 55 10 is_stmt 0 view .LVU51
 280              	.LBE582:
 175:stupidtest.cpp ****     {
 281              		.loc 12 175 5 is_stmt 1 view .LVU52
 175:stupidtest.cpp ****     {
 282              		.loc 12 175 25 view .LVU53
 283              	.LBB585:
 284              	.LBB583:
  57:stupidtest.cpp ****         read_ptr_ = 0;
 285              		.loc 12 57 19 is_stmt 0 view .LVU54
 286 0034 A84B     		ldr	r3, .L88+16
 287 0036 A94A     		ldr	r2, .L88+20
 288 0038 4FF0010C 		mov	ip, #1
  58:stupidtest.cpp ****     }
 289              		.loc 12 58 19 view .LVU55
 290 003c 0021     		movs	r1, #0
ARM GAS  /var/folders/hl/qgbwny5j0fd895c2c41bk3tw0000gp/T//ccnMoSgs.s 			page 23


  57:stupidtest.cpp ****         read_ptr_ = 0;
 291              		.loc 12 57 19 view .LVU56
 292 003e 02FB0533 		mla	r3, r2, r5, r3
 293              	.LBE583:
 294              	.LBE585:
 177:stupidtest.cpp ****             buffers[randSamp].Play();
 295              		.loc 12 177 9 view .LVU57
 296 0042 10B1     		cbz	r0, .L8
 297              	.LBB586:
 298              	.LBB584:
  57:stupidtest.cpp ****         read_ptr_ = 0;
 299              		.loc 12 57 19 view .LVU58
 300 0044 83F80CC0 		strb	ip, [r3, #12]
  58:stupidtest.cpp ****     }
 301              		.loc 12 58 19 view .LVU59
 302 0048 5960     		str	r1, [r3, #4]
 303              	.L8:
 304              	.LBE584:
 305              	.LBE586:
 175:stupidtest.cpp ****     {
 306              		.loc 12 175 25 discriminator 2 view .LVU60
 307 004a 013C     		subs	r4, r4, #1
 308              	.LVL13:
 175:stupidtest.cpp ****     {
 309              		.loc 12 175 25 discriminator 2 view .LVU61
 310 004c EFD1     		bne	.L9
 311              	.LBE579:
 179:stupidtest.cpp ****         }
 180:stupidtest.cpp ****     }
 181:stupidtest.cpp ****     
 182:stupidtest.cpp ****     switch(s) {
 312              		.loc 12 182 5 is_stmt 1 view .LVU62
 313 004e A44A     		ldr	r2, .L88+24
 314 0050 1368     		ldr	r3, [r2]
 315 0052 072B     		cmp	r3, #7
 316 0054 18D8     		bhi	.L7
 317 0056 DFE803F0 		tbb	[pc, r3]
 318              	.L12:
 319 005a 04       		.byte	(.L19-.L12)/2
 320 005b 2F       		.byte	(.L18-.L12)/2
 321 005c 46       		.byte	(.L17-.L12)/2
 322 005d 5D       		.byte	(.L16-.L12)/2
 323 005e 74       		.byte	(.L15-.L12)/2
 324 005f 8B       		.byte	(.L14-.L12)/2
 325 0060 A3       		.byte	(.L13-.L12)/2
 326 0061 18       		.byte	(.L11-.L12)/2
 327              		.p2align 1
 328              	.L19:
 183:stupidtest.cpp ****         case 0:
 329              		.loc 12 183 9 view .LVU63
 184:stupidtest.cpp ****             if(button.RisingEdge() && !buffers[0].IsRecording()) {
 330              		.loc 12 184 13 view .LVU64
 331              	.LVL14:
 332              	.LBB587:
 333              	.LBI587:
  43:../../libDaisy//src/hid/switch.h **** 
  44:../../libDaisy//src/hid/switch.h ****     /** 
ARM GAS  /var/folders/hl/qgbwny5j0fd895c2c41bk3tw0000gp/T//ccnMoSgs.s 			page 24


  45:../../libDaisy//src/hid/switch.h ****     Initializes the switch object with a given port/pin combo.
  46:../../libDaisy//src/hid/switch.h ****     \param pin port/pin object to tell the switch which hardware pin to use.
  47:../../libDaisy//src/hid/switch.h ****     \param update_rate Does nothing. Backwards compatibility until next breaking update.
  48:../../libDaisy//src/hid/switch.h ****     \param t switch type -- Default: TYPE_MOMENTARY
  49:../../libDaisy//src/hid/switch.h ****     \param pol switch polarity -- Default: POLARITY_INVERTED
  50:../../libDaisy//src/hid/switch.h ****     \param pu switch pull up/down -- Default: PULL_UP
  51:../../libDaisy//src/hid/switch.h ****     */
  52:../../libDaisy//src/hid/switch.h ****     void
  53:../../libDaisy//src/hid/switch.h ****     Init(dsy_gpio_pin pin, float update_rate, Type t, Polarity pol, Pull pu);
  54:../../libDaisy//src/hid/switch.h **** 
  55:../../libDaisy//src/hid/switch.h ****     /**
  56:../../libDaisy//src/hid/switch.h ****        Simplified Init.
  57:../../libDaisy//src/hid/switch.h ****        \param pin port/pin object to tell the switch which hardware pin to use.
  58:../../libDaisy//src/hid/switch.h ****        \param update_rate Left for backwards compatibility until next breaking change.
  59:../../libDaisy//src/hid/switch.h ****     */
  60:../../libDaisy//src/hid/switch.h ****     void Init(dsy_gpio_pin pin, float update_rate = 0.f);
  61:../../libDaisy//src/hid/switch.h **** 
  62:../../libDaisy//src/hid/switch.h ****     /** 
  63:../../libDaisy//src/hid/switch.h ****     Called at update_rate to debounce and handle timing for the switch.
  64:../../libDaisy//src/hid/switch.h ****     In order for events not to be missed, its important that the Edge/Pressed checks
  65:../../libDaisy//src/hid/switch.h ****     be made at the same rate as the debounce function is being called.
  66:../../libDaisy//src/hid/switch.h ****     */
  67:../../libDaisy//src/hid/switch.h ****     void Debounce();
  68:../../libDaisy//src/hid/switch.h **** 
  69:../../libDaisy//src/hid/switch.h ****     /** \return true if a button was just pressed. */
  70:../../libDaisy//src/hid/switch.h ****     inline bool RisingEdge() const { return updated_ ? state_ == 0x7f : false; }
 334              		.loc 3 70 17 view .LVU65
 335              	.LBB588:
 336              		.loc 3 70 38 view .LVU66
 337              		.loc 3 70 45 is_stmt 0 view .LVU67
 338 0062 9A4B     		ldr	r3, .L88+4
 339              		.loc 3 70 54 view .LVU68
 340 0064 1979     		ldrb	r1, [r3, #4]	@ zero_extendqisi2
 341 0066 79B1     		cbz	r1, .L7
 342              		.loc 3 70 56 view .LVU69
 343 0068 9B7A     		ldrb	r3, [r3, #10]	@ zero_extendqisi2
 344              	.LVL15:
 345              		.loc 3 70 56 view .LVU70
 346              	.LBE588:
 347              	.LBE587:
 348              		.loc 12 184 36 view .LVU71
 349 006a 7F2B     		cmp	r3, #127
 350 006c 40F0B180 		bne	.L20
 351              	.LVL16:
 352              	.LBB589:
 353              	.LBI589:
 146:stupidtest.cpp **** 
 354              		.loc 12 146 10 is_stmt 1 view .LVU72
 355              	.LBB590:
 146:stupidtest.cpp **** 
 356              		.loc 12 146 39 is_stmt 0 view .LVU73
 357 0070 994C     		ldr	r4, .L88+16
 358              	.LVL17:
 146:stupidtest.cpp **** 
 359              		.loc 12 146 39 view .LVU74
 360              	.LBE590:
 361              	.LBE589:
ARM GAS  /var/folders/hl/qgbwny5j0fd895c2c41bk3tw0000gp/T//ccnMoSgs.s 			page 25


 362              		.loc 12 184 36 view .LVU75
 363 0072 657B     		ldrb	r5, [r4, #13]	@ zero_extendqisi2
 364              	.LVL18:
 365              		.loc 12 184 36 view .LVU76
 366 0074 45B9     		cbnz	r5, .L7
 367              	.LBB591:
 368              	.LBB592:
 369              	.LBB593:
 370              	.LBB594:
  41:stupidtest.cpp ****         }
 371              		.loc 12 41 24 view .LVU77
 372 0076 9B4A     		ldr	r2, .L88+28
 373 0078 2946     		mov	r1, r5
 374 007a 04F11000 		add	r0, r4, #16
 375 007e FFF7FEFF 		bl	memset
 376              	.LVL19:
 377              	.LBE594:
 378              	.LBE593:
  51:stupidtest.cpp ****         write_ptr_ = 0;
 379              		.loc 12 51 20 view .LVU78
 380 0082 0123     		movs	r3, #1
  52:stupidtest.cpp ****     }
 381              		.loc 12 52 20 view .LVU79
 382 0084 2560     		str	r5, [r4]
  51:stupidtest.cpp ****         write_ptr_ = 0;
 383              		.loc 12 51 20 view .LVU80
 384 0086 6373     		strb	r3, [r4, #13]
 385              	.L7:
 386              	.LBE592:
 387              	.LBE591:
 185:stupidtest.cpp ****                 buffers[0].Record();
 186:stupidtest.cpp ****             } else if(button.FallingEdge() && buffers[0].IsRecording()) {
 187:stupidtest.cpp ****                 buffers[0].Record(false);
 188:stupidtest.cpp ****                 s++;
 189:stupidtest.cpp ****             }
 190:stupidtest.cpp ****             break;;
 191:stupidtest.cpp ****         case 1:
 192:stupidtest.cpp ****             if(button.RisingEdge() && !buffers[1].IsRecording()) {
 193:stupidtest.cpp ****                 buffers[1].Record();
 194:stupidtest.cpp ****             } else if(button.FallingEdge() && buffers[1].IsRecording()) {
 195:stupidtest.cpp ****                 buffers[1].Record(false);
 196:stupidtest.cpp ****                 s++;
 197:stupidtest.cpp ****             }
 198:stupidtest.cpp ****             break;;
 199:stupidtest.cpp ****         case 2:
 200:stupidtest.cpp ****             if(button.RisingEdge() && !buffers[2].IsRecording()) {
 201:stupidtest.cpp ****                 buffers[2].Record();
 202:stupidtest.cpp ****             } else if(button.FallingEdge() && buffers[2].IsRecording()) {
 203:stupidtest.cpp ****                 buffers[2].Record(false);
 204:stupidtest.cpp ****                 s++;
 205:stupidtest.cpp ****             }
 206:stupidtest.cpp ****             break;;
 207:stupidtest.cpp ****         case 3:
 208:stupidtest.cpp ****             if(button.RisingEdge() && !buffers[3].IsRecording()) {
 209:stupidtest.cpp ****                 buffers[3].Record();
 210:stupidtest.cpp ****             } else if(button.FallingEdge() && buffers[3].IsRecording()) {
 211:stupidtest.cpp ****                 buffers[3].Record(false);
ARM GAS  /var/folders/hl/qgbwny5j0fd895c2c41bk3tw0000gp/T//ccnMoSgs.s 			page 26


 212:stupidtest.cpp ****                 s++;
 213:stupidtest.cpp ****             }
 214:stupidtest.cpp ****             break;;
 215:stupidtest.cpp ****         case 4:
 216:stupidtest.cpp ****             if(button.RisingEdge() && !buffers[4].IsRecording()) {
 217:stupidtest.cpp ****                 buffers[4].Record();
 218:stupidtest.cpp ****             } else if(button.FallingEdge() && buffers[4].IsRecording()) {
 219:stupidtest.cpp ****                 buffers[4].Record(false);
 220:stupidtest.cpp ****                 s++;
 221:stupidtest.cpp ****             }
 222:stupidtest.cpp ****             break;;
 223:stupidtest.cpp ****         case 5:
 224:stupidtest.cpp ****             if(button.RisingEdge() && !buffers[5].IsRecording()) {
 225:stupidtest.cpp ****                 buffers[5].Record();
 226:stupidtest.cpp ****             } else if(button.FallingEdge() && buffers[5].IsRecording()) {
 227:stupidtest.cpp ****                 buffers[5].Record(false);
 228:stupidtest.cpp ****                 s++;
 229:stupidtest.cpp ****             }
 230:stupidtest.cpp ****             break;;
 231:stupidtest.cpp ****         case 6:
 232:stupidtest.cpp ****             if(button.RisingEdge() && !buffers[6].IsRecording()) {
 233:stupidtest.cpp ****                 buffers[6].Record();
 234:stupidtest.cpp ****             } else if(button.FallingEdge() && buffers[6].IsRecording()) {
 235:stupidtest.cpp ****                 buffers[6].Record(false);
 236:stupidtest.cpp ****                 s++;
 237:stupidtest.cpp ****             }
 238:stupidtest.cpp ****             break;;
 239:stupidtest.cpp ****         case 7:
 240:stupidtest.cpp ****             if(button.RisingEdge() && !buffers[7].IsRecording()) {
 241:stupidtest.cpp ****                 buffers[7].Record();
 242:stupidtest.cpp ****             } else if(button.FallingEdge() && buffers[7].IsRecording()) {
 243:stupidtest.cpp ****                 buffers[7].Record(false);
 244:stupidtest.cpp ****                 s++;
 245:stupidtest.cpp ****             }
 246:stupidtest.cpp ****             break;;
 247:stupidtest.cpp ****     }
 248:stupidtest.cpp **** 
 249:stupidtest.cpp **** }
 388              		.loc 12 249 1 view .LVU81
 389 0088 38BD     		pop	{r3, r4, r5, pc}
 390              	.LVL20:
 391              	.L11:
 238:stupidtest.cpp ****         case 7:
 392              		.loc 12 238 19 is_stmt 1 view .LVU82
 239:stupidtest.cpp ****             if(button.RisingEdge() && !buffers[7].IsRecording()) {
 393              		.loc 12 239 9 view .LVU83
 240:stupidtest.cpp ****                 buffers[7].Record();
 394              		.loc 12 240 13 view .LVU84
 395              	.LBB595:
 396              	.LBI595:
 397              		.loc 3 70 17 view .LVU85
 398              	.LBB596:
 399              		.loc 3 70 38 view .LVU86
 400              		.loc 3 70 45 is_stmt 0 view .LVU87
 401 008a 904B     		ldr	r3, .L88+4
 402              		.loc 3 70 54 view .LVU88
 403 008c 1979     		ldrb	r1, [r3, #4]	@ zero_extendqisi2
ARM GAS  /var/folders/hl/qgbwny5j0fd895c2c41bk3tw0000gp/T//ccnMoSgs.s 			page 27


 404 008e 0029     		cmp	r1, #0
 405 0090 FAD0     		beq	.L7
 406              		.loc 3 70 56 view .LVU89
 407 0092 9B7A     		ldrb	r3, [r3, #10]	@ zero_extendqisi2
 408              	.LVL21:
 409              		.loc 3 70 56 view .LVU90
 410              	.LBE596:
 411              	.LBE595:
 240:stupidtest.cpp ****                 buffers[7].Record();
 412              		.loc 12 240 36 view .LVU91
 413 0094 7F2B     		cmp	r3, #127
 414 0096 00F0AA80 		beq	.L81
 242:stupidtest.cpp ****                 buffers[7].Record(false);
 415              		.loc 12 242 20 is_stmt 1 view .LVU92
 416              	.LVL22:
  71:../../libDaisy//src/hid/switch.h **** 
  72:../../libDaisy//src/hid/switch.h ****     /** \return true if the button was just released */
  73:../../libDaisy//src/hid/switch.h ****     inline bool FallingEdge() const
  74:../../libDaisy//src/hid/switch.h ****     {
  75:../../libDaisy//src/hid/switch.h ****         return updated_ ? state_ == 0x80 : false;
 417              		.loc 3 75 9 view .LVU93
 242:stupidtest.cpp ****                 buffers[7].Record(false);
 418              		.loc 12 242 44 is_stmt 0 view .LVU94
 419 009a 802B     		cmp	r3, #128
 420 009c F4D1     		bne	.L7
 421              	.LVL23:
 422              	.LBB597:
 423              	.LBI597:
 146:stupidtest.cpp **** 
 424              		.loc 12 146 10 is_stmt 1 view .LVU95
 425              	.LBB598:
 146:stupidtest.cpp **** 
 426              		.loc 12 146 39 is_stmt 0 view .LVU96
 427 009e 924B     		ldr	r3, .L88+32
 428              	.LBE598:
 429              	.LBE597:
 242:stupidtest.cpp ****                 buffers[7].Record(false);
 430              		.loc 12 242 44 view .LVU97
 431 00a0 93F87D1A 		ldrb	r1, [r3, #2685]	@ zero_extendqisi2
 432 00a4 0029     		cmp	r1, #0
 433 00a6 EFD0     		beq	.L7
 243:stupidtest.cpp ****                 s++;
 434              		.loc 12 243 17 is_stmt 1 view .LVU98
 435              	.LVL24:
 436              	.LBB599:
 437              	.LBI599:
  45:stupidtest.cpp ****     {
 438              		.loc 12 45 10 view .LVU99
 439              	.LBB600:
  51:stupidtest.cpp ****         write_ptr_ = 0;
 440              		.loc 12 51 20 is_stmt 0 view .LVU100
 441 00a8 0021     		movs	r1, #0
 442              	.LBE600:
 443              	.LBE599:
 244:stupidtest.cpp ****             }
 444              		.loc 12 244 18 view .LVU101
 445 00aa 0820     		movs	r0, #8
ARM GAS  /var/folders/hl/qgbwny5j0fd895c2c41bk3tw0000gp/T//ccnMoSgs.s 			page 28


 446              	.LBB602:
 447              	.LBB601:
  51:stupidtest.cpp ****         write_ptr_ = 0;
 448              		.loc 12 51 20 view .LVU102
 449 00ac 83F87D1A 		strb	r1, [r3, #2685]
  52:stupidtest.cpp ****     }
 450              		.loc 12 52 20 view .LVU103
 451 00b0 C3F8701A 		str	r1, [r3, #2672]
 452              	.LVL25:
  52:stupidtest.cpp ****     }
 453              		.loc 12 52 20 view .LVU104
 454              	.LBE601:
 455              	.LBE602:
 244:stupidtest.cpp ****             }
 456              		.loc 12 244 17 is_stmt 1 view .LVU105
 244:stupidtest.cpp ****             }
 457              		.loc 12 244 18 is_stmt 0 view .LVU106
 458 00b4 1060     		str	r0, [r2]
 246:stupidtest.cpp ****     }
 459              		.loc 12 246 19 is_stmt 1 view .LVU107
 460              		.loc 12 249 1 is_stmt 0 view .LVU108
 461 00b6 38BD     		pop	{r3, r4, r5, pc}
 462              	.LVL26:
 463              	.L18:
 190:stupidtest.cpp ****         case 1:
 464              		.loc 12 190 19 is_stmt 1 view .LVU109
 191:stupidtest.cpp ****             if(button.RisingEdge() && !buffers[1].IsRecording()) {
 465              		.loc 12 191 9 view .LVU110
 192:stupidtest.cpp ****                 buffers[1].Record();
 466              		.loc 12 192 13 view .LVU111
 467              	.LBB603:
 468              	.LBI603:
  70:../../libDaisy//src/hid/switch.h **** 
 469              		.loc 3 70 17 view .LVU112
 470              	.LBB604:
  70:../../libDaisy//src/hid/switch.h **** 
 471              		.loc 3 70 38 view .LVU113
  70:../../libDaisy//src/hid/switch.h **** 
 472              		.loc 3 70 45 is_stmt 0 view .LVU114
 473 00b8 844B     		ldr	r3, .L88+4
  70:../../libDaisy//src/hid/switch.h **** 
 474              		.loc 3 70 54 view .LVU115
 475 00ba 1979     		ldrb	r1, [r3, #4]	@ zero_extendqisi2
 476 00bc 0029     		cmp	r1, #0
 477 00be E3D0     		beq	.L7
  70:../../libDaisy//src/hid/switch.h **** 
 478              		.loc 3 70 56 view .LVU116
 479 00c0 9B7A     		ldrb	r3, [r3, #10]	@ zero_extendqisi2
 480              	.LVL27:
  70:../../libDaisy//src/hid/switch.h **** 
 481              		.loc 3 70 56 view .LVU117
 482              	.LBE604:
 483              	.LBE603:
 192:stupidtest.cpp ****                 buffers[1].Record();
 484              		.loc 12 192 36 view .LVU118
 485 00c2 7F2B     		cmp	r3, #127
 486 00c4 00F0B780 		beq	.L82
ARM GAS  /var/folders/hl/qgbwny5j0fd895c2c41bk3tw0000gp/T//ccnMoSgs.s 			page 29


 194:stupidtest.cpp ****                 buffers[1].Record(false);
 487              		.loc 12 194 20 is_stmt 1 view .LVU119
 488              	.LVL28:
 489              		.loc 3 75 9 view .LVU120
 194:stupidtest.cpp ****                 buffers[1].Record(false);
 490              		.loc 12 194 44 is_stmt 0 view .LVU121
 491 00c8 802B     		cmp	r3, #128
 492 00ca DDD1     		bne	.L7
 493              	.LVL29:
 494              	.LBB605:
 495              	.LBI605:
 146:stupidtest.cpp **** 
 496              		.loc 12 146 10 is_stmt 1 view .LVU122
 497              	.LBB606:
 146:stupidtest.cpp **** 
 498              		.loc 12 146 39 is_stmt 0 view .LVU123
 499 00cc 874B     		ldr	r3, .L88+36
 500              	.LBE606:
 501              	.LBE605:
 194:stupidtest.cpp ****                 buffers[1].Record(false);
 502              		.loc 12 194 44 view .LVU124
 503 00ce 93F81D16 		ldrb	r1, [r3, #1565]	@ zero_extendqisi2
 504 00d2 0029     		cmp	r1, #0
 505 00d4 D8D0     		beq	.L7
 195:stupidtest.cpp ****                 s++;
 506              		.loc 12 195 17 is_stmt 1 view .LVU125
 507              	.LVL30:
 508              	.LBB607:
 509              	.LBI607:
  45:stupidtest.cpp ****     {
 510              		.loc 12 45 10 view .LVU126
 511              	.LBB608:
  51:stupidtest.cpp ****         write_ptr_ = 0;
 512              		.loc 12 51 20 is_stmt 0 view .LVU127
 513 00d6 0021     		movs	r1, #0
 514              	.LBE608:
 515              	.LBE607:
 196:stupidtest.cpp ****             }
 516              		.loc 12 196 18 view .LVU128
 517 00d8 0220     		movs	r0, #2
 518              	.LBB610:
 519              	.LBB609:
  51:stupidtest.cpp ****         write_ptr_ = 0;
 520              		.loc 12 51 20 view .LVU129
 521 00da 83F81D16 		strb	r1, [r3, #1565]
  52:stupidtest.cpp ****     }
 522              		.loc 12 52 20 view .LVU130
 523 00de C3F81016 		str	r1, [r3, #1552]
 524              	.LVL31:
  52:stupidtest.cpp ****     }
 525              		.loc 12 52 20 view .LVU131
 526              	.LBE609:
 527              	.LBE610:
 196:stupidtest.cpp ****             }
 528              		.loc 12 196 17 is_stmt 1 view .LVU132
 196:stupidtest.cpp ****             }
 529              		.loc 12 196 18 is_stmt 0 view .LVU133
ARM GAS  /var/folders/hl/qgbwny5j0fd895c2c41bk3tw0000gp/T//ccnMoSgs.s 			page 30


 530 00e2 1060     		str	r0, [r2]
 531              		.loc 12 249 1 view .LVU134
 532 00e4 38BD     		pop	{r3, r4, r5, pc}
 533              	.LVL32:
 534              	.L17:
 198:stupidtest.cpp ****         case 2:
 535              		.loc 12 198 19 is_stmt 1 view .LVU135
 199:stupidtest.cpp ****             if(button.RisingEdge() && !buffers[2].IsRecording()) {
 536              		.loc 12 199 9 view .LVU136
 200:stupidtest.cpp ****                 buffers[2].Record();
 537              		.loc 12 200 13 view .LVU137
 538              	.LBB611:
 539              	.LBI611:
  70:../../libDaisy//src/hid/switch.h **** 
 540              		.loc 3 70 17 view .LVU138
 541              	.LBB612:
  70:../../libDaisy//src/hid/switch.h **** 
 542              		.loc 3 70 38 view .LVU139
  70:../../libDaisy//src/hid/switch.h **** 
 543              		.loc 3 70 45 is_stmt 0 view .LVU140
 544 00e6 794B     		ldr	r3, .L88+4
  70:../../libDaisy//src/hid/switch.h **** 
 545              		.loc 3 70 54 view .LVU141
 546 00e8 1979     		ldrb	r1, [r3, #4]	@ zero_extendqisi2
 547 00ea 0029     		cmp	r1, #0
 548 00ec CCD0     		beq	.L7
  70:../../libDaisy//src/hid/switch.h **** 
 549              		.loc 3 70 56 view .LVU142
 550 00ee 9B7A     		ldrb	r3, [r3, #10]	@ zero_extendqisi2
 551              	.LVL33:
  70:../../libDaisy//src/hid/switch.h **** 
 552              		.loc 3 70 56 view .LVU143
 553              	.LBE612:
 554              	.LBE611:
 200:stupidtest.cpp ****                 buffers[2].Record();
 555              		.loc 12 200 36 view .LVU144
 556 00f0 7F2B     		cmp	r3, #127
 557 00f2 00F08E80 		beq	.L83
 202:stupidtest.cpp ****                 buffers[2].Record(false);
 558              		.loc 12 202 20 is_stmt 1 view .LVU145
 559              	.LVL34:
 560              		.loc 3 75 9 view .LVU146
 202:stupidtest.cpp ****                 buffers[2].Record(false);
 561              		.loc 12 202 44 is_stmt 0 view .LVU147
 562 00f6 802B     		cmp	r3, #128
 563 00f8 C6D1     		bne	.L7
 564              	.LVL35:
 565              	.LBB613:
 566              	.LBI613:
 146:stupidtest.cpp **** 
 567              		.loc 12 146 10 is_stmt 1 view .LVU148
 568              	.LBB614:
 146:stupidtest.cpp **** 
 569              		.loc 12 146 39 is_stmt 0 view .LVU149
 570 00fa 7D4B     		ldr	r3, .L88+40
 571              	.LBE614:
 572              	.LBE613:
ARM GAS  /var/folders/hl/qgbwny5j0fd895c2c41bk3tw0000gp/T//ccnMoSgs.s 			page 31


 202:stupidtest.cpp ****                 buffers[2].Record(false);
 573              		.loc 12 202 44 view .LVU150
 574 00fc 93F82D1C 		ldrb	r1, [r3, #3117]	@ zero_extendqisi2
 575 0100 0029     		cmp	r1, #0
 576 0102 C1D0     		beq	.L7
 203:stupidtest.cpp ****                 s++;
 577              		.loc 12 203 17 is_stmt 1 view .LVU151
 578              	.LVL36:
 579              	.LBB615:
 580              	.LBI615:
  45:stupidtest.cpp ****     {
 581              		.loc 12 45 10 view .LVU152
 582              	.LBB616:
  51:stupidtest.cpp ****         write_ptr_ = 0;
 583              		.loc 12 51 20 is_stmt 0 view .LVU153
 584 0104 0021     		movs	r1, #0
 585              	.LBE616:
 586              	.LBE615:
 204:stupidtest.cpp ****             }
 587              		.loc 12 204 18 view .LVU154
 588 0106 0320     		movs	r0, #3
 589              	.LBB618:
 590              	.LBB617:
  51:stupidtest.cpp ****         write_ptr_ = 0;
 591              		.loc 12 51 20 view .LVU155
 592 0108 83F82D1C 		strb	r1, [r3, #3117]
  52:stupidtest.cpp ****     }
 593              		.loc 12 52 20 view .LVU156
 594 010c C3F8201C 		str	r1, [r3, #3104]
 595              	.LVL37:
  52:stupidtest.cpp ****     }
 596              		.loc 12 52 20 view .LVU157
 597              	.LBE617:
 598              	.LBE618:
 204:stupidtest.cpp ****             }
 599              		.loc 12 204 17 is_stmt 1 view .LVU158
 204:stupidtest.cpp ****             }
 600              		.loc 12 204 18 is_stmt 0 view .LVU159
 601 0110 1060     		str	r0, [r2]
 602              		.loc 12 249 1 view .LVU160
 603 0112 38BD     		pop	{r3, r4, r5, pc}
 604              	.LVL38:
 605              	.L16:
 206:stupidtest.cpp ****         case 3:
 606              		.loc 12 206 19 is_stmt 1 view .LVU161
 207:stupidtest.cpp ****             if(button.RisingEdge() && !buffers[3].IsRecording()) {
 607              		.loc 12 207 9 view .LVU162
 208:stupidtest.cpp ****                 buffers[3].Record();
 608              		.loc 12 208 13 view .LVU163
 609              	.LBB619:
 610              	.LBI619:
  70:../../libDaisy//src/hid/switch.h **** 
 611              		.loc 3 70 17 view .LVU164
 612              	.LBB620:
  70:../../libDaisy//src/hid/switch.h **** 
 613              		.loc 3 70 38 view .LVU165
  70:../../libDaisy//src/hid/switch.h **** 
ARM GAS  /var/folders/hl/qgbwny5j0fd895c2c41bk3tw0000gp/T//ccnMoSgs.s 			page 32


 614              		.loc 3 70 45 is_stmt 0 view .LVU166
 615 0114 6D4B     		ldr	r3, .L88+4
  70:../../libDaisy//src/hid/switch.h **** 
 616              		.loc 3 70 54 view .LVU167
 617 0116 1979     		ldrb	r1, [r3, #4]	@ zero_extendqisi2
 618 0118 0029     		cmp	r1, #0
 619 011a B5D0     		beq	.L7
  70:../../libDaisy//src/hid/switch.h **** 
 620              		.loc 3 70 56 view .LVU168
 621 011c 9B7A     		ldrb	r3, [r3, #10]	@ zero_extendqisi2
 622              	.LVL39:
  70:../../libDaisy//src/hid/switch.h **** 
 623              		.loc 3 70 56 view .LVU169
 624              	.LBE620:
 625              	.LBE619:
 208:stupidtest.cpp ****                 buffers[3].Record();
 626              		.loc 12 208 36 view .LVU170
 627 011e 7F2B     		cmp	r3, #127
 628 0120 00F0AD80 		beq	.L84
 210:stupidtest.cpp ****                 buffers[3].Record(false);
 629              		.loc 12 210 20 is_stmt 1 view .LVU171
 630              	.LVL40:
 631              		.loc 3 75 9 view .LVU172
 210:stupidtest.cpp ****                 buffers[3].Record(false);
 632              		.loc 12 210 44 is_stmt 0 view .LVU173
 633 0124 802B     		cmp	r3, #128
 634 0126 AFD1     		bne	.L7
 635              	.LVL41:
 636              	.LBB621:
 637              	.LBI621:
 146:stupidtest.cpp **** 
 638              		.loc 12 146 10 is_stmt 1 view .LVU174
 639              	.LBB622:
 146:stupidtest.cpp **** 
 640              		.loc 12 146 39 is_stmt 0 view .LVU175
 641 0128 724B     		ldr	r3, .L88+44
 642              	.LBE622:
 643              	.LBE621:
 210:stupidtest.cpp ****                 buffers[3].Record(false);
 644              		.loc 12 210 44 view .LVU176
 645 012a 93F83D12 		ldrb	r1, [r3, #573]	@ zero_extendqisi2
 646 012e 0029     		cmp	r1, #0
 647 0130 AAD0     		beq	.L7
 211:stupidtest.cpp ****                 s++;
 648              		.loc 12 211 17 is_stmt 1 view .LVU177
 649              	.LVL42:
 650              	.LBB623:
 651              	.LBI623:
  45:stupidtest.cpp ****     {
 652              		.loc 12 45 10 view .LVU178
 653              	.LBB624:
  51:stupidtest.cpp ****         write_ptr_ = 0;
 654              		.loc 12 51 20 is_stmt 0 view .LVU179
 655 0132 0021     		movs	r1, #0
 656              	.LBE624:
 657              	.LBE623:
 212:stupidtest.cpp ****             }
ARM GAS  /var/folders/hl/qgbwny5j0fd895c2c41bk3tw0000gp/T//ccnMoSgs.s 			page 33


 658              		.loc 12 212 18 view .LVU180
 659 0134 0420     		movs	r0, #4
 660              	.LBB626:
 661              	.LBB625:
  51:stupidtest.cpp ****         write_ptr_ = 0;
 662              		.loc 12 51 20 view .LVU181
 663 0136 83F83D12 		strb	r1, [r3, #573]
  52:stupidtest.cpp ****     }
 664              		.loc 12 52 20 view .LVU182
 665 013a C3F83012 		str	r1, [r3, #560]
 666              	.LVL43:
  52:stupidtest.cpp ****     }
 667              		.loc 12 52 20 view .LVU183
 668              	.LBE625:
 669              	.LBE626:
 212:stupidtest.cpp ****             }
 670              		.loc 12 212 17 is_stmt 1 view .LVU184
 212:stupidtest.cpp ****             }
 671              		.loc 12 212 18 is_stmt 0 view .LVU185
 672 013e 1060     		str	r0, [r2]
 673              		.loc 12 249 1 view .LVU186
 674 0140 38BD     		pop	{r3, r4, r5, pc}
 675              	.LVL44:
 676              	.L15:
 214:stupidtest.cpp ****         case 4:
 677              		.loc 12 214 19 is_stmt 1 view .LVU187
 215:stupidtest.cpp ****             if(button.RisingEdge() && !buffers[4].IsRecording()) {
 678              		.loc 12 215 9 view .LVU188
 216:stupidtest.cpp ****                 buffers[4].Record();
 679              		.loc 12 216 13 view .LVU189
 680              	.LBB627:
 681              	.LBI627:
  70:../../libDaisy//src/hid/switch.h **** 
 682              		.loc 3 70 17 view .LVU190
 683              	.LBB628:
  70:../../libDaisy//src/hid/switch.h **** 
 684              		.loc 3 70 38 view .LVU191
  70:../../libDaisy//src/hid/switch.h **** 
 685              		.loc 3 70 45 is_stmt 0 view .LVU192
 686 0142 624B     		ldr	r3, .L88+4
  70:../../libDaisy//src/hid/switch.h **** 
 687              		.loc 3 70 54 view .LVU193
 688 0144 1979     		ldrb	r1, [r3, #4]	@ zero_extendqisi2
 689 0146 0029     		cmp	r1, #0
 690 0148 9ED0     		beq	.L7
  70:../../libDaisy//src/hid/switch.h **** 
 691              		.loc 3 70 56 view .LVU194
 692 014a 9B7A     		ldrb	r3, [r3, #10]	@ zero_extendqisi2
 693              	.LVL45:
  70:../../libDaisy//src/hid/switch.h **** 
 694              		.loc 3 70 56 view .LVU195
 695              	.LBE628:
 696              	.LBE627:
 216:stupidtest.cpp ****                 buffers[4].Record();
 697              		.loc 12 216 36 view .LVU196
 698 014c 7F2B     		cmp	r3, #127
 699 014e 00F08480 		beq	.L85
ARM GAS  /var/folders/hl/qgbwny5j0fd895c2c41bk3tw0000gp/T//ccnMoSgs.s 			page 34


 218:stupidtest.cpp ****                 buffers[4].Record(false);
 700              		.loc 12 218 20 is_stmt 1 view .LVU197
 701              	.LVL46:
 702              		.loc 3 75 9 view .LVU198
 218:stupidtest.cpp ****                 buffers[4].Record(false);
 703              		.loc 12 218 44 is_stmt 0 view .LVU199
 704 0152 802B     		cmp	r3, #128
 705 0154 98D1     		bne	.L7
 706              	.LVL47:
 707              	.LBB629:
 708              	.LBI629:
 146:stupidtest.cpp **** 
 709              		.loc 12 146 10 is_stmt 1 view .LVU200
 710              	.LBB630:
 146:stupidtest.cpp **** 
 711              		.loc 12 146 39 is_stmt 0 view .LVU201
 712 0156 684B     		ldr	r3, .L88+48
 713              	.LBE630:
 714              	.LBE629:
 218:stupidtest.cpp ****                 buffers[4].Record(false);
 715              		.loc 12 218 44 view .LVU202
 716 0158 93F84D18 		ldrb	r1, [r3, #2125]	@ zero_extendqisi2
 717 015c 0029     		cmp	r1, #0
 718 015e 93D0     		beq	.L7
 219:stupidtest.cpp ****                 s++;
 719              		.loc 12 219 17 is_stmt 1 view .LVU203
 720              	.LVL48:
 721              	.LBB631:
 722              	.LBI631:
  45:stupidtest.cpp ****     {
 723              		.loc 12 45 10 view .LVU204
 724              	.LBB632:
  51:stupidtest.cpp ****         write_ptr_ = 0;
 725              		.loc 12 51 20 is_stmt 0 view .LVU205
 726 0160 0021     		movs	r1, #0
 727              	.LBE632:
 728              	.LBE631:
 220:stupidtest.cpp ****             }
 729              		.loc 12 220 18 view .LVU206
 730 0162 0520     		movs	r0, #5
 731              	.LBB634:
 732              	.LBB633:
  51:stupidtest.cpp ****         write_ptr_ = 0;
 733              		.loc 12 51 20 view .LVU207
 734 0164 83F84D18 		strb	r1, [r3, #2125]
  52:stupidtest.cpp ****     }
 735              		.loc 12 52 20 view .LVU208
 736 0168 C3F84018 		str	r1, [r3, #2112]
 737              	.LVL49:
  52:stupidtest.cpp ****     }
 738              		.loc 12 52 20 view .LVU209
 739              	.LBE633:
 740              	.LBE634:
 220:stupidtest.cpp ****             }
 741              		.loc 12 220 17 is_stmt 1 view .LVU210
 220:stupidtest.cpp ****             }
 742              		.loc 12 220 18 is_stmt 0 view .LVU211
ARM GAS  /var/folders/hl/qgbwny5j0fd895c2c41bk3tw0000gp/T//ccnMoSgs.s 			page 35


 743 016c 1060     		str	r0, [r2]
 744              		.loc 12 249 1 view .LVU212
 745 016e 38BD     		pop	{r3, r4, r5, pc}
 746              	.LVL50:
 747              	.L14:
 222:stupidtest.cpp ****         case 5:
 748              		.loc 12 222 19 is_stmt 1 view .LVU213
 223:stupidtest.cpp ****             if(button.RisingEdge() && !buffers[5].IsRecording()) {
 749              		.loc 12 223 9 view .LVU214
 224:stupidtest.cpp ****                 buffers[5].Record();
 750              		.loc 12 224 13 view .LVU215
 751              	.LBB635:
 752              	.LBI635:
  70:../../libDaisy//src/hid/switch.h **** 
 753              		.loc 3 70 17 view .LVU216
 754              	.LBB636:
  70:../../libDaisy//src/hid/switch.h **** 
 755              		.loc 3 70 38 view .LVU217
  70:../../libDaisy//src/hid/switch.h **** 
 756              		.loc 3 70 45 is_stmt 0 view .LVU218
 757 0170 564B     		ldr	r3, .L88+4
  70:../../libDaisy//src/hid/switch.h **** 
 758              		.loc 3 70 54 view .LVU219
 759 0172 1979     		ldrb	r1, [r3, #4]	@ zero_extendqisi2
 760 0174 0029     		cmp	r1, #0
 761 0176 87D0     		beq	.L7
  70:../../libDaisy//src/hid/switch.h **** 
 762              		.loc 3 70 56 view .LVU220
 763 0178 9B7A     		ldrb	r3, [r3, #10]	@ zero_extendqisi2
 764              	.LVL51:
  70:../../libDaisy//src/hid/switch.h **** 
 765              		.loc 3 70 56 view .LVU221
 766              	.LBE636:
 767              	.LBE635:
 224:stupidtest.cpp ****                 buffers[5].Record();
 768              		.loc 12 224 36 view .LVU222
 769 017a 7F2B     		cmp	r3, #127
 770 017c 00F0C280 		beq	.L86
 226:stupidtest.cpp ****                 buffers[5].Record(false);
 771              		.loc 12 226 20 is_stmt 1 view .LVU223
 772              	.LVL52:
 773              		.loc 3 75 9 view .LVU224
 226:stupidtest.cpp ****                 buffers[5].Record(false);
 774              		.loc 12 226 44 is_stmt 0 view .LVU225
 775 0180 802B     		cmp	r3, #128
 776 0182 81D1     		bne	.L7
 777              	.LVL53:
 778              	.LBB637:
 779              	.LBI637:
 146:stupidtest.cpp **** 
 780              		.loc 12 146 10 is_stmt 1 view .LVU226
 781              	.LBB638:
 146:stupidtest.cpp **** 
 782              		.loc 12 146 39 is_stmt 0 view .LVU227
 783 0184 5D4B     		ldr	r3, .L88+52
 784              	.LBE638:
 785              	.LBE637:
ARM GAS  /var/folders/hl/qgbwny5j0fd895c2c41bk3tw0000gp/T//ccnMoSgs.s 			page 36


 226:stupidtest.cpp ****                 buffers[5].Record(false);
 786              		.loc 12 226 44 view .LVU228
 787 0186 93F85D1E 		ldrb	r1, [r3, #3677]	@ zero_extendqisi2
 788 018a 0029     		cmp	r1, #0
 789 018c 3FF47CAF 		beq	.L7
 227:stupidtest.cpp ****                 s++;
 790              		.loc 12 227 17 is_stmt 1 view .LVU229
 791              	.LVL54:
 792              	.LBB639:
 793              	.LBI639:
  45:stupidtest.cpp ****     {
 794              		.loc 12 45 10 view .LVU230
 795              	.LBB640:
  51:stupidtest.cpp ****         write_ptr_ = 0;
 796              		.loc 12 51 20 is_stmt 0 view .LVU231
 797 0190 0021     		movs	r1, #0
 798              	.LBE640:
 799              	.LBE639:
 228:stupidtest.cpp ****             }
 800              		.loc 12 228 18 view .LVU232
 801 0192 0620     		movs	r0, #6
 802              	.LBB642:
 803              	.LBB641:
  51:stupidtest.cpp ****         write_ptr_ = 0;
 804              		.loc 12 51 20 view .LVU233
 805 0194 83F85D1E 		strb	r1, [r3, #3677]
  52:stupidtest.cpp ****     }
 806              		.loc 12 52 20 view .LVU234
 807 0198 C3F8501E 		str	r1, [r3, #3664]
 808              	.LVL55:
  52:stupidtest.cpp ****     }
 809              		.loc 12 52 20 view .LVU235
 810              	.LBE641:
 811              	.LBE642:
 228:stupidtest.cpp ****             }
 812              		.loc 12 228 17 is_stmt 1 view .LVU236
 228:stupidtest.cpp ****             }
 813              		.loc 12 228 18 is_stmt 0 view .LVU237
 814 019c 1060     		str	r0, [r2]
 815              		.loc 12 249 1 view .LVU238
 816 019e 38BD     		pop	{r3, r4, r5, pc}
 817              	.LVL56:
 818              	.L13:
 230:stupidtest.cpp ****         case 6:
 819              		.loc 12 230 19 is_stmt 1 view .LVU239
 231:stupidtest.cpp ****             if(button.RisingEdge() && !buffers[6].IsRecording()) {
 820              		.loc 12 231 9 view .LVU240
 232:stupidtest.cpp ****                 buffers[6].Record();
 821              		.loc 12 232 13 view .LVU241
 822              	.LBB643:
 823              	.LBI643:
  70:../../libDaisy//src/hid/switch.h **** 
 824              		.loc 3 70 17 view .LVU242
 825              	.LBB644:
  70:../../libDaisy//src/hid/switch.h **** 
 826              		.loc 3 70 38 view .LVU243
  70:../../libDaisy//src/hid/switch.h **** 
ARM GAS  /var/folders/hl/qgbwny5j0fd895c2c41bk3tw0000gp/T//ccnMoSgs.s 			page 37


 827              		.loc 3 70 45 is_stmt 0 view .LVU244
 828 01a0 4A4B     		ldr	r3, .L88+4
  70:../../libDaisy//src/hid/switch.h **** 
 829              		.loc 3 70 54 view .LVU245
 830 01a2 1979     		ldrb	r1, [r3, #4]	@ zero_extendqisi2
 831 01a4 0029     		cmp	r1, #0
 832 01a6 3FF46FAF 		beq	.L7
  70:../../libDaisy//src/hid/switch.h **** 
 833              		.loc 3 70 56 view .LVU246
 834 01aa 9B7A     		ldrb	r3, [r3, #10]	@ zero_extendqisi2
 835              	.LVL57:
  70:../../libDaisy//src/hid/switch.h **** 
 836              		.loc 3 70 56 view .LVU247
 837              	.LBE644:
 838              	.LBE643:
 232:stupidtest.cpp ****                 buffers[6].Record();
 839              		.loc 12 232 36 view .LVU248
 840 01ac 7F2B     		cmp	r3, #127
 841 01ae 78D0     		beq	.L87
 234:stupidtest.cpp ****                 buffers[6].Record(false);
 842              		.loc 12 234 20 is_stmt 1 view .LVU249
 843              	.LVL58:
 844              		.loc 3 75 9 view .LVU250
 234:stupidtest.cpp ****                 buffers[6].Record(false);
 845              		.loc 12 234 44 is_stmt 0 view .LVU251
 846 01b0 802B     		cmp	r3, #128
 847 01b2 7FF469AF 		bne	.L7
 848              	.LVL59:
 849              	.LBB645:
 850              	.LBI645:
 146:stupidtest.cpp **** 
 851              		.loc 12 146 10 is_stmt 1 view .LVU252
 852              	.LBB646:
 146:stupidtest.cpp **** 
 853              		.loc 12 146 39 is_stmt 0 view .LVU253
 854 01b6 524B     		ldr	r3, .L88+56
 855              	.LBE646:
 856              	.LBE645:
 234:stupidtest.cpp ****                 buffers[6].Record(false);
 857              		.loc 12 234 44 view .LVU254
 858 01b8 93F86D14 		ldrb	r1, [r3, #1133]	@ zero_extendqisi2
 859 01bc 0029     		cmp	r1, #0
 860 01be 3FF463AF 		beq	.L7
 235:stupidtest.cpp ****                 s++;
 861              		.loc 12 235 17 is_stmt 1 view .LVU255
 862              	.LVL60:
 863              	.LBB647:
 864              	.LBI647:
  45:stupidtest.cpp ****     {
 865              		.loc 12 45 10 view .LVU256
 866              	.LBB648:
  51:stupidtest.cpp ****         write_ptr_ = 0;
 867              		.loc 12 51 20 is_stmt 0 view .LVU257
 868 01c2 0021     		movs	r1, #0
 869              	.LBE648:
 870              	.LBE647:
 236:stupidtest.cpp ****             }
ARM GAS  /var/folders/hl/qgbwny5j0fd895c2c41bk3tw0000gp/T//ccnMoSgs.s 			page 38


 871              		.loc 12 236 18 view .LVU258
 872 01c4 0720     		movs	r0, #7
 873              	.LBB650:
 874              	.LBB649:
  51:stupidtest.cpp ****         write_ptr_ = 0;
 875              		.loc 12 51 20 view .LVU259
 876 01c6 83F86D14 		strb	r1, [r3, #1133]
  52:stupidtest.cpp ****     }
 877              		.loc 12 52 20 view .LVU260
 878 01ca C3F86014 		str	r1, [r3, #1120]
 879              	.LVL61:
  52:stupidtest.cpp ****     }
 880              		.loc 12 52 20 view .LVU261
 881              	.LBE649:
 882              	.LBE650:
 236:stupidtest.cpp ****             }
 883              		.loc 12 236 17 is_stmt 1 view .LVU262
 236:stupidtest.cpp ****             }
 884              		.loc 12 236 18 is_stmt 0 view .LVU263
 885 01ce 1060     		str	r0, [r2]
 886              		.loc 12 249 1 view .LVU264
 887 01d0 38BD     		pop	{r3, r4, r5, pc}
 888              	.LVL62:
 889              	.L20:
 186:stupidtest.cpp ****                 buffers[0].Record(false);
 890              		.loc 12 186 20 is_stmt 1 view .LVU265
 891              		.loc 3 75 9 view .LVU266
 186:stupidtest.cpp ****                 buffers[0].Record(false);
 892              		.loc 12 186 44 is_stmt 0 view .LVU267
 893 01d2 802B     		cmp	r3, #128
 894 01d4 7FF458AF 		bne	.L7
 895              	.LVL63:
 896              	.LBB651:
 897              	.LBI651:
 146:stupidtest.cpp **** 
 898              		.loc 12 146 10 is_stmt 1 view .LVU268
 899              	.LBB652:
 146:stupidtest.cpp **** 
 900              		.loc 12 146 39 is_stmt 0 view .LVU269
 901 01d8 3F4B     		ldr	r3, .L88+16
 902              	.LBE652:
 903              	.LBE651:
 186:stupidtest.cpp ****                 buffers[0].Record(false);
 904              		.loc 12 186 44 view .LVU270
 905 01da 597B     		ldrb	r1, [r3, #13]	@ zero_extendqisi2
 906 01dc 0029     		cmp	r1, #0
 907 01de 3FF453AF 		beq	.L7
 187:stupidtest.cpp ****                 s++;
 908              		.loc 12 187 17 is_stmt 1 view .LVU271
 909              	.LVL64:
 910              	.LBB653:
 911              	.LBI653:
  45:stupidtest.cpp ****     {
 912              		.loc 12 45 10 view .LVU272
 913              	.LBB654:
  51:stupidtest.cpp ****         write_ptr_ = 0;
 914              		.loc 12 51 20 is_stmt 0 view .LVU273
ARM GAS  /var/folders/hl/qgbwny5j0fd895c2c41bk3tw0000gp/T//ccnMoSgs.s 			page 39


 915 01e2 0021     		movs	r1, #0
 916              	.LBE654:
 917              	.LBE653:
 188:stupidtest.cpp ****             }
 918              		.loc 12 188 18 view .LVU274
 919 01e4 0120     		movs	r0, #1
 920              	.LBB656:
 921              	.LBB655:
  51:stupidtest.cpp ****         write_ptr_ = 0;
 922              		.loc 12 51 20 view .LVU275
 923 01e6 5973     		strb	r1, [r3, #13]
  52:stupidtest.cpp ****     }
 924              		.loc 12 52 20 view .LVU276
 925 01e8 1960     		str	r1, [r3]
 926              	.LVL65:
  52:stupidtest.cpp ****     }
 927              		.loc 12 52 20 view .LVU277
 928              	.LBE655:
 929              	.LBE656:
 188:stupidtest.cpp ****             }
 930              		.loc 12 188 17 is_stmt 1 view .LVU278
 188:stupidtest.cpp ****             }
 931              		.loc 12 188 18 is_stmt 0 view .LVU279
 932 01ea 1060     		str	r0, [r2]
 933              		.loc 12 249 1 view .LVU280
 934 01ec 38BD     		pop	{r3, r4, r5, pc}
 935              	.LVL66:
 936              	.L81:
 937              	.LBB657:
 938              	.LBI657:
 146:stupidtest.cpp **** 
 939              		.loc 12 146 10 is_stmt 1 view .LVU281
 940              	.LBB658:
 146:stupidtest.cpp **** 
 941              		.loc 12 146 39 is_stmt 0 view .LVU282
 942 01ee 3E4C     		ldr	r4, .L88+32
 943              	.LVL67:
 146:stupidtest.cpp **** 
 944              		.loc 12 146 39 view .LVU283
 945              	.LBE658:
 946              	.LBE657:
 240:stupidtest.cpp ****                 buffers[7].Record();
 947              		.loc 12 240 36 view .LVU284
 948 01f0 94F87D5A 		ldrb	r5, [r4, #2685]	@ zero_extendqisi2
 949              	.LVL68:
 240:stupidtest.cpp ****                 buffers[7].Record();
 950              		.loc 12 240 36 view .LVU285
 951 01f4 002D     		cmp	r5, #0
 952 01f6 7FF447AF 		bne	.L7
 953              	.LBB659:
 954              	.LBB660:
 955              	.LBB661:
 956              	.LBB662:
  41:stupidtest.cpp ****         }
 957              		.loc 12 41 24 view .LVU286
 958 01fa 3A4A     		ldr	r2, .L88+28
 959 01fc 2946     		mov	r1, r5
ARM GAS  /var/folders/hl/qgbwny5j0fd895c2c41bk3tw0000gp/T//ccnMoSgs.s 			page 40


 960 01fe 04F52860 		add	r0, r4, #2688
 961 0202 FFF7FEFF 		bl	memset
 962              	.LVL69:
 963              	.LBE662:
 964              	.LBE661:
  51:stupidtest.cpp ****         write_ptr_ = 0;
 965              		.loc 12 51 20 view .LVU287
 966 0206 0123     		movs	r3, #1
  52:stupidtest.cpp ****     }
 967              		.loc 12 52 20 view .LVU288
 968 0208 C4F8705A 		str	r5, [r4, #2672]
  51:stupidtest.cpp ****         write_ptr_ = 0;
 969              		.loc 12 51 20 view .LVU289
 970 020c 84F87D3A 		strb	r3, [r4, #2685]
 971              	.LBE660:
 972              	.LBE659:
 973              		.loc 12 249 1 view .LVU290
 974 0210 38BD     		pop	{r3, r4, r5, pc}
 975              	.LVL70:
 976              	.L83:
 977              	.LBB663:
 978              	.LBI663:
 146:stupidtest.cpp **** 
 979              		.loc 12 146 10 is_stmt 1 view .LVU291
 980              	.LBB664:
 146:stupidtest.cpp **** 
 981              		.loc 12 146 39 is_stmt 0 view .LVU292
 982 0212 374C     		ldr	r4, .L88+40
 983              	.LVL71:
 146:stupidtest.cpp **** 
 984              		.loc 12 146 39 view .LVU293
 985              	.LBE664:
 986              	.LBE663:
 200:stupidtest.cpp ****                 buffers[2].Record();
 987              		.loc 12 200 36 view .LVU294
 988 0214 94F82D5C 		ldrb	r5, [r4, #3117]	@ zero_extendqisi2
 989              	.LVL72:
 200:stupidtest.cpp ****                 buffers[2].Record();
 990              		.loc 12 200 36 view .LVU295
 991 0218 002D     		cmp	r5, #0
 992 021a 7FF435AF 		bne	.L7
 993              	.LBB665:
 994              	.LBB666:
 995              	.LBB667:
 996              	.LBB668:
  41:stupidtest.cpp ****         }
 997              		.loc 12 41 24 view .LVU296
 998 021e 314A     		ldr	r2, .L88+28
 999 0220 2946     		mov	r1, r5
 1000 0222 04F54360 		add	r0, r4, #3120
 1001 0226 FFF7FEFF 		bl	memset
 1002              	.LVL73:
 1003              	.LBE668:
 1004              	.LBE667:
  51:stupidtest.cpp ****         write_ptr_ = 0;
 1005              		.loc 12 51 20 view .LVU297
 1006 022a 0123     		movs	r3, #1
ARM GAS  /var/folders/hl/qgbwny5j0fd895c2c41bk3tw0000gp/T//ccnMoSgs.s 			page 41


  52:stupidtest.cpp ****     }
 1007              		.loc 12 52 20 view .LVU298
 1008 022c C4F8205C 		str	r5, [r4, #3104]
  51:stupidtest.cpp ****         write_ptr_ = 0;
 1009              		.loc 12 51 20 view .LVU299
 1010 0230 84F82D3C 		strb	r3, [r4, #3117]
 1011              	.LBE666:
 1012              	.LBE665:
 1013              		.loc 12 249 1 view .LVU300
 1014 0234 38BD     		pop	{r3, r4, r5, pc}
 1015              	.LVL74:
 1016              	.L82:
 1017              	.LBB669:
 1018              	.LBI669:
 146:stupidtest.cpp **** 
 1019              		.loc 12 146 10 is_stmt 1 view .LVU301
 1020              	.LBB670:
 146:stupidtest.cpp **** 
 1021              		.loc 12 146 39 is_stmt 0 view .LVU302
 1022 0236 2D4C     		ldr	r4, .L88+36
 1023              	.LVL75:
 146:stupidtest.cpp **** 
 1024              		.loc 12 146 39 view .LVU303
 1025              	.LBE670:
 1026              	.LBE669:
 192:stupidtest.cpp ****                 buffers[1].Record();
 1027              		.loc 12 192 36 view .LVU304
 1028 0238 94F81D56 		ldrb	r5, [r4, #1565]	@ zero_extendqisi2
 1029              	.LVL76:
 192:stupidtest.cpp ****                 buffers[1].Record();
 1030              		.loc 12 192 36 view .LVU305
 1031 023c 002D     		cmp	r5, #0
 1032 023e 7FF423AF 		bne	.L7
 1033              	.LBB671:
 1034              	.LBB672:
 1035              	.LBB673:
 1036              	.LBB674:
  41:stupidtest.cpp ****         }
 1037              		.loc 12 41 24 view .LVU306
 1038 0242 284A     		ldr	r2, .L88+28
 1039 0244 2946     		mov	r1, r5
 1040 0246 04F5C460 		add	r0, r4, #1568
 1041 024a FFF7FEFF 		bl	memset
 1042              	.LVL77:
 1043              	.LBE674:
 1044              	.LBE673:
  51:stupidtest.cpp ****         write_ptr_ = 0;
 1045              		.loc 12 51 20 view .LVU307
 1046 024e 0123     		movs	r3, #1
  52:stupidtest.cpp ****     }
 1047              		.loc 12 52 20 view .LVU308
 1048 0250 C4F81056 		str	r5, [r4, #1552]
  51:stupidtest.cpp ****         write_ptr_ = 0;
 1049              		.loc 12 51 20 view .LVU309
 1050 0254 84F81D36 		strb	r3, [r4, #1565]
 1051              	.LBE672:
 1052              	.LBE671:
ARM GAS  /var/folders/hl/qgbwny5j0fd895c2c41bk3tw0000gp/T//ccnMoSgs.s 			page 42


 1053              		.loc 12 249 1 view .LVU310
 1054 0258 38BD     		pop	{r3, r4, r5, pc}
 1055              	.LVL78:
 1056              	.L85:
 1057              	.LBB675:
 1058              	.LBI675:
 146:stupidtest.cpp **** 
 1059              		.loc 12 146 10 is_stmt 1 view .LVU311
 1060              	.LBB676:
 146:stupidtest.cpp **** 
 1061              		.loc 12 146 39 is_stmt 0 view .LVU312
 1062 025a 274C     		ldr	r4, .L88+48
 1063              	.LVL79:
 146:stupidtest.cpp **** 
 1064              		.loc 12 146 39 view .LVU313
 1065              	.LBE676:
 1066              	.LBE675:
 216:stupidtest.cpp ****                 buffers[4].Record();
 1067              		.loc 12 216 36 view .LVU314
 1068 025c 94F84D58 		ldrb	r5, [r4, #2125]	@ zero_extendqisi2
 1069              	.LVL80:
 216:stupidtest.cpp ****                 buffers[4].Record();
 1070              		.loc 12 216 36 view .LVU315
 1071 0260 002D     		cmp	r5, #0
 1072 0262 7FF411AF 		bne	.L7
 1073              	.LBB677:
 1074              	.LBB678:
 1075              	.LBB679:
 1076              	.LBB680:
  41:stupidtest.cpp ****         }
 1077              		.loc 12 41 24 view .LVU316
 1078 0266 1F4A     		ldr	r2, .L88+28
 1079 0268 2946     		mov	r1, r5
 1080 026a 04F50560 		add	r0, r4, #2128
 1081 026e FFF7FEFF 		bl	memset
 1082              	.LVL81:
 1083              	.LBE680:
 1084              	.LBE679:
  51:stupidtest.cpp ****         write_ptr_ = 0;
 1085              		.loc 12 51 20 view .LVU317
 1086 0272 0123     		movs	r3, #1
  52:stupidtest.cpp ****     }
 1087              		.loc 12 52 20 view .LVU318
 1088 0274 C4F84058 		str	r5, [r4, #2112]
  51:stupidtest.cpp ****         write_ptr_ = 0;
 1089              		.loc 12 51 20 view .LVU319
 1090 0278 84F84D38 		strb	r3, [r4, #2125]
 1091              	.LBE678:
 1092              	.LBE677:
 1093              		.loc 12 249 1 view .LVU320
 1094 027c 38BD     		pop	{r3, r4, r5, pc}
 1095              	.LVL82:
 1096              	.L84:
 1097              	.LBB681:
 1098              	.LBI681:
 146:stupidtest.cpp **** 
 1099              		.loc 12 146 10 is_stmt 1 view .LVU321
ARM GAS  /var/folders/hl/qgbwny5j0fd895c2c41bk3tw0000gp/T//ccnMoSgs.s 			page 43


 1100              	.LBB682:
 146:stupidtest.cpp **** 
 1101              		.loc 12 146 39 is_stmt 0 view .LVU322
 1102 027e 1D4C     		ldr	r4, .L88+44
 1103              	.LVL83:
 146:stupidtest.cpp **** 
 1104              		.loc 12 146 39 view .LVU323
 1105              	.LBE682:
 1106              	.LBE681:
 208:stupidtest.cpp ****                 buffers[3].Record();
 1107              		.loc 12 208 36 view .LVU324
 1108 0280 94F83D52 		ldrb	r5, [r4, #573]	@ zero_extendqisi2
 1109              	.LVL84:
 208:stupidtest.cpp ****                 buffers[3].Record();
 1110              		.loc 12 208 36 view .LVU325
 1111 0284 002D     		cmp	r5, #0
 1112 0286 7FF4FFAE 		bne	.L7
 1113              	.LBB683:
 1114              	.LBB684:
 1115              	.LBB685:
 1116              	.LBB686:
  41:stupidtest.cpp ****         }
 1117              		.loc 12 41 24 view .LVU326
 1118 028a 164A     		ldr	r2, .L88+28
 1119 028c 2946     		mov	r1, r5
 1120 028e 04F51070 		add	r0, r4, #576
 1121 0292 FFF7FEFF 		bl	memset
 1122              	.LVL85:
 1123              	.LBE686:
 1124              	.LBE685:
  51:stupidtest.cpp ****         write_ptr_ = 0;
 1125              		.loc 12 51 20 view .LVU327
 1126 0296 0123     		movs	r3, #1
  52:stupidtest.cpp ****     }
 1127              		.loc 12 52 20 view .LVU328
 1128 0298 C4F83052 		str	r5, [r4, #560]
  51:stupidtest.cpp ****         write_ptr_ = 0;
 1129              		.loc 12 51 20 view .LVU329
 1130 029c 84F83D32 		strb	r3, [r4, #573]
 1131              	.LBE684:
 1132              	.LBE683:
 1133              		.loc 12 249 1 view .LVU330
 1134 02a0 38BD     		pop	{r3, r4, r5, pc}
 1135              	.LVL86:
 1136              	.L87:
 1137              	.LBB687:
 1138              	.LBI687:
 146:stupidtest.cpp **** 
 1139              		.loc 12 146 10 is_stmt 1 view .LVU331
 1140              	.LBB688:
 146:stupidtest.cpp **** 
 1141              		.loc 12 146 39 is_stmt 0 view .LVU332
 1142 02a2 174C     		ldr	r4, .L88+56
 1143              	.LVL87:
 146:stupidtest.cpp **** 
 1144              		.loc 12 146 39 view .LVU333
 1145              	.LBE688:
ARM GAS  /var/folders/hl/qgbwny5j0fd895c2c41bk3tw0000gp/T//ccnMoSgs.s 			page 44


 1146              	.LBE687:
 232:stupidtest.cpp ****                 buffers[6].Record();
 1147              		.loc 12 232 36 view .LVU334
 1148 02a4 94F86D54 		ldrb	r5, [r4, #1133]	@ zero_extendqisi2
 1149              	.LVL88:
 232:stupidtest.cpp ****                 buffers[6].Record();
 1150              		.loc 12 232 36 view .LVU335
 1151 02a8 002D     		cmp	r5, #0
 1152 02aa 7FF4EDAE 		bne	.L7
 1153              	.LBB689:
 1154              	.LBB690:
 1155              	.LBB691:
 1156              	.LBB692:
  41:stupidtest.cpp ****         }
 1157              		.loc 12 41 24 view .LVU336
 1158 02ae 0D4A     		ldr	r2, .L88+28
 1159 02b0 2946     		mov	r1, r5
 1160 02b2 04F58E60 		add	r0, r4, #1136
 1161 02b6 FFF7FEFF 		bl	memset
 1162              	.LVL89:
 1163              	.LBE692:
 1164              	.LBE691:
  51:stupidtest.cpp ****         write_ptr_ = 0;
 1165              		.loc 12 51 20 view .LVU337
 1166 02ba 0123     		movs	r3, #1
  52:stupidtest.cpp ****     }
 1167              		.loc 12 52 20 view .LVU338
 1168 02bc C4F86054 		str	r5, [r4, #1120]
  51:stupidtest.cpp ****         write_ptr_ = 0;
 1169              		.loc 12 51 20 view .LVU339
 1170 02c0 84F86D34 		strb	r3, [r4, #1133]
 1171              	.LBE690:
 1172              	.LBE689:
 1173              		.loc 12 249 1 view .LVU340
 1174 02c4 38BD     		pop	{r3, r4, r5, pc}
 1175              	.L89:
 1176 02c6 00BF     		.align	2
 1177              	.L88:
 1178 02c8 00000000 		.word	.LANCHOR0
 1179 02cc 00000000 		.word	.LANCHOR1
 1180 02d0 00000000 		.word	.LANCHOR2
 1181 02d4 B7010000 		.word	.LANCHOR0+439
 1182 02d8 00000000 		.word	buffers
 1183 02dc 10A60E00 		.word	960016
 1184 02e0 00000000 		.word	.LANCHOR3
 1185 02e4 00A60E00 		.word	960000
 1186 02e8 00806600 		.word	buffers+6717440
 1187 02ec 00A00E00 		.word	buffers+958464
 1188 02f0 00401D00 		.word	buffers+1916928
 1189 02f4 00F02B00 		.word	buffers+2879488
 1190 02f8 00903A00 		.word	buffers+3837952
 1191 02fc 00304900 		.word	buffers+4796416
 1192 0300 00E05700 		.word	buffers+5758976
 1193              	.LVL90:
 1194              	.L86:
 1195              	.LBB693:
 1196              	.LBI693:
ARM GAS  /var/folders/hl/qgbwny5j0fd895c2c41bk3tw0000gp/T//ccnMoSgs.s 			page 45


 146:stupidtest.cpp **** 
 1197              		.loc 12 146 10 is_stmt 1 view .LVU341
 1198              	.LBB694:
 146:stupidtest.cpp **** 
 1199              		.loc 12 146 39 is_stmt 0 view .LVU342
 1200 0304 084C     		ldr	r4, .L90
 1201              	.LVL91:
 146:stupidtest.cpp **** 
 1202              		.loc 12 146 39 view .LVU343
 1203              	.LBE694:
 1204              	.LBE693:
 224:stupidtest.cpp ****                 buffers[5].Record();
 1205              		.loc 12 224 36 view .LVU344
 1206 0306 94F85D5E 		ldrb	r5, [r4, #3677]	@ zero_extendqisi2
 1207              	.LVL92:
 224:stupidtest.cpp ****                 buffers[5].Record();
 1208              		.loc 12 224 36 view .LVU345
 1209 030a 002D     		cmp	r5, #0
 1210 030c 7FF4BCAE 		bne	.L7
 1211              	.LBB695:
 1212              	.LBB696:
 1213              	.LBB697:
 1214              	.LBB698:
  41:stupidtest.cpp ****         }
 1215              		.loc 12 41 24 view .LVU346
 1216 0310 064A     		ldr	r2, .L90+4
 1217 0312 2946     		mov	r1, r5
 1218 0314 04F56660 		add	r0, r4, #3680
 1219 0318 FFF7FEFF 		bl	memset
 1220              	.LVL93:
 1221              	.LBE698:
 1222              	.LBE697:
  51:stupidtest.cpp ****         write_ptr_ = 0;
 1223              		.loc 12 51 20 view .LVU347
 1224 031c 0123     		movs	r3, #1
  52:stupidtest.cpp ****     }
 1225              		.loc 12 52 20 view .LVU348
 1226 031e C4F8505E 		str	r5, [r4, #3664]
  51:stupidtest.cpp ****         write_ptr_ = 0;
 1227              		.loc 12 51 20 view .LVU349
 1228 0322 84F85D3E 		strb	r3, [r4, #3677]
 1229              	.LBE696:
 1230              	.LBE695:
 1231              		.loc 12 249 1 view .LVU350
 1232 0326 38BD     		pop	{r3, r4, r5, pc}
 1233              	.L91:
 1234              		.align	2
 1235              	.L90:
 1236 0328 00304900 		.word	buffers+4796416
 1237 032c 00A60E00 		.word	960000
 1238              		.cfi_endproc
 1239              	.LFE4843:
 1241              		.section	.text._Z13AudioCallbackPKPKfPPfj,"ax",%progbits
 1242              		.align	1
 1243              		.p2align 2,,3
 1244              		.global	_Z13AudioCallbackPKPKfPPfj
 1245              		.syntax unified
ARM GAS  /var/folders/hl/qgbwny5j0fd895c2c41bk3tw0000gp/T//ccnMoSgs.s 			page 46


 1246              		.thumb
 1247              		.thumb_func
 1248              		.fpu fpv5-d16
 1250              	_Z13AudioCallbackPKPKfPPfj:
 1251              	.LVL94:
 1252              	.LFB4845:
 250:stupidtest.cpp **** 
 251:stupidtest.cpp **** void AudioCallback(AudioHandle::InputBuffer in, AudioHandle::OutputBuffer out, size_t size)
 252:stupidtest.cpp **** {   
 1253              		.loc 12 252 1 is_stmt 1 view -0
 1254              		.cfi_startproc
 1255              		@ args = 0, pretend = 0, frame = 16
 1256              		@ frame_needed = 0, uses_anonymous_args = 0
 253:stupidtest.cpp **** 	getSamples();
 1257              		.loc 12 253 2 view .LVU352
 252:stupidtest.cpp **** 	getSamples();
 1258              		.loc 12 252 1 is_stmt 0 view .LVU353
 1259 0000 2DE9F04F 		push	{r4, r5, r6, r7, r8, r9, r10, fp, lr}
 1260              		.cfi_def_cfa_offset 36
 1261              		.cfi_offset 4, -36
 1262              		.cfi_offset 5, -32
 1263              		.cfi_offset 6, -28
 1264              		.cfi_offset 7, -24
 1265              		.cfi_offset 8, -20
 1266              		.cfi_offset 9, -16
 1267              		.cfi_offset 10, -12
 1268              		.cfi_offset 11, -8
 1269              		.cfi_offset 14, -4
 1270 0004 2DED048B 		vpush.64	{d8, d9}
 1271              		.cfi_def_cfa_offset 52
 1272              		.cfi_offset 80, -52
 1273              		.cfi_offset 81, -48
 1274              		.cfi_offset 82, -44
 1275              		.cfi_offset 83, -40
 1276 0008 87B0     		sub	sp, sp, #28
 1277              		.cfi_def_cfa_offset 80
 1278              	.LBB761:
 1279              	.LBB762:
 1280              		.file 13 "../../DaisySP//Source/Utility/dsp.h"
   1:../../DaisySP//Source/Utility/dsp.h **** /** Helpful defines, functions, and other utilities for use in/with daisysp modules.
   2:../../DaisySP//Source/Utility/dsp.h **** */
   3:../../DaisySP//Source/Utility/dsp.h **** #pragma once
   4:../../DaisySP//Source/Utility/dsp.h **** #ifndef DSY_CORE_DSP
   5:../../DaisySP//Source/Utility/dsp.h **** #define DSY_CORE_DSP
   6:../../DaisySP//Source/Utility/dsp.h **** #include <cassert>
   7:../../DaisySP//Source/Utility/dsp.h **** #include <cstdint>
   8:../../DaisySP//Source/Utility/dsp.h **** #include <random>
   9:../../DaisySP//Source/Utility/dsp.h **** #include <cmath>
  10:../../DaisySP//Source/Utility/dsp.h **** 
  11:../../DaisySP//Source/Utility/dsp.h **** /** PIs
  12:../../DaisySP//Source/Utility/dsp.h **** */
  13:../../DaisySP//Source/Utility/dsp.h **** #define PI_F 3.1415927410125732421875f
  14:../../DaisySP//Source/Utility/dsp.h **** #define TWOPI_F (2.0f * PI_F)
  15:../../DaisySP//Source/Utility/dsp.h **** #define HALFPI_F (PI_F * 0.5f)
  16:../../DaisySP//Source/Utility/dsp.h **** #define DSY_MIN(in, mn) (in < mn ? in : mn)
  17:../../DaisySP//Source/Utility/dsp.h **** #define DSY_MAX(in, mx) (in > mx ? in : mx)
  18:../../DaisySP//Source/Utility/dsp.h **** #define DSY_CLAMP(in, mn, mx) (DSY_MIN(DSY_MAX(in, mn), mx))
ARM GAS  /var/folders/hl/qgbwny5j0fd895c2c41bk3tw0000gp/T//ccnMoSgs.s 			page 47


  19:../../DaisySP//Source/Utility/dsp.h **** #define DSY_COUNTOF(_arr) (sizeof(_arr) / sizeof(_arr[0]))
  20:../../DaisySP//Source/Utility/dsp.h **** 
  21:../../DaisySP//Source/Utility/dsp.h **** namespace daisysp
  22:../../DaisySP//Source/Utility/dsp.h **** {
  23:../../DaisySP//Source/Utility/dsp.h **** //Avoids division for random floats. e.g. rand() * kRandFrac
  24:../../DaisySP//Source/Utility/dsp.h **** static constexpr float kRandFrac = 1.f / (float)RAND_MAX;
  25:../../DaisySP//Source/Utility/dsp.h **** 
  26:../../DaisySP//Source/Utility/dsp.h **** //Convert from semitones to other units. e.g. 2 ^ (kOneTwelfth * x)
  27:../../DaisySP//Source/Utility/dsp.h **** static constexpr float kOneTwelfth = 1.f / 12.f;
  28:../../DaisySP//Source/Utility/dsp.h **** 
  29:../../DaisySP//Source/Utility/dsp.h **** /** efficient floating point min/max
  30:../../DaisySP//Source/Utility/dsp.h **** c/o stephen mccaul
  31:../../DaisySP//Source/Utility/dsp.h **** */
  32:../../DaisySP//Source/Utility/dsp.h **** inline float fmax(float a, float b)
  33:../../DaisySP//Source/Utility/dsp.h **** {
  34:../../DaisySP//Source/Utility/dsp.h ****     float r;
  35:../../DaisySP//Source/Utility/dsp.h **** #ifdef __arm__
  36:../../DaisySP//Source/Utility/dsp.h ****     asm("vmaxnm.f32 %[d], %[n], %[m]" : [d] "=t"(r) : [n] "t"(a), [m] "t"(b) :);
  37:../../DaisySP//Source/Utility/dsp.h **** #else
  38:../../DaisySP//Source/Utility/dsp.h ****     r = (a > b) ? a : b;
  39:../../DaisySP//Source/Utility/dsp.h **** #endif // __arm__
  40:../../DaisySP//Source/Utility/dsp.h ****     return r;
  41:../../DaisySP//Source/Utility/dsp.h **** }
  42:../../DaisySP//Source/Utility/dsp.h **** 
  43:../../DaisySP//Source/Utility/dsp.h **** inline float fmin(float a, float b)
  44:../../DaisySP//Source/Utility/dsp.h **** {
  45:../../DaisySP//Source/Utility/dsp.h ****     float r;
  46:../../DaisySP//Source/Utility/dsp.h **** #ifdef __arm__
  47:../../DaisySP//Source/Utility/dsp.h ****     asm("vminnm.f32 %[d], %[n], %[m]" : [d] "=t"(r) : [n] "t"(a), [m] "t"(b) :);
  48:../../DaisySP//Source/Utility/dsp.h **** #else
  49:../../DaisySP//Source/Utility/dsp.h ****     r = (a < b) ? a : b;
  50:../../DaisySP//Source/Utility/dsp.h **** #endif // __arm__
  51:../../DaisySP//Source/Utility/dsp.h ****     return r;
  52:../../DaisySP//Source/Utility/dsp.h **** }
  53:../../DaisySP//Source/Utility/dsp.h **** 
  54:../../DaisySP//Source/Utility/dsp.h **** /** quick fp clamp
  55:../../DaisySP//Source/Utility/dsp.h **** */
  56:../../DaisySP//Source/Utility/dsp.h **** inline float fclamp(float in, float min, float max)
  57:../../DaisySP//Source/Utility/dsp.h **** {
  58:../../DaisySP//Source/Utility/dsp.h ****     return fmin(fmax(in, min), max);
  59:../../DaisySP//Source/Utility/dsp.h **** }
  60:../../DaisySP//Source/Utility/dsp.h **** 
  61:../../DaisySP//Source/Utility/dsp.h **** /** From Musicdsp.org "Fast power and root estimates for 32bit floats)
  62:../../DaisySP//Source/Utility/dsp.h **** Original code by Stefan Stenzel
  63:../../DaisySP//Source/Utility/dsp.h **** These are approximations
  64:../../DaisySP//Source/Utility/dsp.h **** */
  65:../../DaisySP//Source/Utility/dsp.h **** inline float fastpower(float f, int n)
  66:../../DaisySP//Source/Utility/dsp.h **** {
  67:../../DaisySP//Source/Utility/dsp.h ****     long *lp, l;
  68:../../DaisySP//Source/Utility/dsp.h ****     lp = (long *)(&f);
  69:../../DaisySP//Source/Utility/dsp.h ****     l  = *lp;
  70:../../DaisySP//Source/Utility/dsp.h ****     l -= 0x3F800000;
  71:../../DaisySP//Source/Utility/dsp.h ****     l <<= (n - 1);
  72:../../DaisySP//Source/Utility/dsp.h ****     l += 0x3F800000;
  73:../../DaisySP//Source/Utility/dsp.h ****     *lp = l;
  74:../../DaisySP//Source/Utility/dsp.h ****     return f;
  75:../../DaisySP//Source/Utility/dsp.h **** }
ARM GAS  /var/folders/hl/qgbwny5j0fd895c2c41bk3tw0000gp/T//ccnMoSgs.s 			page 48


  76:../../DaisySP//Source/Utility/dsp.h **** 
  77:../../DaisySP//Source/Utility/dsp.h **** inline float fastroot(float f, int n)
  78:../../DaisySP//Source/Utility/dsp.h **** {
  79:../../DaisySP//Source/Utility/dsp.h ****     long *lp, l;
  80:../../DaisySP//Source/Utility/dsp.h ****     lp = (long *)(&f);
  81:../../DaisySP//Source/Utility/dsp.h ****     l  = *lp;
  82:../../DaisySP//Source/Utility/dsp.h ****     l -= 0x3F800000;
  83:../../DaisySP//Source/Utility/dsp.h ****     l >>= (n = 1);
  84:../../DaisySP//Source/Utility/dsp.h ****     l += 0x3F800000;
  85:../../DaisySP//Source/Utility/dsp.h ****     *lp = l;
  86:../../DaisySP//Source/Utility/dsp.h ****     return f;
  87:../../DaisySP//Source/Utility/dsp.h **** }
  88:../../DaisySP//Source/Utility/dsp.h **** 
  89:../../DaisySP//Source/Utility/dsp.h **** /** From http://openaudio.blogspot.com/2017/02/faster-log10-and-pow.html
  90:../../DaisySP//Source/Utility/dsp.h **** No approximation, pow10f(x) gives a 90% speed increase over powf(10.f, x)
  91:../../DaisySP//Source/Utility/dsp.h **** */
  92:../../DaisySP//Source/Utility/dsp.h **** inline float pow10f(float f)
  93:../../DaisySP//Source/Utility/dsp.h **** {
  94:../../DaisySP//Source/Utility/dsp.h ****     return expf(2.302585092994046f * f);
  95:../../DaisySP//Source/Utility/dsp.h **** }
  96:../../DaisySP//Source/Utility/dsp.h **** 
  97:../../DaisySP//Source/Utility/dsp.h **** /* Original code for fastlog2f by Dr. Paul Beckmann from the ARM community forum, adapted from the 
  98:../../DaisySP//Source/Utility/dsp.h **** About 25% performance increase over std::log10f
  99:../../DaisySP//Source/Utility/dsp.h **** */
 100:../../DaisySP//Source/Utility/dsp.h **** inline float fastlog2f(float f)
 101:../../DaisySP//Source/Utility/dsp.h **** {
 102:../../DaisySP//Source/Utility/dsp.h ****     float frac;
 103:../../DaisySP//Source/Utility/dsp.h ****     int   exp;
 104:../../DaisySP//Source/Utility/dsp.h ****     frac = frexpf(fabsf(f), &exp);
 105:../../DaisySP//Source/Utility/dsp.h ****     f    = 1.23149591368684f;
 106:../../DaisySP//Source/Utility/dsp.h ****     f *= frac;
 107:../../DaisySP//Source/Utility/dsp.h ****     f += -4.11852516267426f;
 108:../../DaisySP//Source/Utility/dsp.h ****     f *= frac;
 109:../../DaisySP//Source/Utility/dsp.h ****     f += 6.02197014179219f;
 110:../../DaisySP//Source/Utility/dsp.h ****     f *= frac;
 111:../../DaisySP//Source/Utility/dsp.h ****     f += -3.13396450166353f;
 112:../../DaisySP//Source/Utility/dsp.h ****     f += exp;
 113:../../DaisySP//Source/Utility/dsp.h ****     return (f);
 114:../../DaisySP//Source/Utility/dsp.h **** }
 115:../../DaisySP//Source/Utility/dsp.h **** 
 116:../../DaisySP//Source/Utility/dsp.h **** inline float fastlog10f(float f)
 117:../../DaisySP//Source/Utility/dsp.h **** {
 118:../../DaisySP//Source/Utility/dsp.h ****     return fastlog2f(f) * 0.3010299956639812f;
 119:../../DaisySP//Source/Utility/dsp.h **** }
 120:../../DaisySP//Source/Utility/dsp.h **** 
 121:../../DaisySP//Source/Utility/dsp.h **** /** Midi to frequency helper
 122:../../DaisySP//Source/Utility/dsp.h **** */
 123:../../DaisySP//Source/Utility/dsp.h **** inline float mtof(float m)
 124:../../DaisySP//Source/Utility/dsp.h **** {
 125:../../DaisySP//Source/Utility/dsp.h ****     return powf(2, (m - 69.0f) / 12.0f) * 440.0f;
 126:../../DaisySP//Source/Utility/dsp.h **** }
 127:../../DaisySP//Source/Utility/dsp.h **** 
 128:../../DaisySP//Source/Utility/dsp.h **** 
 129:../../DaisySP//Source/Utility/dsp.h **** /** one pole lpf
 130:../../DaisySP//Source/Utility/dsp.h **** out is passed by reference, and must be retained between
 131:../../DaisySP//Source/Utility/dsp.h **** calls to properly filter the signal
 132:../../DaisySP//Source/Utility/dsp.h **** coeff can be calculated:
ARM GAS  /var/folders/hl/qgbwny5j0fd895c2c41bk3tw0000gp/T//ccnMoSgs.s 			page 49


 133:../../DaisySP//Source/Utility/dsp.h **** coeff = 1.0 / (time * sample_rate) ; where time is in seconds
 134:../../DaisySP//Source/Utility/dsp.h **** */
 135:../../DaisySP//Source/Utility/dsp.h **** inline void fonepole(float &out, float in, float coeff)
 136:../../DaisySP//Source/Utility/dsp.h **** {
 137:../../DaisySP//Source/Utility/dsp.h ****     out += coeff * (in - out);
 138:../../DaisySP//Source/Utility/dsp.h **** }
 139:../../DaisySP//Source/Utility/dsp.h **** 
 140:../../DaisySP//Source/Utility/dsp.h **** /** Curves to use with the fmap function */
 141:../../DaisySP//Source/Utility/dsp.h **** enum class Mapping
 142:../../DaisySP//Source/Utility/dsp.h **** {
 143:../../DaisySP//Source/Utility/dsp.h ****     LINEAR,
 144:../../DaisySP//Source/Utility/dsp.h ****     EXP,
 145:../../DaisySP//Source/Utility/dsp.h ****     LOG,
 146:../../DaisySP//Source/Utility/dsp.h **** };
 147:../../DaisySP//Source/Utility/dsp.h **** 
 148:../../DaisySP//Source/Utility/dsp.h **** /** Maps a float between a specified range, using a specified curve. 
 149:../../DaisySP//Source/Utility/dsp.h ****  * 
 150:../../DaisySP//Source/Utility/dsp.h ****  *  \param in a value between 0 to 1 that will be mapped to the new range.
 151:../../DaisySP//Source/Utility/dsp.h ****  *  \param min the new minimum value
 152:../../DaisySP//Source/Utility/dsp.h ****  *  \param max the new maxmimum value
 153:../../DaisySP//Source/Utility/dsp.h ****  *  \param curve a Mapping Value to adjust the response curve of the transformation
 154:../../DaisySP//Source/Utility/dsp.h ****  *               defaults to Linear. @see Mapping
 155:../../DaisySP//Source/Utility/dsp.h ****  * 
 156:../../DaisySP//Source/Utility/dsp.h ****  *  When using the log curve min and max, must be greater than zero.
 157:../../DaisySP//Source/Utility/dsp.h ****  * 
 158:../../DaisySP//Source/Utility/dsp.h ****  *  \retval returns the transformed float within the new range.
 159:../../DaisySP//Source/Utility/dsp.h **** */
 160:../../DaisySP//Source/Utility/dsp.h **** inline float
 161:../../DaisySP//Source/Utility/dsp.h **** fmap(float in, float min, float max, Mapping curve = Mapping::LINEAR)
 162:../../DaisySP//Source/Utility/dsp.h **** {
 163:../../DaisySP//Source/Utility/dsp.h ****     switch(curve)
 164:../../DaisySP//Source/Utility/dsp.h ****     {
 165:../../DaisySP//Source/Utility/dsp.h ****         case Mapping::EXP:
 166:../../DaisySP//Source/Utility/dsp.h ****             return fclamp(min + (in * in) * (max - min), min, max);
 167:../../DaisySP//Source/Utility/dsp.h ****         case Mapping::LOG:
 168:../../DaisySP//Source/Utility/dsp.h ****         {
 169:../../DaisySP//Source/Utility/dsp.h ****             const float a = 1.f / log10f(max / min);
 170:../../DaisySP//Source/Utility/dsp.h ****             return fclamp(min * powf(10, in / a), min, max);
 171:../../DaisySP//Source/Utility/dsp.h ****         }
 172:../../DaisySP//Source/Utility/dsp.h ****         case Mapping::LINEAR:
 173:../../DaisySP//Source/Utility/dsp.h ****         default: return fclamp(min + in * (max - min), min, max);
 1281              		.loc 13 173 31 view .LVU354
 1282 000a 9FED889A 		vldr.32	s18, .L111
 1283              	.LBE762:
 1284              	.LBE761:
 252:stupidtest.cpp **** 	getSamples();
 1285              		.loc 12 252 1 view .LVU355
 1286 000e 1446     		mov	r4, r2
 1287 0010 8046     		mov	r8, r0
 1288 0012 0392     		str	r2, [sp, #12]
 1289 0014 0E46     		mov	r6, r1
 1290              		.loc 12 253 12 view .LVU356
 1291 0016 FFF7FEFF 		bl	_Z10getSamplesv
 1292              	.LVL95:
 254:stupidtest.cpp **** 
 255:stupidtest.cpp ****     /** Update Params with the four knobs */
 256:stupidtest.cpp ****     float time_knob     = hw.GetAdcValue(CV_1);
ARM GAS  /var/folders/hl/qgbwny5j0fd895c2c41bk3tw0000gp/T//ccnMoSgs.s 			page 50


 1293              		.loc 12 256 5 is_stmt 1 view .LVU357
 1294              		.loc 12 256 41 is_stmt 0 view .LVU358
 1295 001a 0021     		movs	r1, #0
 1296 001c 8448     		ldr	r0, .L111+4
 1297 001e FFF7FEFF 		bl	_ZN5daisy8patch_sm12DaisyPatchSM11GetAdcValueEi
 1298              	.LVL96:
 257:stupidtest.cpp ****     float time          = fmap(time_knob, 0.3f, 0.99f);
 1299              		.loc 12 257 5 is_stmt 1 view .LVU359
 1300              	.LBB776:
 1301              	.LBI761:
 161:../../DaisySP//Source/Utility/dsp.h **** {
 1302              		.loc 13 161 1 view .LVU360
 1303              	.LBE776:
 163:../../DaisySP//Source/Utility/dsp.h ****     {
 1304              		.loc 13 163 5 view .LVU361
 1305              	.LBB777:
 1306              	.LBB773:
 172:../../DaisySP//Source/Utility/dsp.h ****         default: return fclamp(min + in * (max - min), min, max);
 1307              		.loc 13 172 9 view .LVU362
 1308              		.loc 13 173 9 view .LVU363
 1309              		.loc 13 173 18 view .LVU364
 1310              		.loc 13 173 31 is_stmt 0 view .LVU365
 1311 0022 F0EE497A 		vmov.f32	s15, s18
 1312 0026 DFED836A 		vldr.32	s13, .L111+8
 1313              	.LBE773:
 1314              	.LBE777:
 258:stupidtest.cpp **** 
 259:stupidtest.cpp ****     float damp_knob     = hw.GetAdcValue(CV_2);
 1315              		.loc 12 259 41 view .LVU366
 1316 002a 0121     		movs	r1, #1
 1317 002c 8048     		ldr	r0, .L111+4
 1318              	.LBB778:
 1319              	.LBB774:
 1320              		.loc 13 173 31 view .LVU367
 1321 002e E0EE267A 		vfma.f32	s15, s0, s13
 1322              	.LVL97:
 1323              	.LBB763:
 1324              	.LBI763:
  56:../../DaisySP//Source/Utility/dsp.h **** {
 1325              		.loc 13 56 14 is_stmt 1 view .LVU368
 1326              	.LBE763:
 1327              	.LBE774:
 1328              	.LBE778:
  58:../../DaisySP//Source/Utility/dsp.h **** }
 1329              		.loc 13 58 5 view .LVU369
 1330              	.LBB779:
 1331              	.LBB775:
 1332              	.LBB772:
 1333              	.LBB764:
 1334              	.LBI764:
  32:../../DaisySP//Source/Utility/dsp.h **** {
 1335              		.loc 13 32 14 view .LVU370
 1336              	.LBB765:
  34:../../DaisySP//Source/Utility/dsp.h **** #ifdef __arm__
 1337              		.loc 13 34 5 view .LVU371
  36:../../DaisySP//Source/Utility/dsp.h **** #else
 1338              		.loc 13 36 5 view .LVU372
ARM GAS  /var/folders/hl/qgbwny5j0fd895c2c41bk3tw0000gp/T//ccnMoSgs.s 			page 51


 1339              	.LBE765:
 1340              	.LBE764:
 1341              	.LBB767:
 1342              	.LBB768:
  47:../../DaisySP//Source/Utility/dsp.h **** #else
 1343              		.loc 13 47 5 is_stmt 0 view .LVU373
 1344 0032 9FED817A 		vldr.32	s14, .L111+12
 1345              	.LBE768:
 1346              	.LBE767:
 1347              	.LBB770:
 1348              	.LBB766:
  36:../../DaisySP//Source/Utility/dsp.h **** #else
 1349              		.loc 13 36 5 view .LVU374
 1350              		.syntax unified
 1351              	@ 36 "../../DaisySP//Source/Utility/dsp.h" 1
 1352 0036 C7FE897A 		vmaxnm.f32 s15, s15, s18
 1353              	@ 0 "" 2
 1354              	.LVL98:
  40:../../DaisySP//Source/Utility/dsp.h **** }
 1355              		.loc 13 40 5 is_stmt 1 view .LVU375
  40:../../DaisySP//Source/Utility/dsp.h **** }
 1356              		.loc 13 40 5 is_stmt 0 view .LVU376
 1357              		.thumb
 1358              		.syntax unified
 1359              	.LBE766:
 1360              	.LBE770:
 1361              	.LBB771:
 1362              	.LBI767:
  43:../../DaisySP//Source/Utility/dsp.h **** {
 1363              		.loc 13 43 14 is_stmt 1 view .LVU377
 1364              	.LBB769:
  45:../../DaisySP//Source/Utility/dsp.h **** #ifdef __arm__
 1365              		.loc 13 45 5 view .LVU378
  47:../../DaisySP//Source/Utility/dsp.h **** #else
 1366              		.loc 13 47 5 view .LVU379
 1367              		.syntax unified
 1368              	@ 47 "../../DaisySP//Source/Utility/dsp.h" 1
 1369 003a 87FEC79A 		vminnm.f32 s18, s15, s14
 1370              	@ 0 "" 2
 1371              	.LVL99:
  51:../../DaisySP//Source/Utility/dsp.h **** }
 1372              		.loc 13 51 5 view .LVU380
  51:../../DaisySP//Source/Utility/dsp.h **** }
 1373              		.loc 13 51 5 is_stmt 0 view .LVU381
 1374              		.thumb
 1375              		.syntax unified
 1376              	.LBE769:
 1377              	.LBE771:
 1378              	.LBE772:
 1379              	.LBE775:
 1380              	.LBE779:
 1381              		.loc 12 259 5 is_stmt 1 view .LVU382
 1382              		.loc 12 259 41 is_stmt 0 view .LVU383
 1383 003e FFF7FEFF 		bl	_ZN5daisy8patch_sm12DaisyPatchSM11GetAdcValueEi
 1384              	.LVL100:
 1385              		.loc 12 259 41 view .LVU384
 1386 0042 F0EE400A 		vmov.f32	s1, s0
ARM GAS  /var/folders/hl/qgbwny5j0fd895c2c41bk3tw0000gp/T//ccnMoSgs.s 			page 52


 1387              	.LVL101:
 260:stupidtest.cpp ****     float damp          = fmap(damp_knob, 1000.f, 19000.f, Mapping::LOG);
 1388              		.loc 12 260 5 is_stmt 1 view .LVU385
 1389              	.LBB780:
 1390              	.LBI780:
 161:../../DaisySP//Source/Utility/dsp.h **** {
 1391              		.loc 13 161 1 view .LVU386
 1392              	.LBE780:
 163:../../DaisySP//Source/Utility/dsp.h ****     {
 1393              		.loc 13 163 5 view .LVU387
 1394              	.LBB800:
 1395              	.LBB781:
 1396              	.LBI781:
 161:../../DaisySP//Source/Utility/dsp.h **** {
 1397              		.loc 13 161 1 view .LVU388
 161:../../DaisySP//Source/Utility/dsp.h **** {
 1398              		.loc 13 161 1 is_stmt 0 view .LVU389
 1399              	.LBE781:
 1400              	.LBE800:
 167:../../DaisySP//Source/Utility/dsp.h ****         {
 1401              		.loc 13 167 9 is_stmt 1 view .LVU390
 168:../../DaisySP//Source/Utility/dsp.h ****             const float a = 1.f / log10f(max / min);
 1402              		.loc 13 168 9 view .LVU391
 1403              	.LBB801:
 1404              	.LBB797:
 1405              	.LBB782:
 169:../../DaisySP//Source/Utility/dsp.h ****             return fclamp(min * powf(10, in / a), min, max);
 1406              		.loc 13 169 13 view .LVU392
 170:../../DaisySP//Source/Utility/dsp.h ****         }
 1407              		.loc 13 170 13 view .LVU393
 170:../../DaisySP//Source/Utility/dsp.h ****         }
 1408              		.loc 13 170 37 is_stmt 0 view .LVU394
 1409 0046 DFED7D7A 		vldr.32	s15, .L111+16
 1410 004a B2EE040A 		vmov.f32	s0, #1.0e+1
 1411              	.LVL102:
 170:../../DaisySP//Source/Utility/dsp.h ****         }
 1412              		.loc 13 170 37 view .LVU395
 1413 004e C0EEA70A 		vdiv.f32	s1, s1, s15
 1414              	.LVL103:
 170:../../DaisySP//Source/Utility/dsp.h ****         }
 1415              		.loc 13 170 37 view .LVU396
 1416 0052 FFF7FEFF 		bl	powf
 1417              	.LVL104:
 1418              	.LBB783:
 1419              	.LBI783:
  56:../../DaisySP//Source/Utility/dsp.h **** {
 1420              		.loc 13 56 14 is_stmt 1 view .LVU397
 1421              	.LBE783:
 1422              	.LBE782:
 1423              	.LBE797:
 1424              	.LBE801:
  58:../../DaisySP//Source/Utility/dsp.h **** }
 1425              		.loc 13 58 5 view .LVU398
 1426              	.LBB802:
 1427              	.LBB798:
 1428              	.LBB795:
 1429              	.LBB792:
ARM GAS  /var/folders/hl/qgbwny5j0fd895c2c41bk3tw0000gp/T//ccnMoSgs.s 			page 53


 1430              	.LBB784:
 1431              	.LBI784:
  32:../../DaisySP//Source/Utility/dsp.h **** {
 1432              		.loc 13 32 14 view .LVU399
 1433              	.LBB785:
  34:../../DaisySP//Source/Utility/dsp.h **** #ifdef __arm__
 1434              		.loc 13 34 5 view .LVU400
  36:../../DaisySP//Source/Utility/dsp.h **** #else
 1435              		.loc 13 36 5 view .LVU401
 1436              	.LBE785:
 1437              	.LBE784:
 1438              	.LBE792:
 170:../../DaisySP//Source/Utility/dsp.h ****         }
 1439              		.loc 13 170 26 is_stmt 0 view .LVU402
 1440 0056 DFED7A7A 		vldr.32	s15, .L111+20
 1441              	.LBE795:
 1442              	.LBE798:
 1443              	.LBE802:
 261:stupidtest.cpp **** 
 262:stupidtest.cpp ****     float send_level     = hw.GetAdcValue(CV_4);
 1444              		.loc 12 262 42 view .LVU403
 1445 005a 0321     		movs	r1, #3
 1446 005c 7448     		ldr	r0, .L111+4
 1447              	.LBB803:
 1448              	.LBB799:
 1449              	.LBB796:
 1450              	.LBB793:
 1451              	.LBB787:
 1452              	.LBB788:
  47:../../DaisySP//Source/Utility/dsp.h **** #else
 1453              		.loc 13 47 5 view .LVU404
 1454 005e 9FED797A 		vldr.32	s14, .L111+24
 1455              	.LBE788:
 1456              	.LBE787:
 1457              	.LBE793:
 170:../../DaisySP//Source/Utility/dsp.h ****         }
 1458              		.loc 13 170 26 view .LVU405
 1459 0062 60EE278A 		vmul.f32	s17, s0, s15
 1460              	.LVL105:
 1461              	.LBB794:
 1462              	.LBB790:
 1463              	.LBB786:
  36:../../DaisySP//Source/Utility/dsp.h **** #else
 1464              		.loc 13 36 5 view .LVU406
 1465              		.syntax unified
 1466              	@ 36 "../../DaisySP//Source/Utility/dsp.h" 1
 1467 0066 C8FEA78A 		vmaxnm.f32 s17, s17, s15
 1468              	@ 0 "" 2
 1469              	.LVL106:
  40:../../DaisySP//Source/Utility/dsp.h **** }
 1470              		.loc 13 40 5 is_stmt 1 view .LVU407
  40:../../DaisySP//Source/Utility/dsp.h **** }
 1471              		.loc 13 40 5 is_stmt 0 view .LVU408
 1472              		.thumb
 1473              		.syntax unified
 1474              	.LBE786:
 1475              	.LBE790:
ARM GAS  /var/folders/hl/qgbwny5j0fd895c2c41bk3tw0000gp/T//ccnMoSgs.s 			page 54


 1476              	.LBB791:
 1477              	.LBI787:
  43:../../DaisySP//Source/Utility/dsp.h **** {
 1478              		.loc 13 43 14 is_stmt 1 view .LVU409
 1479              	.LBB789:
  45:../../DaisySP//Source/Utility/dsp.h **** #ifdef __arm__
 1480              		.loc 13 45 5 view .LVU410
  47:../../DaisySP//Source/Utility/dsp.h **** #else
 1481              		.loc 13 47 5 view .LVU411
 1482              		.syntax unified
 1483              	@ 47 "../../DaisySP//Source/Utility/dsp.h" 1
 1484 006a C8FEC78A 		vminnm.f32 s17, s17, s14
 1485              	@ 0 "" 2
 1486              	.LVL107:
  51:../../DaisySP//Source/Utility/dsp.h **** }
 1487              		.loc 13 51 5 view .LVU412
  51:../../DaisySP//Source/Utility/dsp.h **** }
 1488              		.loc 13 51 5 is_stmt 0 view .LVU413
 1489              		.thumb
 1490              		.syntax unified
 1491              	.LBE789:
 1492              	.LBE791:
 1493              	.LBE794:
 1494              	.LBE796:
 1495              	.LBE799:
 1496              	.LBE803:
 1497              		.loc 12 262 5 is_stmt 1 view .LVU414
 1498              		.loc 12 262 42 is_stmt 0 view .LVU415
 1499 006e FFF7FEFF 		bl	_ZN5daisy8patch_sm12DaisyPatchSM11GetAdcValueEi
 1500              	.LVL108:
 1501              	.LBB804:
 1502              	.LBB805:
  42:../../DaisySP//Source/Effects/reverbsc.h ****     /** Initializes the reverb module, and sets the sample_rate at which the Process function will 
  43:../../DaisySP//Source/Effects/reverbsc.h ****         Returns 0 if all good, or 1 if it runs out of delay times exceed maximum allowed.
  44:../../DaisySP//Source/Effects/reverbsc.h ****     */
  45:../../DaisySP//Source/Effects/reverbsc.h ****     int Init(float sample_rate);
  46:../../DaisySP//Source/Effects/reverbsc.h **** 
  47:../../DaisySP//Source/Effects/reverbsc.h ****     /** Process the input through the reverb, and updates values of out1, and out2 with the new pro
  48:../../DaisySP//Source/Effects/reverbsc.h ****     */
  49:../../DaisySP//Source/Effects/reverbsc.h ****     int Process(const float &in1, const float &in2, float *out1, float *out2);
  50:../../DaisySP//Source/Effects/reverbsc.h **** 
  51:../../DaisySP//Source/Effects/reverbsc.h ****     /** controls the reverb time. reverb tail becomes infinite when set to 1.0
  52:../../DaisySP//Source/Effects/reverbsc.h ****         \param fb - sets reverb time. range: 0.0 to 1.0
  53:../../DaisySP//Source/Effects/reverbsc.h ****     */
  54:../../DaisySP//Source/Effects/reverbsc.h ****     inline void SetFeedback(const float &fb) { feedback_ = fb; }
 1503              		.loc 2 54 58 view .LVU416
 1504 0072 754B     		ldr	r3, .L111+28
 1505              	.LBE805:
 1506              	.LBE804:
 263:stupidtest.cpp ****     
 264:stupidtest.cpp ****     // moving param sets to inside the buffers - may need to move this? also order? Should probably
 265:stupidtest.cpp ****     rv.SetFeedback(time);
 266:stupidtest.cpp ****     rv.SetLpFreq(damp);
 267:stupidtest.cpp **** 
 268:stupidtest.cpp ****     svf.SetFreq(24000);
 1507              		.loc 12 268 16 view .LVU417
 1508 0074 7548     		ldr	r0, .L111+32
ARM GAS  /var/folders/hl/qgbwny5j0fd895c2c41bk3tw0000gp/T//ccnMoSgs.s 			page 55


 262:stupidtest.cpp ****     
 1509              		.loc 12 262 42 view .LVU418
 1510 0076 B0EE408A 		vmov.f32	s16, s0
 1511              		.loc 12 268 16 view .LVU419
 1512 007a 9FED750A 		vldr.32	s0, .L111+36
 1513              	.LVL109:
 265:stupidtest.cpp ****     rv.SetLpFreq(damp);
 1514              		.loc 12 265 5 is_stmt 1 view .LVU420
 1515              	.LBB807:
 1516              	.LBI804:
 1517              		.loc 2 54 17 view .LVU421
 1518              	.LBB806:
 1519              		.loc 2 54 48 view .LVU422
 1520              		.loc 2 54 58 is_stmt 0 view .LVU423
 1521 007e 83ED009A 		vstr.32	s18, [r3]
 1522              	.LVL110:
 1523              		.loc 2 54 58 view .LVU424
 1524              	.LBE806:
 1525              	.LBE807:
 266:stupidtest.cpp **** 
 1526              		.loc 12 266 5 is_stmt 1 view .LVU425
 1527              	.LBB808:
 1528              	.LBI808:
  55:../../DaisySP//Source/Effects/reverbsc.h ****     /** controls the internal dampening filter's cutoff frequency.
  56:../../DaisySP//Source/Effects/reverbsc.h ****         \param freq - low pass frequency. range: 0.0 to sample_rate / 2
  57:../../DaisySP//Source/Effects/reverbsc.h ****     */
  58:../../DaisySP//Source/Effects/reverbsc.h ****     inline void SetLpFreq(const float &freq) { lpfreq_ = freq; }
 1529              		.loc 2 58 17 view .LVU426
 1530              	.LBB809:
 1531              		.loc 2 58 48 view .LVU427
 1532              		.loc 2 58 56 is_stmt 0 view .LVU428
 1533 0082 C3ED018A 		vstr.32	s17, [r3, #4]
 1534              	.LVL111:
 1535              		.loc 2 58 56 view .LVU429
 1536              	.LBE809:
 1537              	.LBE808:
 1538              		.loc 12 268 5 is_stmt 1 view .LVU430
 1539              		.loc 12 268 16 is_stmt 0 view .LVU431
 1540 0086 FFF7FEFF 		bl	_ZN7daisysp3Svf7SetFreqEf
 1541              	.LVL112:
 269:stupidtest.cpp ****     svf.SetRes(0.5);
 1542              		.loc 12 269 5 is_stmt 1 view .LVU432
 1543              		.loc 12 269 15 is_stmt 0 view .LVU433
 1544 008a B6EE000A 		vmov.f32	s0, #5.0e-1
 1545 008e 6F48     		ldr	r0, .L111+32
 1546 0090 FFF7FEFF 		bl	_ZN7daisysp3Svf6SetResEf
 1547              	.LVL113:
 270:stupidtest.cpp ****     svf.SetDrive(0.8);
 1548              		.loc 12 270 5 is_stmt 1 view .LVU434
 1549              		.loc 12 270 17 is_stmt 0 view .LVU435
 1550 0094 9FED6F0A 		vldr.32	s0, .L111+40
 1551 0098 6C48     		ldr	r0, .L111+32
 1552 009a FFF7FEFF 		bl	_ZN7daisysp3Svf8SetDriveEf
 1553              	.LVL114:
 271:stupidtest.cpp **** 
 272:stupidtest.cpp **** 	for (size_t i = 0; i < size; i++)
 1554              		.loc 12 272 2 is_stmt 1 view .LVU436
ARM GAS  /var/folders/hl/qgbwny5j0fd895c2c41bk3tw0000gp/T//ccnMoSgs.s 			page 56


 1555              	.LBB810:
 1556              		.loc 12 272 23 view .LVU437
 1557 009e 002C     		cmp	r4, #0
 1558 00a0 00F0BE80 		beq	.L92
 1559              		.loc 12 272 14 is_stmt 0 view .LVU438
 1560 00a4 4FF0000B 		mov	fp, #0
 1561 00a8 DFF8B8A1 		ldr	r10, .L111+56
 1562 00ac DFF89C91 		ldr	r9, .L111+32
 1563 00b0 05AF     		add	r7, sp, #20
 1564              	.LBB811:
 273:stupidtest.cpp **** 	{
 274:stupidtest.cpp ****         // Zero samples prior to summing
 275:stupidtest.cpp ****         OUT_L[i] = 0.f;
 276:stupidtest.cpp ****         OUT_R[i] = 0.f;
 1565              		.loc 12 276 9 view .LVU439
 1566 00b2 D6E900EC 		ldrd	lr, ip, [r6]
 1567              	.LBB812:
 1568              	.LBB813:
 277:stupidtest.cpp ****         for(auto &buffer : buffers)
 278:stupidtest.cpp ****         {
 279:stupidtest.cpp ****             // Record in mono
 280:stupidtest.cpp ****             float sample = buffer.Process((0.5 * IN_L[i] + 0.5 * IN_R[i]));
 1569              		.loc 12 280 66 view .LVU440
 1570 00b6 D8E90001 		ldrd	r0, r1, [r8]
 1571              	.LVL115:
 1572              	.L104:
 1573              		.loc 12 280 66 view .LVU441
 1574              	.LBE813:
 1575              	.LBE812:
 275:stupidtest.cpp ****         OUT_R[i] = 0.f;
 1576              		.loc 12 275 9 is_stmt 1 view .LVU442
 275:stupidtest.cpp ****         OUT_R[i] = 0.f;
 1577              		.loc 12 275 18 is_stmt 0 view .LVU443
 1578 00ba 0023     		movs	r3, #0
 1579 00bc 0EEB8B0E 		add	lr, lr, fp, lsl #2
 276:stupidtest.cpp ****         for(auto &buffer : buffers)
 1580              		.loc 12 276 18 view .LVU444
 1581 00c0 0CEB8B0C 		add	ip, ip, fp, lsl #2
 1582 00c4 644C     		ldr	r4, .L111+44
 275:stupidtest.cpp ****         OUT_R[i] = 0.f;
 1583              		.loc 12 275 18 view .LVU445
 1584 00c6 CEF80030 		str	r3, [lr]	@ float
 276:stupidtest.cpp ****         for(auto &buffer : buffers)
 1585              		.loc 12 276 9 is_stmt 1 view .LVU446
 1586 00ca 4FEA8B05 		lsl	r5, fp, #2
 276:stupidtest.cpp ****         for(auto &buffer : buffers)
 1587              		.loc 12 276 18 is_stmt 0 view .LVU447
 1588 00ce CCF80030 		str	r3, [ip]	@ float
 277:stupidtest.cpp ****         for(auto &buffer : buffers)
 1589              		.loc 12 277 9 is_stmt 1 view .LVU448
 1590              	.LVL116:
 1591              	.LBB889:
 277:stupidtest.cpp ****         for(auto &buffer : buffers)
 1592              		.loc 12 277 28 view .LVU449
 1593 00d2 35E0     		b	.L102
 1594              	.LVL117:
 1595              	.L105:
ARM GAS  /var/folders/hl/qgbwny5j0fd895c2c41bk3tw0000gp/T//ccnMoSgs.s 			page 57


 1596              	.LBB882:
 1597              	.LBB814:
 1598              	.LBB815:
 1599              	.LBB816:
 121:stupidtest.cpp ****         }
 1600              		.loc 12 121 20 is_stmt 0 view .LVU450
 1601 00d4 9FED610A 		vldr.32	s0, .L111+48
 1602              	.L97:
 1603              	.LVL118:
 121:stupidtest.cpp ****         }
 1604              		.loc 12 121 20 view .LVU451
 1605              	.LBE816:
 1606              	.LBE815:
 1607              	.LBE814:
 281:stupidtest.cpp **** 
 282:stupidtest.cpp ****             float send =  sample * send_level;
 1608              		.loc 12 282 13 is_stmt 1 view .LVU452
 1609              		.loc 12 282 34 is_stmt 0 view .LVU453
 1610 00d8 68EE007A 		vmul.f32	s15, s16, s0
 283:stupidtest.cpp **** 
 284:stupidtest.cpp ****             svf.Process(sample);
 1611              		.loc 12 284 24 view .LVU454
 1612 00dc 5B48     		ldr	r0, .L111+32
 1613              	.LBE882:
 277:stupidtest.cpp ****         {
 1614              		.loc 12 277 28 view .LVU455
 1615 00de 04F56A24 		add	r4, r4, #958464
 1616              	.LVL119:
 1617              	.LBB883:
 282:stupidtest.cpp **** 
 1618              		.loc 12 282 19 view .LVU456
 1619 00e2 CDED047A 		vstr.32	s15, [sp, #16]
 1620              		.loc 12 284 13 is_stmt 1 view .LVU457
 1621              		.loc 12 284 24 is_stmt 0 view .LVU458
 1622 00e6 FFF7FEFF 		bl	_ZN7daisysp3Svf7ProcessEf
 1623              	.LVL120:
 285:stupidtest.cpp **** 
 286:stupidtest.cpp ****             float wet;
 1624              		.loc 12 286 13 is_stmt 1 view .LVU459
 287:stupidtest.cpp **** 
 288:stupidtest.cpp ****             rv.Process(send, send, &wet, &wet);
 1625              		.loc 12 288 13 view .LVU460
 1626              		.loc 12 288 23 is_stmt 0 view .LVU461
 1627 00ea 04AA     		add	r2, sp, #16
 1628 00ec 3B46     		mov	r3, r7
 1629 00ee 5648     		ldr	r0, .L111+28
 1630              	.LBE883:
 277:stupidtest.cpp ****         {
 1631              		.loc 12 277 28 view .LVU462
 1632 00f0 04F5C264 		add	r4, r4, #1552
 1633              	.LVL121:
 1634              	.LBB884:
 1635              		.loc 12 288 23 view .LVU463
 1636 00f4 1146     		mov	r1, r2
 1637 00f6 0097     		str	r7, [sp]
 1638 00f8 FFF7FEFF 		bl	_ZN7daisysp8ReverbSc7ProcessERKfS2_PfS3_
 1639              	.LVL122:
ARM GAS  /var/folders/hl/qgbwny5j0fd895c2c41bk3tw0000gp/T//ccnMoSgs.s 			page 58


 289:stupidtest.cpp ****             OUT_L[i] += svf.Low() + wet;
 1640              		.loc 12 289 13 is_stmt 1 view .LVU464
 1641              	.LBB869:
 1642              	.LBI869:
  23:../../DaisySP//Source/Filters/svf.h ****     /** Initializes the filter
  24:../../DaisySP//Source/Filters/svf.h ****         float sample_rate - sample rate of the audio engine being run, and the frequency that the P
  25:../../DaisySP//Source/Filters/svf.h ****     */
  26:../../DaisySP//Source/Filters/svf.h ****     void Init(float sample_rate);
  27:../../DaisySP//Source/Filters/svf.h **** 
  28:../../DaisySP//Source/Filters/svf.h **** 
  29:../../DaisySP//Source/Filters/svf.h ****     /** 
  30:../../DaisySP//Source/Filters/svf.h ****         Process the input signal, updating all of the outputs.
  31:../../DaisySP//Source/Filters/svf.h ****     */
  32:../../DaisySP//Source/Filters/svf.h ****     void Process(float in);
  33:../../DaisySP//Source/Filters/svf.h **** 
  34:../../DaisySP//Source/Filters/svf.h **** 
  35:../../DaisySP//Source/Filters/svf.h ****     /** sets the frequency of the cutoff frequency. 
  36:../../DaisySP//Source/Filters/svf.h ****         f must be between 0.0 and sample_rate / 3
  37:../../DaisySP//Source/Filters/svf.h ****     */
  38:../../DaisySP//Source/Filters/svf.h ****     void SetFreq(float f);
  39:../../DaisySP//Source/Filters/svf.h **** 
  40:../../DaisySP//Source/Filters/svf.h ****     /** sets the resonance of the filter.
  41:../../DaisySP//Source/Filters/svf.h ****         Must be between 0.0 and 1.0 to ensure stability.
  42:../../DaisySP//Source/Filters/svf.h ****     */
  43:../../DaisySP//Source/Filters/svf.h ****     void SetRes(float r);
  44:../../DaisySP//Source/Filters/svf.h **** 
  45:../../DaisySP//Source/Filters/svf.h ****     /** sets the drive of the filter 
  46:../../DaisySP//Source/Filters/svf.h ****         affects the response of the resonance of the filter
  47:../../DaisySP//Source/Filters/svf.h ****     */
  48:../../DaisySP//Source/Filters/svf.h ****     void SetDrive(float d);
  49:../../DaisySP//Source/Filters/svf.h ****     /** lowpass output
  50:../../DaisySP//Source/Filters/svf.h ****         \return low pass output of the filter
  51:../../DaisySP//Source/Filters/svf.h ****     */
  52:../../DaisySP//Source/Filters/svf.h ****     inline float Low() { return out_low_; }
 1643              		.loc 1 52 18 view .LVU465
 1644              	.LBB870:
 1645              		.loc 1 52 26 view .LVU466
 1646              		.loc 1 52 26 is_stmt 0 view .LVU467
 1647              	.LBE870:
 1648              	.LBE869:
 1649              		.loc 12 289 13 view .LVU468
 1650 00fc 3168     		ldr	r1, [r6]
 1651              		.loc 12 289 35 view .LVU469
 1652 00fe DDED057A 		vldr.32	s15, [sp, #20]
 1653              	.LBE884:
 277:stupidtest.cpp ****         {
 1654              		.loc 12 277 28 view .LVU470
 1655 0102 A245     		cmp	r10, r4
 1656              	.LBB885:
 1657              		.loc 12 289 35 view .LVU471
 1658 0104 99ED0C7A 		vldr.32	s14, [r9, #48]
 1659              		.loc 12 289 22 view .LVU472
 1660 0108 01EB0502 		add	r2, r1, r5
 290:stupidtest.cpp ****             OUT_R[i] += svf.Notch() + wet;
 1661              		.loc 12 290 13 view .LVU473
 1662 010c 7068     		ldr	r0, [r6, #4]
 289:stupidtest.cpp ****             OUT_R[i] += svf.Notch() + wet;
ARM GAS  /var/folders/hl/qgbwny5j0fd895c2c41bk3tw0000gp/T//ccnMoSgs.s 			page 59


 1663              		.loc 12 289 35 view .LVU474
 1664 010e 37EE877A 		vadd.f32	s14, s15, s14
 289:stupidtest.cpp ****             OUT_R[i] += svf.Notch() + wet;
 1665              		.loc 12 289 22 view .LVU475
 1666 0112 D2ED007A 		vldr.32	s15, [r2]
 1667              		.loc 12 290 22 view .LVU476
 1668 0116 00EB0503 		add	r3, r0, r5
 289:stupidtest.cpp ****             OUT_R[i] += svf.Notch() + wet;
 1669              		.loc 12 289 22 view .LVU477
 1670 011a 77EE877A 		vadd.f32	s15, s15, s14
 1671 011e C2ED007A 		vstr.32	s15, [r2]
 1672              		.loc 12 290 13 is_stmt 1 view .LVU478
 1673              	.LVL123:
 1674              	.LBB871:
 1675              	.LBI871:
  53:../../DaisySP//Source/Filters/svf.h ****     /** highpass output
  54:../../DaisySP//Source/Filters/svf.h ****         \return high pass output of the filter
  55:../../DaisySP//Source/Filters/svf.h ****     */
  56:../../DaisySP//Source/Filters/svf.h ****     inline float High() { return out_high_; }
  57:../../DaisySP//Source/Filters/svf.h ****     /** bandpass output
  58:../../DaisySP//Source/Filters/svf.h ****         \return band pass output of the filter
  59:../../DaisySP//Source/Filters/svf.h ****     */
  60:../../DaisySP//Source/Filters/svf.h ****     inline float Band() { return out_band_; }
  61:../../DaisySP//Source/Filters/svf.h ****     /** notchpass output
  62:../../DaisySP//Source/Filters/svf.h ****         \return notch pass output of the filter
  63:../../DaisySP//Source/Filters/svf.h ****     */
  64:../../DaisySP//Source/Filters/svf.h ****     inline float Notch() { return out_notch_; }
 1676              		.loc 1 64 18 view .LVU479
 1677              	.LBB872:
 1678              		.loc 1 64 28 view .LVU480
 1679              		.loc 1 64 28 is_stmt 0 view .LVU481
 1680              	.LBE872:
 1681              	.LBE871:
 1682              		.loc 12 290 37 view .LVU482
 1683 0122 DDED057A 		vldr.32	s15, [sp, #20]
 1684 0126 99ED107A 		vldr.32	s14, [r9, #64]
 1685 012a 37EE877A 		vadd.f32	s14, s15, s14
 1686              		.loc 12 290 22 view .LVU483
 1687 012e D3ED007A 		vldr.32	s15, [r3]
 1688 0132 77EE877A 		vadd.f32	s15, s15, s14
 1689 0136 C3ED007A 		vstr.32	s15, [r3]
 1690              	.LBE885:
 277:stupidtest.cpp ****         {
 1691              		.loc 12 277 9 is_stmt 1 view .LVU484
 1692              	.LVL124:
 277:stupidtest.cpp ****         {
 1693              		.loc 12 277 28 view .LVU485
 1694 013a 55D0     		beq	.L101
 1695              	.LBB886:
 280:stupidtest.cpp **** 
 1696              		.loc 12 280 66 is_stmt 0 view .LVU486
 1697 013c D8E90001 		ldrd	r0, r1, [r8]
 1698              	.LVL125:
 1699              	.L102:
 280:stupidtest.cpp **** 
 1700              		.loc 12 280 13 is_stmt 1 discriminator 2 view .LVU487
 1701              	.LBB873:
ARM GAS  /var/folders/hl/qgbwny5j0fd895c2c41bk3tw0000gp/T//ccnMoSgs.s 			page 60


 1702              	.LBI814:
  69:stupidtest.cpp ****     {
 1703              		.loc 12 69 11 discriminator 2 view .LVU488
 1704              	.LBB839:
 1705              	.LBI839:
  82:stupidtest.cpp ****     {
 1706              		.loc 12 82 10 discriminator 2 view .LVU489
 1707              	.LBB840:
  84:stupidtest.cpp ****         {
 1708              		.loc 12 84 9 is_stmt 0 discriminator 2 view .LVU490
 1709 0140 637B     		ldrb	r3, [r4, #13]	@ zero_extendqisi2
 1710 0142 F3B1     		cbz	r3, .L95
 1711              	.LVL126:
 1712              	.LBB841:
 1713              	.LBI841:
  82:stupidtest.cpp ****     {
 1714              		.loc 12 82 10 is_stmt 1 view .LVU491
 1715              	.LBE841:
 1716              	.LBE840:
 1717              	.LBE839:
 1718              	.LBE873:
 280:stupidtest.cpp **** 
 1719              		.loc 12 280 56 is_stmt 0 view .LVU492
 1720 0144 2844     		add	r0, r0, r5
 280:stupidtest.cpp **** 
 1721              		.loc 12 280 48 view .LVU493
 1722 0146 B6EE005B 		vmov.f64	d5, #5.0e-1
 280:stupidtest.cpp **** 
 1723              		.loc 12 280 72 view .LVU494
 1724 014a 2944     		add	r1, r1, r5
 1725              	.LBB874:
 1726              	.LBB860:
 1727              	.LBB854:
 1728              	.LBB848:
 1729              	.LBB842:
  86:stupidtest.cpp ****             write_ptr_++;
 1730              		.loc 12 86 21 view .LVU495
 1731 014c 2368     		ldr	r3, [r4]
 1732              	.LBE842:
 1733              	.LBE848:
 1734              	.LBE854:
 1735              	.LBE860:
 1736              	.LBE874:
 280:stupidtest.cpp **** 
 1737              		.loc 12 280 56 view .LVU496
 1738 014e 90ED007A 		vldr.32	s14, [r0]
 280:stupidtest.cpp **** 
 1739              		.loc 12 280 72 view .LVU497
 1740 0152 91ED006A 		vldr.32	s12, [r1]
 1741              	.LBB875:
 1742              	.LBB861:
 1743              	.LBB855:
 1744              	.LBB849:
 1745              	.LBB843:
  86:stupidtest.cpp ****             write_ptr_++;
 1746              		.loc 12 86 33 view .LVU498
 1747 0156 04EB8301 		add	r1, r4, r3, lsl #2
ARM GAS  /var/folders/hl/qgbwny5j0fd895c2c41bk3tw0000gp/T//ccnMoSgs.s 			page 61


 1748              	.LBE843:
 1749              	.LBE849:
 1750              	.LBE855:
 1751              	.LBE861:
 1752              	.LBE875:
 280:stupidtest.cpp **** 
 1753              		.loc 12 280 56 view .LVU499
 1754 015a B7EEC77A 		vcvt.f64.f32	d7, s14
 1755              	.LBB876:
 1756              	.LBB862:
 1757              	.LBB856:
 1758              	.LBB850:
 1759              	.LBB844:
  87:stupidtest.cpp ****             if(write_ptr_ >= kBufferSize)
 1760              		.loc 12 87 13 view .LVU500
 1761 015e 0133     		adds	r3, r3, #1
 1762              	.LBE844:
 1763              	.LBE850:
 1764              	.LBE856:
 1765              	.LBE862:
 1766              	.LBE876:
 280:stupidtest.cpp **** 
 1767              		.loc 12 280 72 view .LVU501
 1768 0160 B7EEC66A 		vcvt.f64.f32	d6, s12
 1769              	.LBB877:
 1770              	.LBB863:
 1771              	.LBB857:
 1772              	.LBB851:
 1773              	.LBB845:
  88:stupidtest.cpp ****             {
 1774              		.loc 12 88 13 view .LVU502
 1775 0164 3E4A     		ldr	r2, .L111+52
 1776              	.LBE845:
 1777              	.LBE851:
 1778              	.LBE857:
 1779              	.LBE863:
 1780              	.LBE877:
 280:stupidtest.cpp **** 
 1781              		.loc 12 280 48 view .LVU503
 1782 0166 27EE057B 		vmul.f64	d7, d7, d5
 1783              	.LBB878:
 1784              	.LBB864:
 1785              	.LBB858:
 1786              	.LBB852:
 1787              	.LBB846:
  88:stupidtest.cpp ****             {
 1788              		.loc 12 88 13 view .LVU504
 1789 016a 9342     		cmp	r3, r2
 1790              	.LBE846:
 1791              	.LBE852:
 1792              	.LBE858:
 1793              	.LBE864:
 1794              	.LBE878:
 280:stupidtest.cpp **** 
 1795              		.loc 12 280 58 view .LVU505
 1796 016c A6EE057B 		vfma.f64	d7, d6, d5
 280:stupidtest.cpp **** 
ARM GAS  /var/folders/hl/qgbwny5j0fd895c2c41bk3tw0000gp/T//ccnMoSgs.s 			page 62


 1797              		.loc 12 280 42 view .LVU506
 1798 0170 B7EEC77B 		vcvt.f32.f64	s14, d7
 1799 0174 81ED047A 		vstr.32	s14, [r1, #16]
 1800              	.LBB879:
 1801              	.LBB865:
 1802              	.LBB859:
 1803              	.LBB853:
 1804              	.LBB847:
  87:stupidtest.cpp ****             if(write_ptr_ >= kBufferSize)
 1805              		.loc 12 87 13 view .LVU507
 1806 0178 2360     		str	r3, [r4]
  88:stupidtest.cpp ****             {
 1807              		.loc 12 88 13 view .LVU508
 1808 017a 02D9     		bls	.L95
  90:stupidtest.cpp ****                 write_ptr_ = 0;
 1809              		.loc 12 90 28 view .LVU509
 1810 017c 0023     		movs	r3, #0
 1811 017e 6373     		strb	r3, [r4, #13]
  91:stupidtest.cpp ****             }
 1812              		.loc 12 91 28 view .LVU510
 1813 0180 2360     		str	r3, [r4]
 1814              	.LVL127:
 1815              	.L95:
  91:stupidtest.cpp ****             }
 1816              		.loc 12 91 28 view .LVU511
 1817              	.LBE847:
 1818              	.LBE853:
 1819              	.LBE859:
 1820              	.LBE865:
 1821              	.LBB866:
 1822              	.LBI815:
  96:stupidtest.cpp ****     {
 1823              		.loc 12 96 11 is_stmt 1 view .LVU512
 1824              	.LBB817:
  98:stupidtest.cpp ****         {
 1825              		.loc 12 98 9 is_stmt 0 view .LVU513
 1826 0182 237B     		ldrb	r3, [r4, #12]	@ zero_extendqisi2
 1827 0184 002B     		cmp	r3, #0
 1828 0186 A5D0     		beq	.L105
 1829              	.LVL128:
  98:stupidtest.cpp ****         {
 1830              		.loc 12 98 9 view .LVU514
 1831              	.LBE817:
 1832              	.LBB818:
 1833              	.LBI818:
  96:stupidtest.cpp ****     {
 1834              		.loc 12 96 11 is_stmt 1 view .LVU515
 1835              	.LBB819:
 100:stupidtest.cpp ****             float wait = fmap(inc,0.0f,0.99f);
 1836              		.loc 12 100 39 is_stmt 0 view .LVU516
 1837 0188 0221     		movs	r1, #2
 1838 018a 2948     		ldr	r0, .L111+4
 1839 018c FFF7FEFF 		bl	_ZN5daisy8patch_sm12DaisyPatchSM11GetAdcValueEi
 1840              	.LVL129:
 1841              	.LBB820:
 1842              	.LBI820:
 161:../../DaisySP//Source/Utility/dsp.h **** {
ARM GAS  /var/folders/hl/qgbwny5j0fd895c2c41bk3tw0000gp/T//ccnMoSgs.s 			page 63


 1843              		.loc 13 161 1 is_stmt 1 view .LVU517
 1844              	.LBE820:
 1845              	.LBE819:
 1846              	.LBE818:
 1847              	.LBE866:
 1848              	.LBE879:
 1849              	.LBE886:
 1850              	.LBE889:
 1851              	.LBE811:
 1852              	.LBE810:
 163:../../DaisySP//Source/Utility/dsp.h ****     {
 1853              		.loc 13 163 5 view .LVU518
 1854              	.LBB895:
 1855              	.LBB892:
 1856              	.LBB890:
 1857              	.LBB887:
 1858              	.LBB880:
 1859              	.LBB867:
 1860              	.LBB837:
 1861              	.LBB835:
 1862              	.LBB830:
 1863              	.LBB821:
 172:../../DaisySP//Source/Utility/dsp.h ****         default: return fclamp(min + in * (max - min), min, max);
 1864              		.loc 13 172 9 view .LVU519
 1865              		.loc 13 173 9 view .LVU520
 1866              		.loc 13 173 18 view .LVU521
 1867              		.loc 13 173 31 is_stmt 0 view .LVU522
 1868 0190 DFED326A 		vldr.32	s13, .L111+48
 1869 0194 9FED287A 		vldr.32	s14, .L111+12
 1870 0198 F0EE667A 		vmov.f32	s15, s13
 1871              	.LBE821:
 1872              	.LBE830:
 103:stupidtest.cpp ****             
 1873              		.loc 12 103 33 view .LVU523
 1874 019c 6268     		ldr	r2, [r4, #4]
 103:stupidtest.cpp ****             
 1875              		.loc 12 103 19 view .LVU524
 1876 019e 04EB8203 		add	r3, r4, r2, lsl #2
 1877              	.LBB831:
 1878              	.LBB828:
 1879              		.loc 13 173 31 view .LVU525
 1880 01a2 E0EE077A 		vfma.f32	s15, s0, s14
 1881              	.LVL130:
 1882              	.LBB822:
 1883              	.LBI822:
  56:../../DaisySP//Source/Utility/dsp.h **** {
 1884              		.loc 13 56 14 is_stmt 1 view .LVU526
 1885              	.LBE822:
 1886              	.LBE828:
 1887              	.LBE831:
 1888              	.LBE835:
 1889              	.LBE837:
 1890              	.LBE867:
 1891              	.LBE880:
 1892              	.LBE887:
 1893              	.LBE890:
 1894              	.LBE892:
ARM GAS  /var/folders/hl/qgbwny5j0fd895c2c41bk3tw0000gp/T//ccnMoSgs.s 			page 64


 1895              	.LBE895:
  58:../../DaisySP//Source/Utility/dsp.h **** }
 1896              		.loc 13 58 5 view .LVU527
 1897              	.LBB896:
 1898              	.LBB893:
 1899              	.LBB891:
 1900              	.LBB888:
 1901              	.LBB881:
 1902              	.LBB868:
 1903              	.LBB838:
 1904              	.LBB836:
 1905              	.LBB832:
 1906              	.LBB829:
 1907              	.LBB827:
 1908              	.LBB823:
 1909              	.LBI823:
  32:../../DaisySP//Source/Utility/dsp.h **** {
 1910              		.loc 13 32 14 view .LVU528
 1911              	.LBB824:
  34:../../DaisySP//Source/Utility/dsp.h **** #ifdef __arm__
 1912              		.loc 13 34 5 view .LVU529
  36:../../DaisySP//Source/Utility/dsp.h **** #else
 1913              		.loc 13 36 5 view .LVU530
 1914              		.syntax unified
 1915              	@ 36 "../../DaisySP//Source/Utility/dsp.h" 1
 1916 01a6 C7FEA67A 		vmaxnm.f32 s15, s15, s13
 1917              	@ 0 "" 2
 1918              	.LVL131:
  40:../../DaisySP//Source/Utility/dsp.h **** }
 1919              		.loc 13 40 5 view .LVU531
  40:../../DaisySP//Source/Utility/dsp.h **** }
 1920              		.loc 13 40 5 is_stmt 0 view .LVU532
 1921              		.thumb
 1922              		.syntax unified
 1923              	.LBE824:
 1924              	.LBE823:
 1925              	.LBB825:
 1926              	.LBI825:
  43:../../DaisySP//Source/Utility/dsp.h **** {
 1927              		.loc 13 43 14 is_stmt 1 view .LVU533
 1928              	.LBB826:
  45:../../DaisySP//Source/Utility/dsp.h **** #ifdef __arm__
 1929              		.loc 13 45 5 view .LVU534
  47:../../DaisySP//Source/Utility/dsp.h **** #else
 1930              		.loc 13 47 5 view .LVU535
 1931              		.syntax unified
 1932              	@ 47 "../../DaisySP//Source/Utility/dsp.h" 1
 1933 01aa 87FEC77A 		vminnm.f32 s14, s15, s14
 1934              	@ 0 "" 2
 1935              	.LVL132:
  51:../../DaisySP//Source/Utility/dsp.h **** }
 1936              		.loc 13 51 5 view .LVU536
  51:../../DaisySP//Source/Utility/dsp.h **** }
 1937              		.loc 13 51 5 is_stmt 0 view .LVU537
 1938              		.thumb
 1939              		.syntax unified
 1940              	.LBE826:
ARM GAS  /var/folders/hl/qgbwny5j0fd895c2c41bk3tw0000gp/T//ccnMoSgs.s 			page 65


 1941              	.LBE825:
 1942              	.LBE827:
 1943              	.LBE829:
 1944              	.LBE832:
 1945              	.LBB833:
 105:stupidtest.cpp ****             
 1946              		.loc 12 105 35 view .LVU538
 1947 01ae B4EEE67A 		vcmpe.f32	s14, s13
 1948              	.LBE833:
 103:stupidtest.cpp ****             
 1949              		.loc 12 103 19 view .LVU539
 1950 01b2 93ED040A 		vldr.32	s0, [r3, #16]
 1951              	.LVL133:
 1952              	.LBB834:
 105:stupidtest.cpp ****             
 1953              		.loc 12 105 35 is_stmt 1 view .LVU540
 1954 01b6 F1EE10FA 		vmrs	APSR_nzcv, FPSCR
 1955 01ba 0DDB     		blt	.L98
 105:stupidtest.cpp ****             
 1956              		.loc 12 105 24 is_stmt 0 view .LVU541
 1957 01bc 0023     		movs	r3, #0
 1958 01be 511C     		adds	r1, r2, #1
 1959              	.LVL134:
 1960              	.L100:
 105:stupidtest.cpp ****             
 1961              		.loc 12 105 24 view .LVU542
 1962 01c0 CA18     		adds	r2, r1, r3
 105:stupidtest.cpp ****             
 1963              		.loc 12 105 13 is_stmt 1 view .LVU543
 1964 01c2 0133     		adds	r3, r3, #1
 1965              	.LVL135:
 105:stupidtest.cpp ****             
 1966              		.loc 12 105 35 view .LVU544
 1967 01c4 07EE903A 		vmov	s15, r3	@ int
 1968 01c8 F8EE677A 		vcvt.f32.u32	s15, s15
 1969 01cc B4EEE77A 		vcmpe.f32	s14, s15
 1970 01d0 F1EE10FA 		vmrs	APSR_nzcv, FPSCR
 1971 01d4 F4DA     		bge	.L100
 1972 01d6 6260     		str	r2, [r4, #4]
 1973              	.LVL136:
 1974              	.L98:
 105:stupidtest.cpp ****             
 1975              		.loc 12 105 35 is_stmt 0 view .LVU545
 1976              	.LBE834:
 112:stupidtest.cpp ****             {
 1977              		.loc 12 112 13 view .LVU546
 1978 01d8 214B     		ldr	r3, .L111+52
 1979 01da 9A42     		cmp	r2, r3
 1980 01dc 7FF67CAF 		bls	.L97
 114:stupidtest.cpp ****                 read_ptr_ = 0;
 1981              		.loc 12 114 27 view .LVU547
 1982 01e0 0023     		movs	r3, #0
 1983 01e2 2373     		strb	r3, [r4, #12]
 115:stupidtest.cpp ****             }
 1984              		.loc 12 115 27 view .LVU548
 1985 01e4 6360     		str	r3, [r4, #4]
 1986 01e6 77E7     		b	.L97
ARM GAS  /var/folders/hl/qgbwny5j0fd895c2c41bk3tw0000gp/T//ccnMoSgs.s 			page 66


 1987              	.LVL137:
 1988              	.L101:
 115:stupidtest.cpp ****             }
 1989              		.loc 12 115 27 view .LVU549
 1990              	.LBE836:
 1991              	.LBE838:
 1992              	.LBE868:
 1993              	.LBE881:
 1994              	.LBE888:
 1995              	.LBE891:
 291:stupidtest.cpp ****         }
 292:stupidtest.cpp ****         // Feed stereo input through to output
 293:stupidtest.cpp ****         OUT_L[i] += IN_L[i];
 1996              		.loc 12 293 18 discriminator 2 view .LVU550
 1997 01e8 8E46     		mov	lr, r1
 1998 01ea 8446     		mov	ip, r0
 1999              		.loc 12 293 9 is_stmt 1 discriminator 2 view .LVU551
 2000              		.loc 12 293 18 is_stmt 0 discriminator 2 view .LVU552
 2001 01ec D2ED007A 		vldr.32	s15, [r2]
 2002              	.LBE893:
 272:stupidtest.cpp **** 	{
 2003              		.loc 12 272 2 discriminator 2 view .LVU553
 2004 01f0 0BF1010B 		add	fp, fp, #1
 2005              	.LVL138:
 2006              	.LBB894:
 294:stupidtest.cpp ****         OUT_R[i] += IN_R[i];
 2007              		.loc 12 294 21 discriminator 2 view .LVU554
 2008 01f4 D8E90001 		ldrd	r0, r1, [r8]
 293:stupidtest.cpp ****         OUT_R[i] += IN_R[i];
 2009              		.loc 12 293 27 discriminator 2 view .LVU555
 2010 01f8 4419     		adds	r4, r0, r5
 2011              	.LVL139:
 2012              		.loc 12 294 27 discriminator 2 view .LVU556
 2013 01fa 0D44     		add	r5, r5, r1
 293:stupidtest.cpp ****         OUT_R[i] += IN_R[i];
 2014              		.loc 12 293 18 discriminator 2 view .LVU557
 2015 01fc 94ED007A 		vldr.32	s14, [r4]
 2016 0200 77EE877A 		vadd.f32	s15, s15, s14
 2017 0204 C2ED007A 		vstr.32	s15, [r2]
 2018              		.loc 12 294 9 is_stmt 1 discriminator 2 view .LVU558
 2019              		.loc 12 294 18 is_stmt 0 discriminator 2 view .LVU559
 2020 0208 D3ED007A 		vldr.32	s15, [r3]
 2021 020c 95ED007A 		vldr.32	s14, [r5]
 2022 0210 77EE877A 		vadd.f32	s15, s15, s14
 2023 0214 C3ED007A 		vstr.32	s15, [r3]
 2024              	.LBE894:
 272:stupidtest.cpp **** 	{
 2025              		.loc 12 272 2 is_stmt 1 discriminator 2 view .LVU560
 2026              	.LVL140:
 272:stupidtest.cpp **** 	{
 2027              		.loc 12 272 23 discriminator 2 view .LVU561
 2028 0218 039B     		ldr	r3, [sp, #12]
 2029 021a 5B45     		cmp	r3, fp
 2030 021c 7FF44DAF 		bne	.L104
 2031              	.LVL141:
 2032              	.L92:
 272:stupidtest.cpp **** 	{
ARM GAS  /var/folders/hl/qgbwny5j0fd895c2c41bk3tw0000gp/T//ccnMoSgs.s 			page 67


 2033              		.loc 12 272 23 is_stmt 0 discriminator 2 view .LVU562
 2034              	.LBE896:
 295:stupidtest.cpp **** 	}
 296:stupidtest.cpp **** }
 2035              		.loc 12 296 1 view .LVU563
 2036 0220 07B0     		add	sp, sp, #28
 2037              		.cfi_def_cfa_offset 52
 2038              		@ sp needed
 2039 0222 BDEC048B 		vldm	sp!, {d8-d9}
 2040              		.cfi_restore 82
 2041              		.cfi_restore 83
 2042              		.cfi_restore 80
 2043              		.cfi_restore 81
 2044              		.cfi_def_cfa_offset 36
 2045              	.LVL142:
 2046              		.loc 12 296 1 view .LVU564
 2047 0226 BDE8F08F 		pop	{r4, r5, r6, r7, r8, r9, r10, fp, pc}
 2048              	.LVL143:
 2049              	.L112:
 2050              		.loc 12 296 1 view .LVU565
 2051 022a 00BF     		.align	2
 2052              	.L111:
 2053 022c 9A99993E 		.word	1050253722
 2054 0230 00000000 		.word	.LANCHOR0
 2055 0234 D7A3303F 		.word	1060152279
 2056 0238 A4707D3F 		.word	1065185444
 2057 023c E731483F 		.word	1061695975
 2058 0240 00007A44 		.word	1148846080
 2059 0244 00709446 		.word	1184133120
 2060 0248 00000000 		.word	rv
 2061 024c 00000000 		.word	.LANCHOR4
 2062 0250 0080BB46 		.word	1186693120
 2063 0254 CDCC4C3F 		.word	1061997773
 2064 0258 00000000 		.word	buffers
 2065 025c 00000000 		.word	0
 2066 0260 7FA90300 		.word	239999
 2067 0264 80307500 		.word	buffers+7680128
 2068              		.cfi_endproc
 2069              	.LFE4845:
 2071              		.section	.text._Z12InitSamplersv,"ax",%progbits
 2072              		.align	1
 2073              		.p2align 2,,3
 2074              		.global	_Z12InitSamplersv
 2075              		.syntax unified
 2076              		.thumb
 2077              		.thumb_func
 2078              		.fpu fpv5-d16
 2080              	_Z12InitSamplersv:
 2081              	.LFB4846:
 297:stupidtest.cpp **** 
 298:stupidtest.cpp **** void InitSamplers(){
 2082              		.loc 12 298 20 is_stmt 1 view -0
 2083              		.cfi_startproc
 2084              		@ args = 0, pretend = 0, frame = 0
 2085              		@ frame_needed = 0, uses_anonymous_args = 0
 299:stupidtest.cpp ****     for(auto &buffer : buffers)
 2086              		.loc 12 299 5 view .LVU567
ARM GAS  /var/folders/hl/qgbwny5j0fd895c2c41bk3tw0000gp/T//ccnMoSgs.s 			page 68


 2087              	.LVL144:
 2088              	.LBB897:
 2089              		.loc 12 299 24 view .LVU568
 2090              	.LBE897:
 298:stupidtest.cpp ****     for(auto &buffer : buffers)
 2091              		.loc 12 298 20 is_stmt 0 view .LVU569
 2092 0000 10B5     		push	{r4, lr}
 2093              		.cfi_def_cfa_offset 8
 2094              		.cfi_offset 4, -8
 2095              		.cfi_offset 14, -4
 2096 0002 0B4B     		ldr	r3, .L117
 2097 0004 0B4C     		ldr	r4, .L117+4
 2098              	.LVL145:
 2099              	.L114:
 2100              	.LBB908:
 2101              	.LBB898:
 2102              	.LBB899:
 2103              	.LBB900:
 2104              	.LBB901:
  39:stupidtest.cpp ****         {
 2105              		.loc 12 39 29 is_stmt 1 view .LVU570
  41:stupidtest.cpp ****         }
 2106              		.loc 12 41 24 is_stmt 0 view .LVU571
 2107 0006 1846     		mov	r0, r3
 2108 0008 0B4A     		ldr	r2, .L117+8
 2109 000a 0021     		movs	r1, #0
 2110 000c FFF7FEFF 		bl	memset
 2111              	.LVL146:
  41:stupidtest.cpp ****         }
 2112              		.loc 12 41 24 view .LVU572
 2113              	.LBE901:
 2114              	.LBE900:
 2115              	.LBE899:
 2116              	.LBE898:
 2117              		.loc 12 299 24 view .LVU573
 2118 0010 00F56A23 		add	r3, r0, #958464
 2119              	.LBB905:
 2120              	.LBB902:
  31:stupidtest.cpp ****         write_ptr_ = 0;
 2121              		.loc 12 31 20 view .LVU574
 2122 0014 0022     		movs	r2, #0
 2123              	.LBE902:
 2124              	.LBE905:
 2125              		.loc 12 299 24 view .LVU575
 2126 0016 03F5C263 		add	r3, r3, #1552
 2127              	.LBB906:
 2128              	.LBB903:
  31:stupidtest.cpp ****         write_ptr_ = 0;
 2129              		.loc 12 31 20 view .LVU576
 2130 001a 00F8032C 		strb	r2, [r0, #-3]
 2131              	.LBE903:
 2132              	.LBE906:
 2133              		.loc 12 299 24 view .LVU577
 2134 001e 9C42     		cmp	r4, r3
 2135              	.LBB907:
 2136              	.LBB904:
  32:stupidtest.cpp ****         playing_   = false;
ARM GAS  /var/folders/hl/qgbwny5j0fd895c2c41bk3tw0000gp/T//ccnMoSgs.s 			page 69


 2137              		.loc 12 32 20 view .LVU578
 2138 0020 40F8102C 		str	r2, [r0, #-16]
  33:stupidtest.cpp ****         read_ptr_  = 0;
 2139              		.loc 12 33 20 view .LVU579
 2140 0024 00F8042C 		strb	r2, [r0, #-4]
  34:stupidtest.cpp ****     }
 2141              		.loc 12 34 20 view .LVU580
 2142 0028 40F80C2C 		str	r2, [r0, #-12]
 2143              	.LBE904:
 2144              	.LBE907:
 2145              		.loc 12 299 5 is_stmt 1 view .LVU581
 2146              	.LVL147:
 2147              		.loc 12 299 24 view .LVU582
 2148 002c EBD1     		bne	.L114
 2149              	.LBE908:
 300:stupidtest.cpp ****     {
 301:stupidtest.cpp ****         buffer.Init();
 302:stupidtest.cpp ****     }
 303:stupidtest.cpp **** }
 2150              		.loc 12 303 1 is_stmt 0 view .LVU583
 2151 002e 10BD     		pop	{r4, pc}
 2152              	.L118:
 2153              		.align	2
 2154              	.L117:
 2155 0030 10000000 		.word	buffers+16
 2156 0034 90307500 		.word	buffers+7680144
 2157 0038 00A60E00 		.word	960000
 2158              		.cfi_endproc
 2159              	.LFE4846:
 2161              		.section	.text.startup.main,"ax",%progbits
 2162              		.align	1
 2163              		.p2align 2,,3
 2164              		.global	main
 2165              		.syntax unified
 2166              		.thumb
 2167              		.thumb_func
 2168              		.fpu fpv5-d16
 2170              	main:
 2171              	.LFB4847:
 304:stupidtest.cpp **** 
 305:stupidtest.cpp **** 
 306:stupidtest.cpp **** int main(void)
 307:stupidtest.cpp **** {
 2172              		.loc 12 307 1 is_stmt 1 view -0
 2173              		.cfi_startproc
 2174              		@ args = 0, pretend = 0, frame = 0
 2175              		@ frame_needed = 0, uses_anonymous_args = 0
 308:stupidtest.cpp **** 	hw.Init();
 2176              		.loc 12 308 2 view .LVU585
 307:stupidtest.cpp **** 	hw.Init();
 2177              		.loc 12 307 1 is_stmt 0 view .LVU586
 2178 0000 08B5     		push	{r3, lr}
 2179              		.cfi_def_cfa_offset 8
 2180              		.cfi_offset 3, -8
 2181              		.cfi_offset 14, -4
 2182              		.loc 12 308 9 view .LVU587
 2183 0002 1B48     		ldr	r0, .L122
ARM GAS  /var/folders/hl/qgbwny5j0fd895c2c41bk3tw0000gp/T//ccnMoSgs.s 			page 70


 307:stupidtest.cpp **** 	hw.Init();
 2184              		.loc 12 307 1 view .LVU588
 2185 0004 2DED028B 		vpush.64	{d8}
 2186              		.cfi_def_cfa_offset 16
 2187              		.cfi_offset 80, -16
 2188              		.cfi_offset 81, -12
 2189              		.loc 12 308 9 view .LVU589
 2190 0008 FFF7FEFF 		bl	_ZN5daisy8patch_sm12DaisyPatchSM4InitEv
 2191              	.LVL148:
 309:stupidtest.cpp ****     float SR = hw.AudioSampleRate();
 2192              		.loc 12 309 5 is_stmt 1 view .LVU590
 2193              		.loc 12 309 34 is_stmt 0 view .LVU591
 2194 000c 1848     		ldr	r0, .L122
 2195 000e FFF7FEFF 		bl	_ZN5daisy8patch_sm12DaisyPatchSM15AudioSampleRateEv
 2196              	.LVL149:
 310:stupidtest.cpp **** 
 311:stupidtest.cpp ****     toggle.Init(hw.B8);
 2197              		.loc 12 311 16 view .LVU592
 2198 0012 184B     		ldr	r3, .L122+4
 309:stupidtest.cpp ****     float SR = hw.AudioSampleRate();
 2199              		.loc 12 309 34 view .LVU593
 2200 0014 B0EE408A 		vmov.f32	s16, s0
 2201              		.loc 12 311 16 view .LVU594
 2202 0018 1748     		ldr	r0, .L122+8
 2203              	.LVL150:
 2204              		.loc 12 311 5 is_stmt 1 view .LVU595
 2205              		.loc 12 311 16 is_stmt 0 view .LVU596
 2206 001a 1A78     		ldrb	r2, [r3]	@ zero_extendqisi2
 2207 001c 5978     		ldrb	r1, [r3, #1]	@ zero_extendqisi2
 2208 001e 9FED170A 		vldr.32	s0, .L122+12
 2209              	.LVL151:
 2210              		.loc 12 311 16 view .LVU597
 2211 0022 42EA0121 		orr	r1, r2, r1, lsl #8
 2212 0026 FFF7FEFF 		bl	_ZN5daisy6Switch4InitE12dsy_gpio_pinf
 2213              	.LVL152:
 312:stupidtest.cpp ****     button.Init(hw.B7);
 2214              		.loc 12 312 5 is_stmt 1 view .LVU598
 2215              		.loc 12 312 16 is_stmt 0 view .LVU599
 2216 002a 154B     		ldr	r3, .L122+16
 2217 002c 1548     		ldr	r0, .L122+20
 2218 002e 1A78     		ldrb	r2, [r3]	@ zero_extendqisi2
 2219 0030 5978     		ldrb	r1, [r3, #1]	@ zero_extendqisi2
 2220 0032 9FED120A 		vldr.32	s0, .L122+12
 2221 0036 42EA0121 		orr	r1, r2, r1, lsl #8
 2222 003a FFF7FEFF 		bl	_ZN5daisy6Switch4InitE12dsy_gpio_pinf
 2223              	.LVL153:
 313:stupidtest.cpp ****     InitSamplers();
 2224              		.loc 12 313 5 is_stmt 1 view .LVU600
 2225              		.loc 12 313 17 is_stmt 0 view .LVU601
 2226 003e FFF7FEFF 		bl	_Z12InitSamplersv
 2227              	.LVL154:
 314:stupidtest.cpp ****     rv.Init(SR);
 2228              		.loc 12 314 5 is_stmt 1 view .LVU602
 2229              		.loc 12 314 12 is_stmt 0 view .LVU603
 2230 0042 B0EE480A 		vmov.f32	s0, s16
 2231 0046 1048     		ldr	r0, .L122+24
 2232 0048 FFF7FEFF 		bl	_ZN7daisysp8ReverbSc4InitEf
ARM GAS  /var/folders/hl/qgbwny5j0fd895c2c41bk3tw0000gp/T//ccnMoSgs.s 			page 71


 2233              	.LVL155:
 315:stupidtest.cpp ****     svf.Init(SR);
 2234              		.loc 12 315 5 is_stmt 1 view .LVU604
 2235              		.loc 12 315 13 is_stmt 0 view .LVU605
 2236 004c B0EE480A 		vmov.f32	s0, s16
 2237 0050 0E48     		ldr	r0, .L122+28
 2238 0052 FFF7FEFF 		bl	_ZN7daisysp3Svf4InitEf
 2239              	.LVL156:
 316:stupidtest.cpp **** 
 317:stupidtest.cpp ****     hw.SetAudioBlockSize(4); // number of samples handled per callback
 2240              		.loc 12 317 5 is_stmt 1 view .LVU606
 2241              		.loc 12 317 25 is_stmt 0 view .LVU607
 2242 0056 0421     		movs	r1, #4
 2243 0058 0548     		ldr	r0, .L122
 2244 005a FFF7FEFF 		bl	_ZN5daisy8patch_sm12DaisyPatchSM17SetAudioBlockSizeEj
 2245              	.LVL157:
 318:stupidtest.cpp ****     hw.SetAudioSampleRate(SaiHandle::Config::SampleRate::SAI_48KHZ);
 2246              		.loc 12 318 5 is_stmt 1 view .LVU608
 2247              		.loc 12 318 26 is_stmt 0 view .LVU609
 2248 005e 0321     		movs	r1, #3
 2249 0060 0348     		ldr	r0, .L122
 2250 0062 FFF7FEFF 		bl	_ZN5daisy8patch_sm12DaisyPatchSM18SetAudioSampleRateENS_9SaiHandle6Config10SampleRateE
 2251              	.LVL158:
 319:stupidtest.cpp ****     hw.StartAudio(AudioCallback);
 2252              		.loc 12 319 5 is_stmt 1 view .LVU610
 2253              		.loc 12 319 18 is_stmt 0 view .LVU611
 2254 0066 0A49     		ldr	r1, .L122+32
 2255 0068 0148     		ldr	r0, .L122
 2256 006a FFF7FEFF 		bl	_ZN5daisy8patch_sm12DaisyPatchSM10StartAudioEPFvPKPKfPPfjE
 2257              	.LVL159:
 2258              	.L120:
 320:stupidtest.cpp **** 
 321:stupidtest.cpp **** 	while(1) {
 2259              		.loc 12 321 2 is_stmt 1 discriminator 1 view .LVU612
 2260              		.loc 12 321 2 discriminator 1 view .LVU613
 2261              		.loc 12 321 2 discriminator 1 view .LVU614
 2262              		.loc 12 321 2 discriminator 1 view .LVU615
 2263 006e FEE7     		b	.L120
 2264              	.L123:
 2265              		.align	2
 2266              	.L122:
 2267 0070 00000000 		.word	.LANCHOR0
 2268 0074 00000000 		.word	_ZN5daisy8patch_sm12DaisyPatchSM2B8E
 2269 0078 00000000 		.word	.LANCHOR2
 2270 007c 00000000 		.word	0
 2271 0080 00000000 		.word	_ZN5daisy8patch_sm12DaisyPatchSM2B7E
 2272 0084 00000000 		.word	.LANCHOR1
 2273 0088 00000000 		.word	rv
 2274 008c 00000000 		.word	.LANCHOR4
 2275 0090 00000000 		.word	_Z13AudioCallbackPKPKfPPfj
 2276              		.cfi_endproc
 2277              	.LFE4847:
 2279              		.section	.text.startup._GLOBAL__sub_I_hw,"ax",%progbits
 2280              		.align	1
 2281              		.p2align 2,,3
 2282              		.syntax unified
 2283              		.thumb
ARM GAS  /var/folders/hl/qgbwny5j0fd895c2c41bk3tw0000gp/T//ccnMoSgs.s 			page 72


 2284              		.thumb_func
 2285              		.fpu fpv5-d16
 2287              	_GLOBAL__sub_I_hw:
 2288              	.LFB5430:
 322:stupidtest.cpp **** 	}
 323:stupidtest.cpp **** }
 2289              		.loc 12 323 1 view -0
 2290              		.cfi_startproc
 2291              		@ args = 0, pretend = 0, frame = 0
 2292              		@ frame_needed = 0, uses_anonymous_args = 0
 2293              	.LBB947:
 2294              	.LBI947:
 2295              		.loc 12 323 1 view .LVU617
 2296              	.LVL160:
 2297              	.LBB948:
 2298              	.LBB949:
 2299              	.LBI949:
  64:../../libDaisy//src/daisy_patch_sm.h ****         ~DaisyPatchSM() {}
 2300              		.loc 4 64 9 view .LVU618
 2301              	.LBB950:
 2302              	.LBB951:
 2303              	.LBI951:
  77:../../libDaisy//src/sys/system.h ****     ~System() {}
 2304              		.loc 10 77 5 view .LVU619
  77:../../libDaisy//src/sys/system.h ****     ~System() {}
 2305              		.loc 10 77 5 is_stmt 0 view .LVU620
 2306              	.LBE951:
 2307              	.LBB952:
 2308              	.LBI952:
 2309              		.file 14 "../../libDaisy//src/per/qspi.h"
   1:../../libDaisy//src/per/qspi.h **** #ifndef DSY_QSPI
   2:../../libDaisy//src/per/qspi.h **** #define DSY_QSPI /**< Macro */
   3:../../libDaisy//src/per/qspi.h **** 
   4:../../libDaisy//src/per/qspi.h **** #ifndef UNIT_TEST // for unit tests, a dummy implementation
   5:../../libDaisy//src/per/qspi.h **** 
   6:../../libDaisy//src/per/qspi.h **** #include <cstdint>
   7:../../libDaisy//src/per/qspi.h **** #include "daisy_core.h" // Added for dsy_gpio_pin typedef
   8:../../libDaisy//src/per/qspi.h **** 
   9:../../libDaisy//src/per/qspi.h **** #define DSY_QSPI_TEXT       \
  10:../../libDaisy//src/per/qspi.h ****     __attribute__((section( \
  11:../../libDaisy//src/per/qspi.h ****         ".qspiflash_text"))) /**< used for reading memory in memory_mapped mode. */
  12:../../libDaisy//src/per/qspi.h **** #define DSY_QSPI_DATA       \
  13:../../libDaisy//src/per/qspi.h ****     __attribute__((section( \
  14:../../libDaisy//src/per/qspi.h ****         ".qspiflash_data"))) /**< used for reading memory in memory_mapped mode. */
  15:../../libDaisy//src/per/qspi.h **** #define DSY_QSPI_BSS        \
  16:../../libDaisy//src/per/qspi.h ****     __attribute__((section( \
  17:../../libDaisy//src/per/qspi.h ****         ".qspiflash_bss"))) /**< used for reading memory in memory_mapped mode. */
  18:../../libDaisy//src/per/qspi.h **** 
  19:../../libDaisy//src/per/qspi.h **** namespace daisy
  20:../../libDaisy//src/per/qspi.h **** {
  21:../../libDaisy//src/per/qspi.h **** /** @addtogroup serial
  22:../../libDaisy//src/per/qspi.h **** @{
  23:../../libDaisy//src/per/qspi.h **** */
  24:../../libDaisy//src/per/qspi.h **** 
  25:../../libDaisy//src/per/qspi.h **** /** 
  26:../../libDaisy//src/per/qspi.h ****  Driver for QSPI peripheral to interface with external flash memory. \n 
  27:../../libDaisy//src/per/qspi.h ****     Currently supported QSPI Devices: \n 
ARM GAS  /var/folders/hl/qgbwny5j0fd895c2c41bk3tw0000gp/T//ccnMoSgs.s 			page 73


  28:../../libDaisy//src/per/qspi.h ****     * IS25LP080D
  29:../../libDaisy//src/per/qspi.h **** */
  30:../../libDaisy//src/per/qspi.h **** class QSPIHandle
  31:../../libDaisy//src/per/qspi.h **** {
  32:../../libDaisy//src/per/qspi.h ****   public:
  33:../../libDaisy//src/per/qspi.h ****     enum Result
  34:../../libDaisy//src/per/qspi.h ****     {
  35:../../libDaisy//src/per/qspi.h ****         OK = 0,
  36:../../libDaisy//src/per/qspi.h ****         ERR
  37:../../libDaisy//src/per/qspi.h ****     };
  38:../../libDaisy//src/per/qspi.h **** 
  39:../../libDaisy//src/per/qspi.h ****     /** Indicates the current status of the module. 
  40:../../libDaisy//src/per/qspi.h ****          *  Warnings are indicated by a leading W.
  41:../../libDaisy//src/per/qspi.h ****          *  Errors are indicated by a leading E and cause an immediate exit.
  42:../../libDaisy//src/per/qspi.h ****          * 
  43:../../libDaisy//src/per/qspi.h ****          *  \param GOOD - No errors have been reported.
  44:../../libDaisy//src/per/qspi.h ****          *  \param E_HAL_ERROR - HAL code did not return HAL_OK.
  45:../../libDaisy//src/per/qspi.h ****          *  \param E_SWITCHING_MODES - An error was encountered while switching QSPI peripheral mod
  46:../../libDaisy//src/per/qspi.h ****          *  \param E_INVALID_MODE - QSPI should not be written to while the program is executing fr
  47:../../libDaisy//src/per/qspi.h ****          */
  48:../../libDaisy//src/per/qspi.h ****     enum Status
  49:../../libDaisy//src/per/qspi.h ****     {
  50:../../libDaisy//src/per/qspi.h ****         GOOD = 0,
  51:../../libDaisy//src/per/qspi.h ****         E_HAL_ERROR,
  52:../../libDaisy//src/per/qspi.h ****         E_SWITCHING_MODES,
  53:../../libDaisy//src/per/qspi.h ****         E_INVALID_MODE,
  54:../../libDaisy//src/per/qspi.h ****     };
  55:../../libDaisy//src/per/qspi.h **** 
  56:../../libDaisy//src/per/qspi.h ****     /** Configuration structure for interfacing with QSPI Driver */
  57:../../libDaisy//src/per/qspi.h ****     struct Config
  58:../../libDaisy//src/per/qspi.h ****     {
  59:../../libDaisy//src/per/qspi.h ****         /** Flash Devices supported. (Both of these are more-or-less the same, just different sizes
  60:../../libDaisy//src/per/qspi.h ****         enum Device
  61:../../libDaisy//src/per/qspi.h ****         {
  62:../../libDaisy//src/per/qspi.h ****             IS25LP080D,  /**< & */
  63:../../libDaisy//src/per/qspi.h ****             IS25LP064A,  /**< & */
  64:../../libDaisy//src/per/qspi.h ****             DEVICE_LAST, /**< & */
  65:../../libDaisy//src/per/qspi.h ****         };
  66:../../libDaisy//src/per/qspi.h **** 
  67:../../libDaisy//src/per/qspi.h ****         /** 
  68:../../libDaisy//src/per/qspi.h ****         Modes of operation.
  69:../../libDaisy//src/per/qspi.h ****         Memory Mapped mode: QSPI configured so that the QSPI can be
  70:../../libDaisy//src/per/qspi.h ****         read from starting address 0x90000000. Writing is not
  71:../../libDaisy//src/per/qspi.h ****         possible in this mode. \n 
  72:../../libDaisy//src/per/qspi.h ****         Indirect Polling mode: Device driver enabled. 
  73:../../libDaisy//src/per/qspi.h ****         */
  74:../../libDaisy//src/per/qspi.h ****         enum Mode
  75:../../libDaisy//src/per/qspi.h ****         {
  76:../../libDaisy//src/per/qspi.h ****             MEMORY_MAPPED,    /**< & */
  77:../../libDaisy//src/per/qspi.h ****             INDIRECT_POLLING, /**< & */
  78:../../libDaisy//src/per/qspi.h ****             MODE_LAST,
  79:../../libDaisy//src/per/qspi.h ****         };
  80:../../libDaisy//src/per/qspi.h **** 
  81:../../libDaisy//src/per/qspi.h ****         //SCK,  CE# (active low)
  82:../../libDaisy//src/per/qspi.h ****         struct
  83:../../libDaisy//src/per/qspi.h ****         {
  84:../../libDaisy//src/per/qspi.h ****             dsy_gpio_pin io0; /**< & */
ARM GAS  /var/folders/hl/qgbwny5j0fd895c2c41bk3tw0000gp/T//ccnMoSgs.s 			page 74


  85:../../libDaisy//src/per/qspi.h ****             dsy_gpio_pin io1; /**< & */
  86:../../libDaisy//src/per/qspi.h ****             dsy_gpio_pin io2; /**< & */
  87:../../libDaisy//src/per/qspi.h ****             dsy_gpio_pin io3; /**< & */
  88:../../libDaisy//src/per/qspi.h ****             dsy_gpio_pin clk; /**< & */
  89:../../libDaisy//src/per/qspi.h ****             dsy_gpio_pin ncs; /**< & */
  90:../../libDaisy//src/per/qspi.h ****         } pin_config;
  91:../../libDaisy//src/per/qspi.h **** 
  92:../../libDaisy//src/per/qspi.h ****         Device device;
  93:../../libDaisy//src/per/qspi.h ****         Mode   mode;
  94:../../libDaisy//src/per/qspi.h ****     };
  95:../../libDaisy//src/per/qspi.h **** 
  96:../../libDaisy//src/per/qspi.h ****     /** 
  97:../../libDaisy//src/per/qspi.h ****         Initializes QSPI peripheral, and Resets, and prepares memory for access.
  98:../../libDaisy//src/per/qspi.h ****         \param config should be populated with the mode, device and pin_config before calling this 
  99:../../libDaisy//src/per/qspi.h ****         \return Result::OK or Result::ERR
 100:../../libDaisy//src/per/qspi.h ****         */
 101:../../libDaisy//src/per/qspi.h ****     Result Init(const Config& config);
 102:../../libDaisy//src/per/qspi.h **** 
 103:../../libDaisy//src/per/qspi.h ****     /** Returns the current config. */
 104:../../libDaisy//src/per/qspi.h ****     const Config& GetConfig() const;
 105:../../libDaisy//src/per/qspi.h **** 
 106:../../libDaisy//src/per/qspi.h ****     // Couldn't this just be called before anything else in init? That
 107:../../libDaisy//src/per/qspi.h ****     // would make manually calling it unnecessary.
 108:../../libDaisy//src/per/qspi.h ****     /** 
 109:../../libDaisy//src/per/qspi.h ****         Deinitializes the peripheral
 110:../../libDaisy//src/per/qspi.h ****         This should be called before reinitializing QSPI in a different mode.
 111:../../libDaisy//src/per/qspi.h ****         \return Result::OK or Result::ERR
 112:../../libDaisy//src/per/qspi.h ****         */
 113:../../libDaisy//src/per/qspi.h ****     Result DeInit();
 114:../../libDaisy//src/per/qspi.h **** 
 115:../../libDaisy//src/per/qspi.h ****     /** 
 116:../../libDaisy//src/per/qspi.h ****         Writes a single page to to the specified address on the QSPI chip.
 117:../../libDaisy//src/per/qspi.h ****         For IS25LP*, page size is 256 bytes.
 118:../../libDaisy//src/per/qspi.h ****         \param address Address to write to
 119:../../libDaisy//src/per/qspi.h ****         \param size Buffer size
 120:../../libDaisy//src/per/qspi.h ****         \param buffer Buffer to write
 121:../../libDaisy//src/per/qspi.h ****         \return Result::OK or Result::ERR
 122:../../libDaisy//src/per/qspi.h ****         */
 123:../../libDaisy//src/per/qspi.h ****     Result WritePage(uint32_t address, uint32_t size, uint8_t* buffer);
 124:../../libDaisy//src/per/qspi.h **** 
 125:../../libDaisy//src/per/qspi.h ****     /** 
 126:../../libDaisy//src/per/qspi.h ****         Writes data in buffer to to the QSPI. Starting at address to address+size 
 127:../../libDaisy//src/per/qspi.h ****         \param address Address to write to
 128:../../libDaisy//src/per/qspi.h ****         \param size Buffer size
 129:../../libDaisy//src/per/qspi.h ****         \param buffer Buffer to write
 130:../../libDaisy//src/per/qspi.h ****         \return Result::OK or Result::ERR
 131:../../libDaisy//src/per/qspi.h ****         */
 132:../../libDaisy//src/per/qspi.h ****     Result Write(uint32_t address, uint32_t size, uint8_t* buffer);
 133:../../libDaisy//src/per/qspi.h **** 
 134:../../libDaisy//src/per/qspi.h ****     /** 
 135:../../libDaisy//src/per/qspi.h ****         Erases the area specified on the chip.
 136:../../libDaisy//src/per/qspi.h ****         Erasures will happen by 4K, 32K or 64K increments.
 137:../../libDaisy//src/per/qspi.h ****         Smallest erase possible is 4kB at a time. (on IS25LP*)
 138:../../libDaisy//src/per/qspi.h ****         \param start_addr Address to begin erasing from
 139:../../libDaisy//src/per/qspi.h ****         \param end_addr  Address to stop erasing at
 140:../../libDaisy//src/per/qspi.h ****         \return Result::OK or Result::ERR
 141:../../libDaisy//src/per/qspi.h ****         */
ARM GAS  /var/folders/hl/qgbwny5j0fd895c2c41bk3tw0000gp/T//ccnMoSgs.s 			page 75


 142:../../libDaisy//src/per/qspi.h ****     Result Erase(uint32_t start_addr, uint32_t end_addr);
 143:../../libDaisy//src/per/qspi.h **** 
 144:../../libDaisy//src/per/qspi.h ****     /**  
 145:../../libDaisy//src/per/qspi.h ****          Erases a single sector of the chip.  
 146:../../libDaisy//src/per/qspi.h ****         TODO: Document the size of this function. 
 147:../../libDaisy//src/per/qspi.h ****         \param address Address of sector to erase
 148:../../libDaisy//src/per/qspi.h ****         \return Result::OK or Result::ERR
 149:../../libDaisy//src/per/qspi.h ****         */
 150:../../libDaisy//src/per/qspi.h ****     Result EraseSector(uint32_t address);
 151:../../libDaisy//src/per/qspi.h **** 
 152:../../libDaisy//src/per/qspi.h ****     /** Returns the current class status. Useful for debugging.
 153:../../libDaisy//src/per/qspi.h ****      *  \returns Status
 154:../../libDaisy//src/per/qspi.h ****      */
 155:../../libDaisy//src/per/qspi.h ****     Status GetStatus();
 156:../../libDaisy//src/per/qspi.h **** 
 157:../../libDaisy//src/per/qspi.h ****     /** Returns a pointer to the actual memory used 
 158:../../libDaisy//src/per/qspi.h ****      *  The memory at this address is read-only
 159:../../libDaisy//src/per/qspi.h ****      *  to write to it use the Write function.
 160:../../libDaisy//src/per/qspi.h ****      * 
 161:../../libDaisy//src/per/qspi.h ****      *  \param offset returns the pointer starting this 
 162:../../libDaisy//src/per/qspi.h ****      *                many bytes into the memory
 163:../../libDaisy//src/per/qspi.h ****     */
 164:../../libDaisy//src/per/qspi.h ****     void* GetData(uint32_t offset = 0);
 165:../../libDaisy//src/per/qspi.h **** 
 166:../../libDaisy//src/per/qspi.h ****     QSPIHandle() : pimpl_(nullptr) {}
 2310              		.loc 14 166 5 is_stmt 1 view .LVU621
 2311              	.LBE952:
 2312              	.LBE950:
 2313              	.LBE949:
 2314              	.LBE948:
 2315              	.LBE947:
 2316              		.loc 12 323 1 is_stmt 0 view .LVU622
 2317 0000 08B5     		push	{r3, lr}
 2318              		.cfi_def_cfa_offset 8
 2319              		.cfi_offset 3, -8
 2320              		.cfi_offset 14, -4
 2321              	.LBB992:
 2322              	.LBB988:
 2323              	.LBB979:
 2324              	.LBB975:
 2325              	.LBB955:
 2326              	.LBB953:
 2327              	.LBB954:
 2328              		.loc 14 166 34 view .LVU623
 2329 0002 1248     		ldr	r0, .L126
 2330 0004 0023     		movs	r3, #0
 2331              	.LBE954:
 2332              	.LBE953:
 2333              	.LBE955:
 2334              	.LBE975:
 2335              	.LBE979:
  11:stupidtest.cpp **** Switch          toggle;
 2336              		.loc 12 11 17 view .LVU624
 2337 0006 124A     		ldr	r2, .L126+4
 2338              	.LBB980:
 2339              	.LBB976:
 2340              	.LBB956:
ARM GAS  /var/folders/hl/qgbwny5j0fd895c2c41bk3tw0000gp/T//ccnMoSgs.s 			page 76


 2341              	.LBB957:
 2342              	.LBB958:
 2343              	.LBB959:
 2344              	.LBB960:
 2345              		.file 15 "../../libDaisy//src/per/i2c.h"
   1:../../libDaisy//src/per/i2c.h **** #pragma once
   2:../../libDaisy//src/per/i2c.h **** #include "daisy_core.h"
   3:../../libDaisy//src/per/i2c.h **** 
   4:../../libDaisy//src/per/i2c.h **** namespace daisy
   5:../../libDaisy//src/per/i2c.h **** {
   6:../../libDaisy//src/per/i2c.h **** /** A handle for interacting with an I2C peripheral. This is a dumb
   7:../../libDaisy//src/per/i2c.h ****  *  gateway that internally points to one of the four I2C peripherals
   8:../../libDaisy//src/per/i2c.h ****  *  after it was initialised. It can then be copied and passed around.
   9:../../libDaisy//src/per/i2c.h ****  *  Use an I2CHandle like this:
  10:../../libDaisy//src/per/i2c.h ****  *  
  11:../../libDaisy//src/per/i2c.h ****  *      // setup the configuration
  12:../../libDaisy//src/per/i2c.h ****  *      I2CHandle::Config i2c_conf;
  13:../../libDaisy//src/per/i2c.h ****  *      i2c_conf.periph = I2CHandle::Config::Peripheral::I2C_1;
  14:../../libDaisy//src/per/i2c.h ****  *      i2c_conf.speed  = I2CHandle::Config::Speed::I2C_400KHZ;
  15:../../libDaisy//src/per/i2c.h ****  *      i2c_conf.mode   = I2CHandle::Config::Mode::Master;
  16:../../libDaisy//src/per/i2c.h ****  *      i2c_conf.pin_config.scl  = {DSY_GPIOB, 8};
  17:../../libDaisy//src/per/i2c.h ****  *      i2c_conf.pin_config.sda  = {DSY_GPIOB, 9};
  18:../../libDaisy//src/per/i2c.h ****  *      // initialise the peripheral
  19:../../libDaisy//src/per/i2c.h ****  *      I2CHandle i2c;
  20:../../libDaisy//src/per/i2c.h ****  *      i2c.Init(i2c_conf);
  21:../../libDaisy//src/per/i2c.h ****  *      // now i2c points to the corresponding peripheral and can be used.
  22:../../libDaisy//src/per/i2c.h ****  *      i2c.TransmitBlocking( ... );
  23:../../libDaisy//src/per/i2c.h ****  */
  24:../../libDaisy//src/per/i2c.h **** class I2CHandle
  25:../../libDaisy//src/per/i2c.h **** {
  26:../../libDaisy//src/per/i2c.h ****   public:
  27:../../libDaisy//src/per/i2c.h ****     /** Contains settings for initialising an I2C interface. */
  28:../../libDaisy//src/per/i2c.h ****     struct Config
  29:../../libDaisy//src/per/i2c.h ****     {
  30:../../libDaisy//src/per/i2c.h ****         /** Specifies whether the interface will operate in master or slave mode. */
  31:../../libDaisy//src/per/i2c.h ****         enum class Mode
  32:../../libDaisy//src/per/i2c.h ****         {
  33:../../libDaisy//src/per/i2c.h ****             I2C_MASTER,
  34:../../libDaisy//src/per/i2c.h ****             I2C_SLAVE,
  35:../../libDaisy//src/per/i2c.h ****         };
  36:../../libDaisy//src/per/i2c.h **** 
  37:../../libDaisy//src/per/i2c.h ****         /** Specifices the internal peripheral to use (these are mapped to different pins on the ha
  38:../../libDaisy//src/per/i2c.h ****         enum class Peripheral
  39:../../libDaisy//src/per/i2c.h ****         {
  40:../../libDaisy//src/per/i2c.h ****             I2C_1 = 0, /**< & */
  41:../../libDaisy//src/per/i2c.h ****             I2C_2,     /**< & */
  42:../../libDaisy//src/per/i2c.h ****             I2C_3,     /**< & */
  43:../../libDaisy//src/per/i2c.h ****             I2C_4,     /**< & */
  44:../../libDaisy//src/per/i2c.h ****         };
  45:../../libDaisy//src/per/i2c.h **** 
  46:../../libDaisy//src/per/i2c.h ****         /** Rate at which the clock/data will be sent/received. The device being used will have max
  47:../../libDaisy//src/per/i2c.h ****          *  1MHZ Mode is currently 886kHz
  48:../../libDaisy//src/per/i2c.h ****          */
  49:../../libDaisy//src/per/i2c.h ****         enum class Speed
  50:../../libDaisy//src/per/i2c.h ****         {
  51:../../libDaisy//src/per/i2c.h ****             I2C_100KHZ, /**< & */
  52:../../libDaisy//src/per/i2c.h ****             I2C_400KHZ, /**< & */
ARM GAS  /var/folders/hl/qgbwny5j0fd895c2c41bk3tw0000gp/T//ccnMoSgs.s 			page 77


  53:../../libDaisy//src/per/i2c.h ****             I2C_1MHZ,   /**< & */
  54:../../libDaisy//src/per/i2c.h ****         };
  55:../../libDaisy//src/per/i2c.h **** 
  56:../../libDaisy//src/per/i2c.h ****         Peripheral periph; /**< & */
  57:../../libDaisy//src/per/i2c.h ****         struct
  58:../../libDaisy//src/per/i2c.h ****         {
  59:../../libDaisy//src/per/i2c.h ****             dsy_gpio_pin scl; /**< & */
  60:../../libDaisy//src/per/i2c.h ****             dsy_gpio_pin sda; /**< & */
  61:../../libDaisy//src/per/i2c.h ****         } pin_config;         /**< & */
  62:../../libDaisy//src/per/i2c.h **** 
  63:../../libDaisy//src/per/i2c.h ****         Speed speed; /**< & */
  64:../../libDaisy//src/per/i2c.h ****         Mode  mode;  /**< & */
  65:../../libDaisy//src/per/i2c.h ****         // 0x10 is chosen as a default to avoid conflicts with reserved addresses
  66:../../libDaisy//src/per/i2c.h ****         uint8_t address = 0x10; /**< & */
  67:../../libDaisy//src/per/i2c.h ****     };
  68:../../libDaisy//src/per/i2c.h **** 
  69:../../libDaisy//src/per/i2c.h ****     /** Return values for I2C functions. */
  70:../../libDaisy//src/per/i2c.h ****     enum class Result
  71:../../libDaisy//src/per/i2c.h ****     {
  72:../../libDaisy//src/per/i2c.h ****         OK, /**< & */
  73:../../libDaisy//src/per/i2c.h ****         ERR /**< & */
  74:../../libDaisy//src/per/i2c.h ****     };
  75:../../libDaisy//src/per/i2c.h **** 
  76:../../libDaisy//src/per/i2c.h ****     enum class Direction
  77:../../libDaisy//src/per/i2c.h ****     {
  78:../../libDaisy//src/per/i2c.h ****         TRANSMIT, /**< & */
  79:../../libDaisy//src/per/i2c.h ****         RECEIVE,  /**< & */
  80:../../libDaisy//src/per/i2c.h ****     };
  81:../../libDaisy//src/per/i2c.h **** 
  82:../../libDaisy//src/per/i2c.h ****     I2CHandle() : pimpl_(nullptr) {}
 2346              		.loc 15 82 33 view .LVU625
 2347 0008 0362     		str	r3, [r0, #32]
 2348              	.LBE960:
 2349              	.LBE959:
 2350              	.LBE958:
 2351              	.LBE957:
 2352              	.LBE956:
 2353              	.LBB963:
 2354              	.LBB964:
 2355              	.LBB965:
 2356              		.file 16 "../../libDaisy//src/per/dac.h"
   1:../../libDaisy//src/per/dac.h **** #pragma once
   2:../../libDaisy//src/per/dac.h **** #ifndef DSY_DAC_H
   3:../../libDaisy//src/per/dac.h **** #define DSY_DAC_H
   4:../../libDaisy//src/per/dac.h **** 
   5:../../libDaisy//src/per/dac.h **** #include "daisy_core.h"
   6:../../libDaisy//src/per/dac.h **** 
   7:../../libDaisy//src/per/dac.h **** namespace daisy
   8:../../libDaisy//src/per/dac.h **** {
   9:../../libDaisy//src/per/dac.h **** /** @brief DAC handle for Built-in DAC Peripheral 
  10:../../libDaisy//src/per/dac.h ****  *  @ingroup per_analog
  11:../../libDaisy//src/per/dac.h ****  ** 
  12:../../libDaisy//src/per/dac.h ****  ** For now only Normal Mode is supported,
  13:../../libDaisy//src/per/dac.h ****  ** Sample and hold mode provides reduced power consumption, but requires a bit more setup.
  14:../../libDaisy//src/per/dac.h ****  **
  15:../../libDaisy//src/per/dac.h ****  ** For now connecting the DAC through other internal peripherals is also not supported.
  16:../../libDaisy//src/per/dac.h ****  **
ARM GAS  /var/folders/hl/qgbwny5j0fd895c2c41bk3tw0000gp/T//ccnMoSgs.s 			page 78


  17:../../libDaisy//src/per/dac.h ****  ** Since the DAC channels have dedicated pins we don't need to pass in a pin config like with
  18:../../libDaisy//src/per/dac.h ****  ** other modules. However, it is still important to not try to use the DAC pins for anything else.
  19:../../libDaisy//src/per/dac.h ****  ** DAC Channel 1 is on PA4, and DAC Channel 2 is on PA5
  20:../../libDaisy//src/per/dac.h ****  ***/
  21:../../libDaisy//src/per/dac.h **** class DacHandle
  22:../../libDaisy//src/per/dac.h **** {
  23:../../libDaisy//src/per/dac.h ****   public:
  24:../../libDaisy//src/per/dac.h ****     /** Return Values for the DacHandle class */
  25:../../libDaisy//src/per/dac.h ****     enum class Result
  26:../../libDaisy//src/per/dac.h ****     {
  27:../../libDaisy//src/per/dac.h ****         OK,
  28:../../libDaisy//src/per/dac.h ****         ERR,
  29:../../libDaisy//src/per/dac.h ****     };
  30:../../libDaisy//src/per/dac.h **** 
  31:../../libDaisy//src/per/dac.h ****     /** Selects which channel(s) will be configured for use. */
  32:../../libDaisy//src/per/dac.h ****     enum class Channel
  33:../../libDaisy//src/per/dac.h ****     {
  34:../../libDaisy//src/per/dac.h ****         ONE,
  35:../../libDaisy//src/per/dac.h ****         TWO,
  36:../../libDaisy//src/per/dac.h ****         BOTH,
  37:../../libDaisy//src/per/dac.h ****     };
  38:../../libDaisy//src/per/dac.h **** 
  39:../../libDaisy//src/per/dac.h ****     /** Sets the Mode for the DAC channels.
  40:../../libDaisy//src/per/dac.h ****      **
  41:../../libDaisy//src/per/dac.h ****      ** Polling mode uses the blocking mode to transmit a single value at a time.
  42:../../libDaisy//src/per/dac.h ****      **
  43:../../libDaisy//src/per/dac.h ****      ** DMA mode uses a buffer, and periodically transmits it triggering a 
  44:../../libDaisy//src/per/dac.h ****      ** callback to fill the buffer when it is ready for more samples.
  45:../../libDaisy//src/per/dac.h ****      ***/
  46:../../libDaisy//src/per/dac.h ****     enum class Mode
  47:../../libDaisy//src/per/dac.h ****     {
  48:../../libDaisy//src/per/dac.h ****         POLLING,
  49:../../libDaisy//src/per/dac.h ****         DMA,
  50:../../libDaisy//src/per/dac.h ****     };
  51:../../libDaisy//src/per/dac.h **** 
  52:../../libDaisy//src/per/dac.h ****     /** Sets the number of bits per sample transmitted out of the DAC.
  53:../../libDaisy//src/per/dac.h ****      ** The output range will be: 0V - VDDA
  54:../../libDaisy//src/per/dac.h ****      ** The resolution will be roughly: bitdepth / (VDDA - 0V) 
  55:../../libDaisy//src/per/dac.h ****      ***/
  56:../../libDaisy//src/per/dac.h ****     enum class BitDepth
  57:../../libDaisy//src/per/dac.h ****     {
  58:../../libDaisy//src/per/dac.h ****         BITS_8,
  59:../../libDaisy//src/per/dac.h ****         BITS_12
  60:../../libDaisy//src/per/dac.h ****     };
  61:../../libDaisy//src/per/dac.h **** 
  62:../../libDaisy//src/per/dac.h ****     /** Sets whether the DAC output is buffered for higher drive ability. */
  63:../../libDaisy//src/per/dac.h ****     enum class BufferState
  64:../../libDaisy//src/per/dac.h ****     {
  65:../../libDaisy//src/per/dac.h ****         ENABLED,
  66:../../libDaisy//src/per/dac.h ****         DISABLED,
  67:../../libDaisy//src/per/dac.h ****     };
  68:../../libDaisy//src/per/dac.h **** 
  69:../../libDaisy//src/per/dac.h ****     /** Configuration structure for initializing the DAC structure. */
  70:../../libDaisy//src/per/dac.h ****     struct Config
  71:../../libDaisy//src/per/dac.h ****     {
  72:../../libDaisy//src/per/dac.h ****         /** Target Samplerate in Hz used to configure the internal 
  73:../../libDaisy//src/per/dac.h ****          ** timebase for DMA mode. Does nothing in POLLING mode.
ARM GAS  /var/folders/hl/qgbwny5j0fd895c2c41bk3tw0000gp/T//ccnMoSgs.s 			page 79


  74:../../libDaisy//src/per/dac.h ****          ** If the value is 0 at Init time this will default to 48000Hz 
  75:../../libDaisy//src/per/dac.h ****          ** otherwise the driver will attempt meet the target.*/
  76:../../libDaisy//src/per/dac.h ****         uint32_t target_samplerate;
  77:../../libDaisy//src/per/dac.h **** 
  78:../../libDaisy//src/per/dac.h ****         Channel     chn;
  79:../../libDaisy//src/per/dac.h ****         Mode        mode;
  80:../../libDaisy//src/per/dac.h ****         BitDepth    bitdepth;
  81:../../libDaisy//src/per/dac.h ****         BufferState buff_state;
  82:../../libDaisy//src/per/dac.h ****     };
  83:../../libDaisy//src/per/dac.h **** 
  84:../../libDaisy//src/per/dac.h ****     DacHandle() : pimpl_(nullptr) {}
 2357              		.loc 16 84 33 view .LVU626
 2358 000a 8362     		str	r3, [r0, #40]
 2359              	.LBE965:
 2360              	.LBE964:
 2361              	.LBE963:
 2362              	.LBE976:
 2363              	.LBE980:
  11:stupidtest.cpp **** Switch          toggle;
 2364              		.loc 12 11 17 view .LVU627
 2365 000c 1149     		ldr	r1, .L126+8
 2366              	.LBB981:
 2367              	.LBB977:
 2368              	.LBB966:
 2369              	.LBB967:
 2370              	.LBB968:
  95:../../libDaisy//src/hid/audio.h ****     ~AudioHandle() {}
 2371              		.loc 9 95 35 view .LVU628
 2372 000e C0E90333 		strd	r3, r3, [r0, #12]
 2373              	.LVL161:
  95:../../libDaisy//src/hid/audio.h ****     ~AudioHandle() {}
 2374              		.loc 9 95 35 view .LVU629
 2375              	.LBE968:
 2376              	.LBE967:
 2377              	.LBE966:
 2378              	.LBB969:
 2379              	.LBI969:
  92:../../libDaisy//src/per/adc.h ****     ~AdcHandle() {}
 2380              		.loc 8 92 5 is_stmt 1 view .LVU630
  92:../../libDaisy//src/per/adc.h ****     ~AdcHandle() {}
 2381              		.loc 8 92 5 is_stmt 0 view .LVU631
 2382              	.LBE969:
 2383              	.LBB970:
 2384              	.LBI970:
  40:../../libDaisy//src/hid/usb.h **** 
 2385              		.loc 7 40 5 is_stmt 1 view .LVU632
  40:../../libDaisy//src/hid/usb.h **** 
 2386              		.loc 7 40 5 is_stmt 0 view .LVU633
 2387              	.LBE970:
 2388              	.LBB971:
 2389              	.LBI956:
  28:../../libDaisy//src/dev/codec_pcm3060.h ****     ~Pcm3060() {}
 2390              		.loc 6 28 5 is_stmt 1 view .LVU634
 2391              	.LBB962:
 2392              	.LBB961:
 2393              	.LBI958:
 2394              		.loc 15 82 5 view .LVU635
ARM GAS  /var/folders/hl/qgbwny5j0fd895c2c41bk3tw0000gp/T//ccnMoSgs.s 			page 80


 2395              		.loc 15 82 5 is_stmt 0 view .LVU636
 2396              	.LBE961:
 2397              	.LBE962:
 2398              	.LBE971:
 2399              	.LBB972:
 2400              	.LBI963:
 2401              		.loc 16 84 5 is_stmt 1 view .LVU637
 2402              		.loc 16 84 5 is_stmt 0 view .LVU638
 2403              	.LBE972:
 2404              	.LBE977:
 2405              	.LBE981:
 2406              	.LBE988:
 2407              	.LBE992:
  64:../../libDaisy//src/daisy_patch_sm.h ****         ~DaisyPatchSM() {}
 2408              		.loc 4 64 24 is_stmt 1 view .LVU639
 2409              	.LBB993:
 2410              	.LBB989:
 2411              	.LBB982:
 2412              	.LBB978:
 2413              	.LBB973:
 2414              	.LBI973:
  20:../../libDaisy//src/hid/gatein.h ****     /** GateIn~
 2415              		.loc 5 20 5 view .LVU640
  20:../../libDaisy//src/hid/gatein.h ****     /** GateIn~
 2416              		.loc 5 20 5 is_stmt 0 view .LVU641
 2417              	.LBE973:
 2418              	.LBB974:
 2419              	.LBI974:
  20:../../libDaisy//src/hid/gatein.h ****     /** GateIn~
 2420              		.loc 5 20 5 is_stmt 1 view .LVU642
  20:../../libDaisy//src/hid/gatein.h ****     /** GateIn~
 2421              		.loc 5 20 5 is_stmt 0 view .LVU643
 2422              	.LBE974:
 2423              	.LBE978:
 2424              	.LBE982:
  11:stupidtest.cpp **** Switch          toggle;
 2425              		.loc 12 11 17 view .LVU644
 2426 0012 FFF7FEFF 		bl	__aeabi_atexit
 2427              	.LVL162:
 2428              	.LBB983:
 2429              	.LBI983:
  41:../../libDaisy//src/hid/switch.h ****     ~Switch() {}
 2430              		.loc 3 41 5 is_stmt 1 view .LVU645
  41:../../libDaisy//src/hid/switch.h ****     ~Switch() {}
 2431              		.loc 3 41 5 is_stmt 0 view .LVU646
 2432              	.LBE983:
  12:stupidtest.cpp **** Switch          button;
 2433              		.loc 12 12 17 view .LVU647
 2434 0016 1049     		ldr	r1, .L126+12
 2435 0018 0D4A     		ldr	r2, .L126+4
 2436 001a 1048     		ldr	r0, .L126+16
 2437 001c FFF7FEFF 		bl	__aeabi_atexit
 2438              	.LVL163:
 2439              	.LBB984:
 2440              	.LBI984:
  41:../../libDaisy//src/hid/switch.h ****     ~Switch() {}
 2441              		.loc 3 41 5 is_stmt 1 view .LVU648
ARM GAS  /var/folders/hl/qgbwny5j0fd895c2c41bk3tw0000gp/T//ccnMoSgs.s 			page 81


  41:../../libDaisy//src/hid/switch.h ****     ~Switch() {}
 2442              		.loc 3 41 5 is_stmt 0 view .LVU649
 2443              	.LBE984:
  13:stupidtest.cpp **** ReverbSc        rv;
 2444              		.loc 12 13 17 view .LVU650
 2445 0020 0B4A     		ldr	r2, .L126+4
 2446 0022 0D49     		ldr	r1, .L126+12
 2447 0024 0E48     		ldr	r0, .L126+20
 2448 0026 FFF7FEFF 		bl	__aeabi_atexit
 2449              	.LVL164:
 2450              	.LBB985:
 2451              	.LBI985:
  40:../../DaisySP//Source/Effects/reverbsc.h ****     ~ReverbSc() {}
 2452              		.loc 2 40 5 is_stmt 1 view .LVU651
  40:../../DaisySP//Source/Effects/reverbsc.h ****     ~ReverbSc() {}
 2453              		.loc 2 40 5 is_stmt 0 view .LVU652
 2454              	.LBE985:
  14:stupidtest.cpp **** Svf             svf;
 2455              		.loc 12 14 17 view .LVU653
 2456 002a 094A     		ldr	r2, .L126+4
 2457 002c 0D49     		ldr	r1, .L126+24
 2458 002e 0E48     		ldr	r0, .L126+28
 2459 0030 FFF7FEFF 		bl	__aeabi_atexit
 2460              	.LVL165:
 2461              	.LBB986:
 2462              	.LBI986:
  21:../../DaisySP//Source/Filters/svf.h ****     ~Svf() {}
 2463              		.loc 1 21 5 is_stmt 1 view .LVU654
  21:../../DaisySP//Source/Filters/svf.h ****     ~Svf() {}
 2464              		.loc 1 21 5 is_stmt 0 view .LVU655
 2465              	.LBE986:
  15:stupidtest.cpp **** 
 2466              		.loc 12 15 17 view .LVU656
 2467 0034 064A     		ldr	r2, .L126+4
 2468 0036 0D49     		ldr	r1, .L126+32
 2469 0038 0D48     		ldr	r0, .L126+36
 2470 003a FFF7FEFF 		bl	__aeabi_atexit
 2471              	.LVL166:
 2472              	.LBB987:
 2473              	.LBI987:
  94:/opt/homebrew/Cellar/arm-none-eabi-gcc/10.3-2021.07/gcc/arm-none-eabi/include/c++/10.3.1/array ****     {
 2474              		.loc 11 94 12 is_stmt 1 view .LVU657
 2475              	.LBE987:
 2476              	.LBE989:
 2477              	.LBE993:
  94:/opt/homebrew/Cellar/arm-none-eabi-gcc/10.3-2021.07/gcc/arm-none-eabi/include/c++/10.3.1/array ****     {
 2478              		.loc 11 94 12 view .LVU658
 2479              	.LBB994:
